
spi_ar6002.ko:     file format elf32-tradlittlemips

Disassembly of section .text:

00000000 <HIFClaimDevice>:
       0:	03e00008 	jr	ra
       4:	ac850004 	sw	a1,4(a0)

00000008 <HIFReleaseDevice>:
       8:	03e00008 	jr	ra
       c:	ac800004 	sw	zero,4(a0)

00000010 <HIFAttachHTC>:
      10:	8c820294 	lw	v0,660(a0)
      14:	00803021 	move	a2,a0
      18:	10400003 	beqz	v0,28 <HIFAttachHTC+0x18>
      1c:	2403ffff 	li	v1,-1
      20:	03e00008 	jr	ra
      24:	00601021 	move	v0,v1
      28:	8ca30000 	lw	v1,0(a1)
      2c:	8ca20008 	lw	v0,8(a1)
      30:	8ca40004 	lw	a0,4(a1)
      34:	acc30294 	sw	v1,660(a2)
      38:	00001821 	move	v1,zero
      3c:	acc2029c 	sw	v0,668(a2)
      40:	00601021 	move	v0,v1
      44:	03e00008 	jr	ra
      48:	acc40298 	sw	a0,664(a2)

0000004c <HIFDetachHTC>:
      4c:	3c190000 	lui	t9,0x0
			4c: R_MIPS_HI16	memset
      50:	24840294 	addiu	a0,a0,660
      54:	00002821 	move	a1,zero
      58:	27390000 	addiu	t9,t9,0
			58: R_MIPS_LO16	memset
      5c:	03200008 	jr	t9
      60:	2406000c 	li	a2,12

00000064 <hifIRQHandler>:
      64:	27bdffe0 	addiu	sp,sp,-32
      68:	afb10014 	sw	s1,20(sp)
      6c:	afb00010 	sw	s0,16(sp)
      70:	afbf0018 	sw	ra,24(sp)
      74:	3c110000 	lui	s1,0x0
			74: R_MIPS_HI16	debughif
      78:	8e220000 	lw	v0,0(s1)
			78: R_MIPS_LO16	debughif
      7c:	00808021 	move	s0,a0
      80:	3c050000 	lui	a1,0x0
			80: R_MIPS_HI16	.rodata
      84:	3c040000 	lui	a0,0x0
			84: R_MIPS_HI16	$LC0
      88:	2c420003 	sltiu	v0,v0,3
      8c:	24a5002c 	addiu	a1,a1,44
			8c: R_MIPS_LO16	.rodata
      90:	24840000 	addiu	a0,a0,0
			90: R_MIPS_LO16	$LC0
      94:	1040001a 	beqz	v0,100 <hifIRQHandler+0x9c>
      98:	02003021 	move	a2,s0
      9c:	8e02029c 	lw	v0,668(s0)
      a0:	0040f809 	jalr	v0
      a4:	8e040294 	lw	a0,660(s0)
      a8:	10400009 	beqz	v0,d0 <hifIRQHandler+0x6c>
      ac:	8e220000 	lw	v0,0(s1)
			ac: R_MIPS_LO16	debughif
      b0:	3c040000 	lui	a0,0x0
			b0: R_MIPS_HI16	$LC1
      b4:	3c050000 	lui	a1,0x0
			b4: R_MIPS_HI16	$LC2
      b8:	3c070000 	lui	a3,0x0
			b8: R_MIPS_HI16	$LC3
      bc:	24840000 	addiu	a0,a0,0
			bc: R_MIPS_LO16	$LC1
      c0:	24a50000 	addiu	a1,a1,0
			c0: R_MIPS_LO16	$LC2
      c4:	24e70000 	addiu	a3,a3,0
			c4: R_MIPS_LO16	$LC3
      c8:	14400006 	bnez	v0,e4 <hifIRQHandler+0x80>
      cc:	24060222 	li	a2,546
      d0:	8fbf0018 	lw	ra,24(sp)
      d4:	8fb10014 	lw	s1,20(sp)
      d8:	8fb00010 	lw	s0,16(sp)
      dc:	03e00008 	jr	ra
      e0:	27bd0020 	addiu	sp,sp,32
      e4:	3c190000 	lui	t9,0x0
			e4: R_MIPS_HI16	printk
      e8:	8fbf0018 	lw	ra,24(sp)
      ec:	8fb10014 	lw	s1,20(sp)
      f0:	8fb00010 	lw	s0,16(sp)
      f4:	27390000 	addiu	t9,t9,0
			f4: R_MIPS_LO16	printk
      f8:	03200008 	jr	t9
      fc:	27bd0020 	addiu	sp,sp,32
     100:	3c020000 	lui	v0,0x0
			100: R_MIPS_HI16	printk
     104:	24420000 	addiu	v0,v0,0
			104: R_MIPS_LO16	printk
     108:	0040f809 	jalr	v0
     10c:	00000000 	nop
     110:	08000028 	j	a0 <hifIRQHandler+0x3c>
			110: R_MIPS_26	.text
     114:	8e02029c 	lw	v0,668(s0)

00000118 <HIFConfigureDevice>:
     118:	27bdffe8 	addiu	sp,sp,-24
     11c:	2ca20006 	sltiu	v0,a1,6
     120:	10400008 	beqz	v0,144 <HIFConfigureDevice+0x2c>
     124:	afbf0010 	sw	ra,16(sp)
     128:	3c030000 	lui	v1,0x0
			128: R_MIPS_HI16	.rodata
     12c:	00051080 	sll	v0,a1,0x2
     130:	24630000 	addiu	v1,v1,0
			130: R_MIPS_LO16	.rodata
     134:	00431021 	addu	v0,v0,v1
     138:	8c440000 	lw	a0,0(v0)
     13c:	00800008 	jr	a0
     140:	00000000 	nop
     144:	3c020000 	lui	v0,0x0
			144: R_MIPS_HI16	debughif
     148:	8c430000 	lw	v1,0(v0)
			148: R_MIPS_LO16	debughif
     14c:	14600030 	bnez	v1,210 <HIFConfigureDevice+0xf8>
     150:	3c040000 	lui	a0,0x0
			150: R_MIPS_HI16	$LC5
     154:	2403ffff 	li	v1,-1
     158:	8fbf0010 	lw	ra,16(sp)
     15c:	00601021 	move	v0,v1
     160:	03e00008 	jr	ra
     164:	27bd0018 	addiu	sp,sp,24
     168:	24020004 	li	v0,4
     16c:	00001821 	move	v1,zero
     170:	acc2000c 	sw	v0,12(a2)
     174:	acc20000 	sw	v0,0(a2)
     178:	acc20004 	sw	v0,4(a2)
     17c:	08000056 	j	158 <HIFConfigureDevice+0x40>
			17c: R_MIPS_26	.text
     180:	acc20008 	sw	v0,8(a2)
     184:	3c020000 	lui	v0,0x0
			184: R_MIPS_HI16	.text
     188:	2442127c 	addiu	v0,v0,4732
			188: R_MIPS_LO16	.text
     18c:	00001821 	move	v1,zero
     190:	08000056 	j	158 <HIFConfigureDevice+0x40>
			190: R_MIPS_26	.text
     194:	acc20000 	sw	v0,0(a2)
     198:	acc00000 	sw	zero,0(a2)
     19c:	3c030000 	lui	v1,0x0
			19c: R_MIPS_HI16	debughif
     1a0:	8c620000 	lw	v0,0(v1)
			1a0: R_MIPS_LO16	debughif
     1a4:	2c420003 	sltiu	v0,v0,3
     1a8:	10400013 	beqz	v0,1f8 <HIFConfigureDevice+0xe0>
     1ac:	3c040000 	lui	a0,0x0
			1ac: R_MIPS_HI16	$LC4
     1b0:	00001821 	move	v1,zero
     1b4:	8fbf0010 	lw	ra,16(sp)
     1b8:	00601021 	move	v0,v1
     1bc:	03e00008 	jr	ra
     1c0:	27bd0018 	addiu	sp,sp,24
     1c4:	3c020000 	lui	v0,0x0
			1c4: R_MIPS_HI16	.text
     1c8:	2442175c 	addiu	v0,v0,5980
			1c8: R_MIPS_LO16	.text
     1cc:	00001821 	move	v1,zero
     1d0:	08000056 	j	158 <HIFConfigureDevice+0x40>
			1d0: R_MIPS_26	.text
     1d4:	acc20000 	sw	v0,0(a2)
     1d8:	24020800 	li	v0,2048
     1dc:	24032800 	li	v1,10240
     1e0:	acc20000 	sw	v0,0(a2)
     1e4:	24420800 	addiu	v0,v0,2048
     1e8:	1443fffd 	bne	v0,v1,1e0 <HIFConfigureDevice+0xc8>
     1ec:	24c60004 	addiu	a2,a2,4
     1f0:	0800006d 	j	1b4 <HIFConfigureDevice+0x9c>
			1f0: R_MIPS_26	.text
     1f4:	00001821 	move	v1,zero
     1f8:	3c020000 	lui	v0,0x0
			1f8: R_MIPS_HI16	printk
     1fc:	24420000 	addiu	v0,v0,0
			1fc: R_MIPS_LO16	printk
     200:	0040f809 	jalr	v0
     204:	24840000 	addiu	a0,a0,0
			204: R_MIPS_LO16	$LC4
     208:	08000056 	j	158 <HIFConfigureDevice+0x40>
			208: R_MIPS_26	.text
     20c:	00001821 	move	v1,zero
     210:	3c020000 	lui	v0,0x0
			210: R_MIPS_HI16	printk
     214:	24420000 	addiu	v0,v0,0
			214: R_MIPS_LO16	printk
     218:	0040f809 	jalr	v0
     21c:	24840000 	addiu	a0,a0,0
			21c: R_MIPS_LO16	$LC5
     220:	08000056 	j	158 <HIFConfigureDevice+0x40>
			220: R_MIPS_26	.text
     224:	2403ffff 	li	v1,-1

00000228 <delHifDevice>:
     228:	27bdffe8 	addiu	sp,sp,-24
     22c:	10800006 	beqz	a0,248 <delHifDevice+0x20>
     230:	afbf0010 	sw	ra,16(sp)
     234:	3c020000 	lui	v0,0x0
			234: R_MIPS_HI16	.bss
     238:	ac400018 	sw	zero,24(v0)
			238: R_MIPS_LO16	.bss
     23c:	8fbf0010 	lw	ra,16(sp)
     240:	03e00008 	jr	ra
     244:	27bd0018 	addiu	sp,sp,24
     248:	3c040000 	lui	a0,0x0
			248: R_MIPS_HI16	$LC6
     24c:	3c020000 	lui	v0,0x0
			24c: R_MIPS_HI16	printk
     250:	24840000 	addiu	a0,a0,0
			250: R_MIPS_LO16	$LC6
     254:	24420000 	addiu	v0,v0,0
			254: R_MIPS_LO16	printk
     258:	0040f809 	jalr	v0
     25c:	240500a5 	li	a1,165
     260:	3c040000 	lui	a0,0x0
			260: R_MIPS_HI16	$LC7
     264:	3c020000 	lui	v0,0x0
			264: R_MIPS_HI16	panic
     268:	24420000 	addiu	v0,v0,0
			268: R_MIPS_LO16	panic
     26c:	0040f809 	jalr	v0
     270:	24840000 	addiu	a0,a0,0
			270: R_MIPS_LO16	$LC7

00000274 <hifCleanupDevice>:
     274:	27bdffe0 	addiu	sp,sp,-32
     278:	afb20018 	sw	s2,24(sp)
     27c:	afb10014 	sw	s1,20(sp)
     280:	afb00010 	sw	s0,16(sp)
     284:	afbf001c 	sw	ra,28(sp)
     288:	00808821 	move	s1,a0
     28c:	00808021 	move	s0,a0
     290:	24920280 	addiu	s2,a0,640
     294:	8e020010 	lw	v0,16(s0)
     298:	10400006 	beqz	v0,2b4 <hifCleanupDevice+0x40>
     29c:	00402821 	move	a1,v0
     2a0:	8e240000 	lw	a0,0(s1)
     2a4:	8c82001c 	lw	v0,28(a0)
     2a8:	0040f809 	jalr	v0
     2ac:	00000000 	nop
     2b0:	ae000010 	sw	zero,16(s0)
     2b4:	26100010 	addiu	s0,s0,16
     2b8:	1612fff6 	bne	s0,s2,294 <hifCleanupDevice+0x20>
     2bc:	3c190000 	lui	t9,0x0
			2bc: R_MIPS_HI16	delHifDevice
     2c0:	8e240000 	lw	a0,0(s1)
     2c4:	8fbf001c 	lw	ra,28(sp)
     2c8:	8fb20018 	lw	s2,24(sp)
     2cc:	8fb10014 	lw	s1,20(sp)
     2d0:	8fb00010 	lw	s0,16(sp)
     2d4:	27390000 	addiu	t9,t9,0
			2d4: R_MIPS_LO16	delHifDevice
     2d8:	03200008 	jr	t9
     2dc:	27bd0020 	addiu	sp,sp,32

000002e0 <hifDeviceRemoved>:
     2e0:	27bdffe0 	addiu	sp,sp,-32
     2e4:	afb00010 	sw	s0,16(sp)
     2e8:	afbf0018 	sw	ra,24(sp)
     2ec:	afb10014 	sw	s1,20(sp)
     2f0:	10800026 	beqz	a0,38c <hifDeviceRemoved+0xac>
     2f4:	00a08021 	move	s0,a1
     2f8:	12000033 	beqz	s0,3c8 <hifDeviceRemoved+0xe8>
     2fc:	3c020000 	lui	v0,0x0
			2fc: R_MIPS_HI16	debughif
     300:	8e110028 	lw	s1,40(s0)
     304:	8e240004 	lw	a0,4(s1)
     308:	1080003d 	beqz	a0,400 <hifDeviceRemoved+0x120>
     30c:	3c030000 	lui	v1,0x0
			30c: R_MIPS_HI16	osdrvCallbacks
     310:	8c620008 	lw	v0,8(v1)
			310: R_MIPS_LO16	osdrvCallbacks
     314:	0040f809 	jalr	v0
     318:	02202821 	move	a1,s1
     31c:	00408021 	move	s0,v0
     320:	3c020000 	lui	v0,0x0
			320: R_MIPS_HI16	.text
     324:	24420274 	addiu	v0,v0,628
			324: R_MIPS_LO16	.text
     328:	0040f809 	jalr	v0
     32c:	02202021 	move	a0,s1
     330:	12000004 	beqz	s0,344 <hifDeviceRemoved+0x64>
     334:	3c020000 	lui	v0,0x0
			334: R_MIPS_HI16	debughif
     338:	8c430000 	lw	v1,0(v0)
			338: R_MIPS_LO16	debughif
     33c:	14600006 	bnez	v1,358 <hifDeviceRemoved+0x78>
     340:	3c050000 	lui	a1,0x0
			340: R_MIPS_HI16	$LC2
     344:	8fbf0018 	lw	ra,24(sp)
     348:	8fb10014 	lw	s1,20(sp)
     34c:	8fb00010 	lw	s0,16(sp)
     350:	03e00008 	jr	ra
     354:	27bd0020 	addiu	sp,sp,32
     358:	3c040000 	lui	a0,0x0
			358: R_MIPS_HI16	$LC1
     35c:	3c070000 	lui	a3,0x0
			35c: R_MIPS_HI16	$LC3
     360:	3c190000 	lui	t9,0x0
			360: R_MIPS_HI16	printk
     364:	8fbf0018 	lw	ra,24(sp)
     368:	8fb10014 	lw	s1,20(sp)
     36c:	8fb00010 	lw	s0,16(sp)
     370:	24840000 	addiu	a0,a0,0
			370: R_MIPS_LO16	$LC1
     374:	24a50000 	addiu	a1,a1,0
			374: R_MIPS_LO16	$LC2
     378:	24e70000 	addiu	a3,a3,0
			378: R_MIPS_LO16	$LC3
     37c:	240602e9 	li	a2,745
     380:	27390000 	addiu	t9,t9,0
			380: R_MIPS_LO16	printk
     384:	03200008 	jr	t9
     388:	27bd0020 	addiu	sp,sp,32
     38c:	3c020000 	lui	v0,0x0
			38c: R_MIPS_HI16	debughif
     390:	8c430000 	lw	v1,0(v0)
			390: R_MIPS_LO16	debughif
     394:	1060ffd8 	beqz	v1,2f8 <hifDeviceRemoved+0x18>
     398:	3c040000 	lui	a0,0x0
			398: R_MIPS_HI16	$LC1
     39c:	3c050000 	lui	a1,0x0
			39c: R_MIPS_HI16	$LC2
     3a0:	3c070000 	lui	a3,0x0
			3a0: R_MIPS_HI16	$LC8
     3a4:	3c020000 	lui	v0,0x0
			3a4: R_MIPS_HI16	printk
     3a8:	24840000 	addiu	a0,a0,0
			3a8: R_MIPS_LO16	$LC1
     3ac:	24a50000 	addiu	a1,a1,0
			3ac: R_MIPS_LO16	$LC2
     3b0:	24e70000 	addiu	a3,a3,0
			3b0: R_MIPS_LO16	$LC8
     3b4:	24420000 	addiu	v0,v0,0
			3b4: R_MIPS_LO16	printk
     3b8:	0040f809 	jalr	v0
     3bc:	240602df 	li	a2,735
     3c0:	1600ffcf 	bnez	s0,300 <hifDeviceRemoved+0x20>
     3c4:	3c020000 	lui	v0,0x0
			3c4: R_MIPS_HI16	debughif
     3c8:	8c430000 	lw	v1,0(v0)
			3c8: R_MIPS_LO16	debughif
     3cc:	1060ffcc 	beqz	v1,300 <hifDeviceRemoved+0x20>
     3d0:	3c040000 	lui	a0,0x0
			3d0: R_MIPS_HI16	$LC1
     3d4:	3c050000 	lui	a1,0x0
			3d4: R_MIPS_HI16	$LC2
     3d8:	3c070000 	lui	a3,0x0
			3d8: R_MIPS_HI16	$LC7
     3dc:	3c020000 	lui	v0,0x0
			3dc: R_MIPS_HI16	printk
     3e0:	24840000 	addiu	a0,a0,0
			3e0: R_MIPS_LO16	$LC1
     3e4:	24a50000 	addiu	a1,a1,0
			3e4: R_MIPS_LO16	$LC2
     3e8:	24e70000 	addiu	a3,a3,0
			3e8: R_MIPS_LO16	$LC7
     3ec:	24420000 	addiu	v0,v0,0
			3ec: R_MIPS_LO16	printk
     3f0:	0040f809 	jalr	v0
     3f4:	240602e0 	li	a2,736
     3f8:	080000c1 	j	304 <hifDeviceRemoved+0x24>
			3f8: R_MIPS_26	.text
     3fc:	8e110028 	lw	s1,40(s0)
     400:	3c190000 	lui	t9,0x0
			400: R_MIPS_HI16	.text
     404:	02202021 	move	a0,s1
     408:	8fbf0018 	lw	ra,24(sp)
     40c:	8fb10014 	lw	s1,20(sp)
     410:	8fb00010 	lw	s0,16(sp)
     414:	27390274 	addiu	t9,t9,628
			414: R_MIPS_LO16	.text
     418:	03200008 	jr	t9
     41c:	27bd0020 	addiu	sp,sp,32

00000420 <HIFgetDevice>:
     420:	27bdffe8 	addiu	sp,sp,-24
     424:	10800006 	beqz	a0,440 <HIFgetDevice+0x20>
     428:	afbf0010 	sw	ra,16(sp)
     42c:	3c020000 	lui	v0,0x0
			42c: R_MIPS_HI16	.bss
     430:	8fbf0010 	lw	ra,16(sp)
     434:	24420018 	addiu	v0,v0,24
			434: R_MIPS_LO16	.bss
     438:	03e00008 	jr	ra
     43c:	27bd0018 	addiu	sp,sp,24
     440:	3c040000 	lui	a0,0x0
			440: R_MIPS_HI16	$LC6
     444:	3c020000 	lui	v0,0x0
			444: R_MIPS_HI16	printk
     448:	24840000 	addiu	a0,a0,0
			448: R_MIPS_LO16	$LC6
     44c:	24420000 	addiu	v0,v0,0
			44c: R_MIPS_LO16	printk
     450:	0040f809 	jalr	v0
     454:	2405009f 	li	a1,159
     458:	3c040000 	lui	a0,0x0
			458: R_MIPS_HI16	$LC7
     45c:	3c020000 	lui	v0,0x0
			45c: R_MIPS_HI16	panic
     460:	24420000 	addiu	v0,v0,0
			460: R_MIPS_LO16	panic
     464:	0040f809 	jalr	v0
     468:	24840000 	addiu	a0,a0,0
			468: R_MIPS_LO16	$LC7

0000046c <addHifDevice>:
     46c:	27bdffe8 	addiu	sp,sp,-24
     470:	10800007 	beqz	a0,490 <addHifDevice+0x24>
     474:	afbf0010 	sw	ra,16(sp)
     478:	3c020000 	lui	v0,0x0
			478: R_MIPS_HI16	.bss
     47c:	ac440018 	sw	a0,24(v0)
			47c: R_MIPS_LO16	.bss
     480:	8fbf0010 	lw	ra,16(sp)
     484:	24420018 	addiu	v0,v0,24
			484: R_MIPS_LO16	.bss
     488:	03e00008 	jr	ra
     48c:	27bd0018 	addiu	sp,sp,24
     490:	3c040000 	lui	a0,0x0
			490: R_MIPS_HI16	$LC6
     494:	3c020000 	lui	v0,0x0
			494: R_MIPS_HI16	printk
     498:	24840000 	addiu	a0,a0,0
			498: R_MIPS_LO16	$LC6
     49c:	24420000 	addiu	v0,v0,0
			49c: R_MIPS_LO16	printk
     4a0:	0040f809 	jalr	v0
     4a4:	24050098 	li	a1,152
     4a8:	3c040000 	lui	a0,0x0
			4a8: R_MIPS_HI16	$LC7
     4ac:	3c020000 	lui	v0,0x0
			4ac: R_MIPS_HI16	panic
     4b0:	24420000 	addiu	v0,v0,0
			4b0: R_MIPS_LO16	panic
     4b4:	0040f809 	jalr	v0
     4b8:	24840000 	addiu	a0,a0,0
			4b8: R_MIPS_LO16	$LC7

000004bc <HIFSpiDumpRegs>:
     4bc:	27bdffe0 	addiu	sp,sp,-32
     4c0:	afbf0018 	sw	ra,24(sp)
     4c4:	8c840000 	lw	a0,0(a0)
     4c8:	3c020000 	lui	v0,0x0
			4c8: R_MIPS_HI16	SDLIB_IssueConfig
     4cc:	27a60010 	addiu	a2,sp,16
     4d0:	24056132 	li	a1,24882
     4d4:	24420000 	addiu	v0,v0,0
			4d4: R_MIPS_LO16	SDLIB_IssueConfig
     4d8:	0040f809 	jalr	v0
     4dc:	24070004 	li	a3,4
     4e0:	8fbf0018 	lw	ra,24(sp)
     4e4:	03e00008 	jr	ra
     4e8:	27bd0020 	addiu	sp,sp,32

000004ec <HIFMaskInterrupt>:
     4ec:	27bdffe8 	addiu	sp,sp,-24
     4f0:	afb00010 	sw	s0,16(sp)
     4f4:	afbf0014 	sw	ra,20(sp)
     4f8:	10800020 	beqz	a0,57c <HIFMaskInterrupt+0x90>
     4fc:	00808021 	move	s0,a0
     500:	8e080000 	lw	t0,0(s0)
     504:	1100002d 	beqz	t0,5bc <HIFMaskInterrupt+0xd0>
     508:	3c020000 	lui	v0,0x0
			508: R_MIPS_HI16	debughif
     50c:	3c020000 	lui	v0,0x0
			50c: R_MIPS_HI16	SDLIB_IssueConfig
     510:	01002021 	move	a0,t0
     514:	24050016 	li	a1,22
     518:	00003021 	move	a2,zero
     51c:	24420000 	addiu	v0,v0,0
			51c: R_MIPS_LO16	SDLIB_IssueConfig
     520:	0040f809 	jalr	v0
     524:	00003821 	move	a3,zero
     528:	04400005 	bltz	v0,540 <HIFMaskInterrupt+0x54>
     52c:	3c020000 	lui	v0,0x0
			52c: R_MIPS_HI16	debughif
     530:	8fbf0014 	lw	ra,20(sp)
     534:	8fb00010 	lw	s0,16(sp)
     538:	03e00008 	jr	ra
     53c:	27bd0018 	addiu	sp,sp,24
     540:	8c430000 	lw	v1,0(v0)
			540: R_MIPS_LO16	debughif
     544:	3c040000 	lui	a0,0x0
			544: R_MIPS_HI16	$LC1
     548:	3c050000 	lui	a1,0x0
			548: R_MIPS_HI16	$LC2
     54c:	3c070000 	lui	a3,0x0
			54c: R_MIPS_HI16	$LC11
     550:	24840000 	addiu	a0,a0,0
			550: R_MIPS_LO16	$LC1
     554:	24a50000 	addiu	a1,a1,0
			554: R_MIPS_LO16	$LC2
     558:	24e70000 	addiu	a3,a3,0
			558: R_MIPS_LO16	$LC11
     55c:	1060fff4 	beqz	v1,530 <HIFMaskInterrupt+0x44>
     560:	240601c8 	li	a2,456
     564:	3c190000 	lui	t9,0x0
			564: R_MIPS_HI16	printk
     568:	8fbf0014 	lw	ra,20(sp)
     56c:	8fb00010 	lw	s0,16(sp)
     570:	27390000 	addiu	t9,t9,0
			570: R_MIPS_LO16	printk
     574:	03200008 	jr	t9
     578:	27bd0018 	addiu	sp,sp,24
     57c:	3c020000 	lui	v0,0x0
			57c: R_MIPS_HI16	debughif
     580:	8c430000 	lw	v1,0(v0)
			580: R_MIPS_LO16	debughif
     584:	3c040000 	lui	a0,0x0
			584: R_MIPS_HI16	$LC1
     588:	3c050000 	lui	a1,0x0
			588: R_MIPS_HI16	$LC2
     58c:	3c070000 	lui	a3,0x0
			58c: R_MIPS_HI16	$LC9
     590:	24840000 	addiu	a0,a0,0
			590: R_MIPS_LO16	$LC1
     594:	24a50000 	addiu	a1,a1,0
			594: R_MIPS_LO16	$LC2
     598:	24e70000 	addiu	a3,a3,0
			598: R_MIPS_LO16	$LC9
     59c:	1060ffd8 	beqz	v1,500 <HIFMaskInterrupt+0x14>
     5a0:	240601c2 	li	a2,450
     5a4:	3c020000 	lui	v0,0x0
			5a4: R_MIPS_HI16	printk
     5a8:	24420000 	addiu	v0,v0,0
			5a8: R_MIPS_LO16	printk
     5ac:	0040f809 	jalr	v0
     5b0:	00000000 	nop
     5b4:	08000141 	j	504 <HIFMaskInterrupt+0x18>
			5b4: R_MIPS_26	.text
     5b8:	8e080000 	lw	t0,0(s0)
     5bc:	8c430000 	lw	v1,0(v0)
			5bc: R_MIPS_LO16	debughif
     5c0:	3c040000 	lui	a0,0x0
			5c0: R_MIPS_HI16	$LC1
     5c4:	3c050000 	lui	a1,0x0
			5c4: R_MIPS_HI16	$LC2
     5c8:	3c070000 	lui	a3,0x0
			5c8: R_MIPS_HI16	$LC10
     5cc:	24840000 	addiu	a0,a0,0
			5cc: R_MIPS_LO16	$LC1
     5d0:	24a50000 	addiu	a1,a1,0
			5d0: R_MIPS_LO16	$LC2
     5d4:	24e70000 	addiu	a3,a3,0
			5d4: R_MIPS_LO16	$LC10
     5d8:	1060ffcc 	beqz	v1,50c <HIFMaskInterrupt+0x20>
     5dc:	240601c3 	li	a2,451
     5e0:	3c020000 	lui	v0,0x0
			5e0: R_MIPS_HI16	printk
     5e4:	24420000 	addiu	v0,v0,0
			5e4: R_MIPS_LO16	printk
     5e8:	0040f809 	jalr	v0
     5ec:	00000000 	nop
     5f0:	08000143 	j	50c <HIFMaskInterrupt+0x20>
			5f0: R_MIPS_26	.text
     5f4:	8e080000 	lw	t0,0(s0)

000005f8 <HIFAckInterrupt>:
     5f8:	27bdffe8 	addiu	sp,sp,-24
     5fc:	afbf0010 	sw	ra,16(sp)
     600:	3c020000 	lui	v0,0x0
			600: R_MIPS_HI16	SDLIB_IssueConfig
     604:	8c840000 	lw	a0,0(a0)
     608:	24050017 	li	a1,23
     60c:	00003021 	move	a2,zero
     610:	24420000 	addiu	v0,v0,0
			610: R_MIPS_LO16	SDLIB_IssueConfig
     614:	0040f809 	jalr	v0
     618:	00003821 	move	a3,zero
     61c:	04400004 	bltz	v0,630 <HIFAckInterrupt+0x38>
     620:	3c020000 	lui	v0,0x0
			620: R_MIPS_HI16	debughif
     624:	8fbf0010 	lw	ra,16(sp)
     628:	03e00008 	jr	ra
     62c:	27bd0018 	addiu	sp,sp,24
     630:	8c430000 	lw	v1,0(v0)
			630: R_MIPS_LO16	debughif
     634:	3c040000 	lui	a0,0x0
			634: R_MIPS_HI16	$LC1
     638:	3c050000 	lui	a1,0x0
			638: R_MIPS_HI16	$LC2
     63c:	3c070000 	lui	a3,0x0
			63c: R_MIPS_HI16	$LC11
     640:	24840000 	addiu	a0,a0,0
			640: R_MIPS_LO16	$LC1
     644:	24a50000 	addiu	a1,a1,0
			644: R_MIPS_LO16	$LC2
     648:	24e70000 	addiu	a3,a3,0
			648: R_MIPS_LO16	$LC11
     64c:	1060fff5 	beqz	v1,624 <HIFAckInterrupt+0x2c>
     650:	240601a6 	li	a2,422
     654:	3c190000 	lui	t9,0x0
			654: R_MIPS_HI16	printk
     658:	8fbf0010 	lw	ra,16(sp)
     65c:	27390000 	addiu	t9,t9,0
			65c: R_MIPS_LO16	printk
     660:	03200008 	jr	t9
     664:	27bd0018 	addiu	sp,sp,24

00000668 <HIFUnMaskInterrupt>:
     668:	27bdffe8 	addiu	sp,sp,-24
     66c:	afb00010 	sw	s0,16(sp)
     670:	afbf0014 	sw	ra,20(sp)
     674:	10800028 	beqz	a0,718 <HIFUnMaskInterrupt+0xb0>
     678:	00808021 	move	s0,a0
     67c:	8e080000 	lw	t0,0(s0)
     680:	11000035 	beqz	t0,758 <HIFUnMaskInterrupt+0xf0>
     684:	3c020000 	lui	v0,0x0
			684: R_MIPS_HI16	debughif
     688:	3c020000 	lui	v0,0x0
			688: R_MIPS_HI16	SDLIB_IssueConfig
     68c:	01002021 	move	a0,t0
     690:	24050015 	li	a1,21
     694:	00003021 	move	a2,zero
     698:	24420000 	addiu	v0,v0,0
			698: R_MIPS_LO16	SDLIB_IssueConfig
     69c:	0040f809 	jalr	v0
     6a0:	00003821 	move	a3,zero
     6a4:	04400008 	bltz	v0,6c8 <HIFUnMaskInterrupt+0x60>
     6a8:	3c020000 	lui	v0,0x0
			6a8: R_MIPS_HI16	debughif
     6ac:	3c190000 	lui	t9,0x0
			6ac: R_MIPS_HI16	HIFAckInterrupt
     6b0:	02002021 	move	a0,s0
     6b4:	8fbf0014 	lw	ra,20(sp)
     6b8:	8fb00010 	lw	s0,16(sp)
     6bc:	27390000 	addiu	t9,t9,0
			6bc: R_MIPS_LO16	HIFAckInterrupt
     6c0:	03200008 	jr	t9
     6c4:	27bd0018 	addiu	sp,sp,24
     6c8:	8c430000 	lw	v1,0(v0)
			6c8: R_MIPS_LO16	debughif
     6cc:	3c040000 	lui	a0,0x0
			6cc: R_MIPS_HI16	$LC1
     6d0:	3c050000 	lui	a1,0x0
			6d0: R_MIPS_HI16	$LC2
     6d4:	3c070000 	lui	a3,0x0
			6d4: R_MIPS_HI16	$LC11
     6d8:	24840000 	addiu	a0,a0,0
			6d8: R_MIPS_LO16	$LC1
     6dc:	24a50000 	addiu	a1,a1,0
			6dc: R_MIPS_LO16	$LC2
     6e0:	24e70000 	addiu	a3,a3,0
			6e0: R_MIPS_LO16	$LC11
     6e4:	1060fff1 	beqz	v1,6ac <HIFUnMaskInterrupt+0x44>
     6e8:	240601b4 	li	a2,436
     6ec:	3c020000 	lui	v0,0x0
			6ec: R_MIPS_HI16	printk
     6f0:	24420000 	addiu	v0,v0,0
			6f0: R_MIPS_LO16	printk
     6f4:	0040f809 	jalr	v0
     6f8:	00000000 	nop
     6fc:	3c190000 	lui	t9,0x0
			6fc: R_MIPS_HI16	HIFAckInterrupt
     700:	02002021 	move	a0,s0
     704:	8fbf0014 	lw	ra,20(sp)
     708:	8fb00010 	lw	s0,16(sp)
     70c:	27390000 	addiu	t9,t9,0
			70c: R_MIPS_LO16	HIFAckInterrupt
     710:	03200008 	jr	t9
     714:	27bd0018 	addiu	sp,sp,24
     718:	3c020000 	lui	v0,0x0
			718: R_MIPS_HI16	debughif
     71c:	8c430000 	lw	v1,0(v0)
			71c: R_MIPS_LO16	debughif
     720:	3c040000 	lui	a0,0x0
			720: R_MIPS_HI16	$LC1
     724:	3c050000 	lui	a1,0x0
			724: R_MIPS_HI16	$LC2
     728:	3c070000 	lui	a3,0x0
			728: R_MIPS_HI16	$LC9
     72c:	24840000 	addiu	a0,a0,0
			72c: R_MIPS_LO16	$LC1
     730:	24a50000 	addiu	a1,a1,0
			730: R_MIPS_LO16	$LC2
     734:	24e70000 	addiu	a3,a3,0
			734: R_MIPS_LO16	$LC9
     738:	1060ffd0 	beqz	v1,67c <HIFUnMaskInterrupt+0x14>
     73c:	240601ae 	li	a2,430
     740:	3c020000 	lui	v0,0x0
			740: R_MIPS_HI16	printk
     744:	24420000 	addiu	v0,v0,0
			744: R_MIPS_LO16	printk
     748:	0040f809 	jalr	v0
     74c:	00000000 	nop
     750:	080001a0 	j	680 <HIFUnMaskInterrupt+0x18>
			750: R_MIPS_26	.text
     754:	8e080000 	lw	t0,0(s0)
     758:	8c430000 	lw	v1,0(v0)
			758: R_MIPS_LO16	debughif
     75c:	3c040000 	lui	a0,0x0
			75c: R_MIPS_HI16	$LC1
     760:	3c050000 	lui	a1,0x0
			760: R_MIPS_HI16	$LC2
     764:	3c070000 	lui	a3,0x0
			764: R_MIPS_HI16	$LC10
     768:	24840000 	addiu	a0,a0,0
			768: R_MIPS_LO16	$LC1
     76c:	24a50000 	addiu	a1,a1,0
			76c: R_MIPS_LO16	$LC2
     770:	24e70000 	addiu	a3,a3,0
			770: R_MIPS_LO16	$LC10
     774:	1060ffc4 	beqz	v1,688 <HIFUnMaskInterrupt+0x20>
     778:	240601af 	li	a2,431
     77c:	3c020000 	lui	v0,0x0
			77c: R_MIPS_HI16	printk
     780:	24420000 	addiu	v0,v0,0
			780: R_MIPS_LO16	printk
     784:	0040f809 	jalr	v0
     788:	00000000 	nop
     78c:	080001a2 	j	688 <HIFUnMaskInterrupt+0x20>
			78c: R_MIPS_26	.text
     790:	8e080000 	lw	t0,0(s0)

00000794 <hifFreeBusRequest>:
     794:	27bdffe0 	addiu	sp,sp,-32
     798:	afb10014 	sw	s1,20(sp)
     79c:	afb00010 	sw	s0,16(sp)
     7a0:	afbf0018 	sw	ra,24(sp)
     7a4:	00a08021 	move	s0,a1
     7a8:	10a00026 	beqz	a1,844 <hifFreeBusRequest+0xb0>
     7ac:	00808821 	move	s1,a0
     7b0:	3c020000 	lui	v0,0x0
			7b0: R_MIPS_HI16	local_bh_disable
     7b4:	24420000 	addiu	v0,v0,0
			7b4: R_MIPS_LO16	local_bh_disable
     7b8:	0040f809 	jalr	v0
     7bc:	00000000 	nop
     7c0:	8f820014 	lw	v0,20(gp)
     7c4:	24420001 	addiu	v0,v0,1
     7c8:	af820014 	sw	v0,20(gp)
     7cc:	40026000 	mfc0	v0,c0_status
     7d0:	3c040000 	lui	a0,0x0
			7d0: R_MIPS_HI16	$LC13
     7d4:	30420001 	andi	v0,v0,0x1
     7d8:	1440000d 	bnez	v0,810 <hifFreeBusRequest+0x7c>
     7dc:	24840000 	addiu	a0,a0,0
			7dc: R_MIPS_LO16	$LC13
     7e0:	3c020000 	lui	v0,0x0
			7e0: R_MIPS_HI16	printk
     7e4:	24420000 	addiu	v0,v0,0
			7e4: R_MIPS_LO16	printk
     7e8:	0040f809 	jalr	v0
     7ec:	00000000 	nop
     7f0:	40016000 	mfc0	at,c0_status
     7f4:	3421001f 	ori	at,at,0x1f
     7f8:	3821001e 	xori	at,at,0x1e
     7fc:	40816000 	mtc0	at,c0_status
     800:	00000040 	ssnop
     804:	00000040 	ssnop
     808:	00000040 	ssnop
     80c:	000000c0 	sll	zero,zero,0x3
     810:	8e220008 	lw	v0,8(s1)
     814:	ae020000 	sw	v0,0(s0)
     818:	ae300008 	sw	s0,8(s1)
     81c:	8f820014 	lw	v0,20(gp)
     820:	3c190000 	lui	t9,0x0
			820: R_MIPS_HI16	local_bh_enable
     824:	2442ffff 	addiu	v0,v0,-1
     828:	af820014 	sw	v0,20(gp)
     82c:	8fbf0018 	lw	ra,24(sp)
     830:	8fb10014 	lw	s1,20(sp)
     834:	8fb00010 	lw	s0,16(sp)
     838:	27390000 	addiu	t9,t9,0
			838: R_MIPS_LO16	local_bh_enable
     83c:	03200008 	jr	t9
     840:	27bd0020 	addiu	sp,sp,32
     844:	3c020000 	lui	v0,0x0
			844: R_MIPS_HI16	debughif
     848:	8c430000 	lw	v1,0(v0)
			848: R_MIPS_LO16	debughif
     84c:	3c040000 	lui	a0,0x0
			84c: R_MIPS_HI16	$LC1
     850:	3c050000 	lui	a1,0x0
			850: R_MIPS_HI16	$LC2
     854:	3c070000 	lui	a3,0x0
			854: R_MIPS_HI16	$LC12
     858:	24840000 	addiu	a0,a0,0
			858: R_MIPS_LO16	$LC1
     85c:	24a50000 	addiu	a1,a1,0
			85c: R_MIPS_LO16	$LC2
     860:	24e70000 	addiu	a3,a3,0
			860: R_MIPS_LO16	$LC12
     864:	1060ffd2 	beqz	v1,7b0 <hifFreeBusRequest+0x1c>
     868:	24060304 	li	a2,772
     86c:	3c020000 	lui	v0,0x0
			86c: R_MIPS_HI16	printk
     870:	24420000 	addiu	v0,v0,0
			870: R_MIPS_LO16	printk
     874:	0040f809 	jalr	v0
     878:	00000000 	nop
     87c:	080001ed 	j	7b4 <hifFreeBusRequest+0x20>
			87c: R_MIPS_26	.text
     880:	3c020000 	lui	v0,0x0
			880: R_MIPS_HI16	local_bh_disable

00000884 <hifRWCompletionHandler>:
     884:	27bdffe0 	addiu	sp,sp,-32
     888:	afb20018 	sw	s2,24(sp)
     88c:	afb00010 	sw	s0,16(sp)
     890:	afbf001c 	sw	ra,28(sp)
     894:	afb10014 	sw	s1,20(sp)
     898:	8c91003c 	lw	s1,60(a0)
     89c:	00808021 	move	s0,a0
     8a0:	8e220004 	lw	v0,4(s1)
     8a4:	1082000b 	beq	a0,v0,8d4 <hifRWCompletionHandler+0x50>
     8a8:	2412ffff 	li	s2,-1
     8ac:	3c020000 	lui	v0,0x0
			8ac: R_MIPS_HI16	debughif
     8b0:	8c430000 	lw	v1,0(v0)
			8b0: R_MIPS_LO16	debughif
     8b4:	3c070000 	lui	a3,0x0
			8b4: R_MIPS_HI16	$LC14
     8b8:	3c040000 	lui	a0,0x0
			8b8: R_MIPS_HI16	$LC1
     8bc:	3c050000 	lui	a1,0x0
			8bc: R_MIPS_HI16	$LC2
     8c0:	24e70000 	addiu	a3,a3,0
			8c0: R_MIPS_LO16	$LC14
     8c4:	24840000 	addiu	a0,a0,0
			8c4: R_MIPS_LO16	$LC1
     8c8:	24a50000 	addiu	a1,a1,0
			8c8: R_MIPS_LO16	$LC2
     8cc:	1460001f 	bnez	v1,94c <hifRWCompletionHandler+0xc8>
     8d0:	24060204 	li	a2,516
     8d4:	8e020040 	lw	v0,64(s0)
     8d8:	8e300008 	lw	s0,8(s1)
     8dc:	3c030000 	lui	v1,0x0
			8dc: R_MIPS_HI16	hifFreeBusRequest
     8e0:	02202821 	move	a1,s1
     8e4:	28420000 	slti	v0,v0,0
     8e8:	02002021 	move	a0,s0
     8ec:	24630000 	addiu	v1,v1,0
			8ec: R_MIPS_LO16	hifFreeBusRequest
     8f0:	0002900a 	movz	s2,zero,v0
     8f4:	0060f809 	jalr	v1
     8f8:	8e31000c 	lw	s1,12(s1)
     8fc:	8e02028c 	lw	v0,652(s0)
     900:	02202021 	move	a0,s1
     904:	10400009 	beqz	v0,92c <hifRWCompletionHandler+0xa8>
     908:	02402821 	move	a1,s2
     90c:	8e190298 	lw	t9,664(s0)
     910:	8fbf001c 	lw	ra,28(sp)
     914:	8fb20018 	lw	s2,24(sp)
     918:	8fb10014 	lw	s1,20(sp)
     91c:	8fb00010 	lw	s0,16(sp)
     920:	2405ffff 	li	a1,-1
     924:	03200008 	jr	t9
     928:	27bd0020 	addiu	sp,sp,32
     92c:	8e190298 	lw	t9,664(s0)
     930:	02202021 	move	a0,s1
     934:	8fbf001c 	lw	ra,28(sp)
     938:	8fb20018 	lw	s2,24(sp)
     93c:	8fb10014 	lw	s1,20(sp)
     940:	8fb00010 	lw	s0,16(sp)
     944:	03200008 	jr	t9
     948:	27bd0020 	addiu	sp,sp,32
     94c:	3c020000 	lui	v0,0x0
			94c: R_MIPS_HI16	printk
     950:	24420000 	addiu	v0,v0,0
			950: R_MIPS_LO16	printk
     954:	0040f809 	jalr	v0
     958:	00000000 	nop
     95c:	08000236 	j	8d8 <hifRWCompletionHandler+0x54>
			95c: R_MIPS_26	.text
     960:	8e020040 	lw	v0,64(s0)

00000964 <hifAllocateBusRequest>:
     964:	27bdffe0 	addiu	sp,sp,-32
     968:	3c020000 	lui	v0,0x0
			968: R_MIPS_HI16	local_bh_disable
     96c:	afb10014 	sw	s1,20(sp)
     970:	afbf0018 	sw	ra,24(sp)
     974:	afb00010 	sw	s0,16(sp)
     978:	24420000 	addiu	v0,v0,0
			978: R_MIPS_LO16	local_bh_disable
     97c:	0040f809 	jalr	v0
     980:	00808821 	move	s1,a0
     984:	8f820014 	lw	v0,20(gp)
     988:	24420001 	addiu	v0,v0,1
     98c:	af820014 	sw	v0,20(gp)
     990:	40026000 	mfc0	v0,c0_status
     994:	3c040000 	lui	a0,0x0
			994: R_MIPS_HI16	$LC13
     998:	30420001 	andi	v0,v0,0x1
     99c:	10400013 	beqz	v0,9ec <hifAllocateBusRequest+0x88>
     9a0:	24840000 	addiu	a0,a0,0
			9a0: R_MIPS_LO16	$LC13
     9a4:	8e300008 	lw	s0,8(s1)
     9a8:	12000004 	beqz	s0,9bc <hifAllocateBusRequest+0x58>
     9ac:	00000000 	nop
     9b0:	8e020000 	lw	v0,0(s0)
     9b4:	ae220008 	sw	v0,8(s1)
     9b8:	ae000000 	sw	zero,0(s0)
     9bc:	8f830014 	lw	v1,20(gp)
     9c0:	3c040000 	lui	a0,0x0
			9c0: R_MIPS_HI16	local_bh_enable
     9c4:	2463ffff 	addiu	v1,v1,-1
     9c8:	24840000 	addiu	a0,a0,0
			9c8: R_MIPS_LO16	local_bh_enable
     9cc:	0080f809 	jalr	a0
     9d0:	af830014 	sw	v1,20(gp)
     9d4:	02001021 	move	v0,s0
     9d8:	8fbf0018 	lw	ra,24(sp)
     9dc:	8fb10014 	lw	s1,20(sp)
     9e0:	8fb00010 	lw	s0,16(sp)
     9e4:	03e00008 	jr	ra
     9e8:	27bd0020 	addiu	sp,sp,32
     9ec:	3c020000 	lui	v0,0x0
			9ec: R_MIPS_HI16	printk
     9f0:	24420000 	addiu	v0,v0,0
			9f0: R_MIPS_LO16	printk
     9f4:	0040f809 	jalr	v0
     9f8:	00000000 	nop
     9fc:	40016000 	mfc0	at,c0_status
     a00:	3421001f 	ori	at,at,0x1f
     a04:	3821001e 	xori	at,at,0x1e
     a08:	40816000 	mtc0	at,c0_status
     a0c:	00000040 	ssnop
     a10:	00000040 	ssnop
     a14:	00000040 	ssnop
     a18:	000000c0 	sll	zero,zero,0x3
     a1c:	0800026a 	j	9a8 <hifAllocateBusRequest+0x44>
			a1c: R_MIPS_26	.text
     a20:	8e300008 	lw	s0,8(s1)

00000a24 <HIFReadWrite>:
     a24:	27bdffc8 	addiu	sp,sp,-56
     a28:	afbe0030 	sw	s8,48(sp)
     a2c:	afb50024 	sw	s5,36(sp)
     a30:	afb3001c 	sw	s3,28(sp)
     a34:	afb20018 	sw	s2,24(sp)
     a38:	afb10014 	sw	s1,20(sp)
     a3c:	afbf0034 	sw	ra,52(sp)
     a40:	afb7002c 	sw	s7,44(sp)
     a44:	afb60028 	sw	s6,40(sp)
     a48:	afb40020 	sw	s4,32(sp)
     a4c:	afb00010 	sw	s0,16(sp)
     a50:	8c82028c 	lw	v0,652(a0)
     a54:	00809821 	move	s3,a0
     a58:	00a08821 	move	s1,a1
     a5c:	00c0f021 	move	s8,a2
     a60:	00e0a821 	move	s5,a3
     a64:	1440011d 	bnez	v0,edc <HIFReadWrite+0x4b8>
     a68:	8fb20048 	lw	s2,72(sp)
     a6c:	8c820000 	lw	v0,0(a0)
     a70:	104000d2 	beqz	v0,dbc <HIFReadWrite+0x398>
     a74:	3c160000 	lui	s6,0x0
			a74: R_MIPS_HI16	debughif
     a78:	8ec20000 	lw	v0,0(s6)
			a78: R_MIPS_LO16	debughif
     a7c:	2c420003 	sltiu	v0,v0,3
     a80:	10400087 	beqz	v0,ca0 <HIFReadWrite+0x27c>
     a84:	3c040000 	lui	a0,0x0
			a84: R_MIPS_HI16	$LC0
     a88:	96620290 	lhu	v0,656(s3)
     a8c:	0055102b 	sltu	v0,v0,s5
     a90:	1440011b 	bnez	v0,f00 <HIFReadWrite+0x4dc>
     a94:	32420100 	andi	v0,s2,0x100
     a98:	10400050 	beqz	v0,bdc <HIFReadWrite+0x1b8>
     a9c:	32420200 	andi	v0,s2,0x200
     aa0:	8ec20000 	lw	v0,0(s6)
			aa0: R_MIPS_LO16	debughif
     aa4:	2c420003 	sltiu	v0,v0,3
     aa8:	104000d2 	beqz	v0,df4 <HIFReadWrite+0x3d0>
     aac:	3c040000 	lui	a0,0x0
			aac: R_MIPS_HI16	$LC16
     ab0:	2622f800 	addiu	v0,s1,-2048
     ab4:	2c422000 	sltiu	v0,v0,8192
     ab8:	10400007 	beqz	v0,ad8 <HIFReadWrite+0xb4>
     abc:	3c020000 	lui	v0,0x0
			abc: R_MIPS_HI16	hifAllocateBusRequest
     ac0:	2ea20801 	sltiu	v0,s5,2049
     ac4:	1040008f 	beqz	v0,d04 <HIFReadWrite+0x2e0>
     ac8:	3c030000 	lui	v1,0x0
			ac8: R_MIPS_HI16	debuglevel
     acc:	02351023 	subu	v0,s1,s5
     ad0:	24510800 	addiu	s1,v0,2048
     ad4:	3c020000 	lui	v0,0x0
			ad4: R_MIPS_HI16	hifAllocateBusRequest
     ad8:	24420000 	addiu	v0,v0,0
			ad8: R_MIPS_LO16	hifAllocateBusRequest
     adc:	0040f809 	jalr	v0
     ae0:	02602021 	move	a0,s3
     ae4:	104000c9 	beqz	v0,e0c <HIFReadWrite+0x3e8>
     ae8:	0040a021 	move	s4,v0
     aec:	8c500004 	lw	s0,4(v0)
     af0:	32570010 	andi	s7,s2,0x10
     af4:	12e00058 	beqz	s7,c58 <HIFReadWrite+0x234>
     af8:	ae1e002c 	sw	s8,44(s0)
     afc:	8ec20000 	lw	v0,0(s6)
			afc: R_MIPS_LO16	debughif
     b00:	2c420003 	sltiu	v0,v0,3
     b04:	104000a0 	beqz	v0,d88 <HIFReadWrite+0x364>
     b08:	3c020000 	lui	v0,0x0
			b08: R_MIPS_HI16	printk
     b0c:	3c020002 	lui	v0,0x2
     b10:	ae020008 	sw	v0,8(s0)
     b14:	ae00003c 	sw	zero,60(s0)
     b18:	ae000038 	sw	zero,56(s0)
     b1c:	32420002 	andi	v0,s2,0x2
     b20:	10400039 	beqz	v0,c08 <HIFReadWrite+0x1e4>
     b24:	32420001 	andi	v0,s2,0x1
     b28:	8ec20000 	lw	v0,0(s6)
			b28: R_MIPS_LO16	debughif
     b2c:	2c420003 	sltiu	v0,v0,3
     b30:	1040008f 	beqz	v0,d70 <HIFReadWrite+0x34c>
     b34:	3c020000 	lui	v0,0x0
			b34: R_MIPS_HI16	printk
     b38:	2622f800 	addiu	v0,s1,-2048
     b3c:	2c422000 	sltiu	v0,v0,8192
     b40:	10400083 	beqz	v0,d50 <HIFReadWrite+0x32c>
     b44:	32450200 	andi	a1,s2,0x200
     b48:	3c030000 	lui	v1,0x0
			b48: R_MIPS_HI16	debughif
     b4c:	8c620000 	lw	v0,0(v1)
			b4c: R_MIPS_LO16	debughif
     b50:	2c420003 	sltiu	v0,v0,3
     b54:	104000d5 	beqz	v0,eac <HIFReadWrite+0x488>
     b58:	3c040000 	lui	a0,0x0
			b58: R_MIPS_HI16	$LC25
     b5c:	32237fff 	andi	v1,s1,0x7fff
     b60:	24020004 	li	v0,4
     b64:	a6020010 	sh	v0,16(s0)
     b68:	a6030018 	sh	v1,24(s0)
     b6c:	a615001a 	sh	s5,26(s0)
     b70:	8e640000 	lw	a0,0(s3)
     b74:	8c820010 	lw	v0,16(a0)
     b78:	0040f809 	jalr	v0
     b7c:	02002821 	move	a1,s0
     b80:	044000ab 	bltz	v0,e30 <HIFReadWrite+0x40c>
     b84:	00402821 	move	a1,v0
     b88:	00008021 	move	s0,zero
     b8c:	12e00051 	beqz	s7,cd4 <HIFReadWrite+0x2b0>
     b90:	02001021 	move	v0,s0
     b94:	3c020000 	lui	v0,0x0
			b94: R_MIPS_HI16	hifFreeBusRequest
     b98:	02602021 	move	a0,s3
     b9c:	24420000 	addiu	v0,v0,0
			b9c: R_MIPS_LO16	hifFreeBusRequest
     ba0:	0040f809 	jalr	v0
     ba4:	02802821 	move	a1,s4
     ba8:	02001021 	move	v0,s0
     bac:	8fbf0034 	lw	ra,52(sp)
     bb0:	8fbe0030 	lw	s8,48(sp)
     bb4:	8fb7002c 	lw	s7,44(sp)
     bb8:	8fb60028 	lw	s6,40(sp)
     bbc:	8fb50024 	lw	s5,36(sp)
     bc0:	8fb40020 	lw	s4,32(sp)
     bc4:	8fb3001c 	lw	s3,28(sp)
     bc8:	8fb20018 	lw	s2,24(sp)
     bcc:	8fb10014 	lw	s1,20(sp)
     bd0:	8fb00010 	lw	s0,16(sp)
     bd4:	03e00008 	jr	ra
     bd8:	27bd0038 	addiu	sp,sp,56
     bdc:	10400039 	beqz	v0,cc4 <HIFReadWrite+0x2a0>
     be0:	8ec20000 	lw	v0,0(s6)
			be0: R_MIPS_LO16	debughif
     be4:	2c420003 	sltiu	v0,v0,3
     be8:	1440ffb1 	bnez	v0,ab0 <HIFReadWrite+0x8c>
     bec:	3c040000 	lui	a0,0x0
			bec: R_MIPS_HI16	$LC17
     bf0:	3c020000 	lui	v0,0x0
			bf0: R_MIPS_HI16	printk
     bf4:	24420000 	addiu	v0,v0,0
			bf4: R_MIPS_LO16	printk
     bf8:	0040f809 	jalr	v0
     bfc:	24840000 	addiu	a0,a0,0
			bfc: R_MIPS_LO16	$LC17
     c00:	080002ad 	j	ab4 <HIFReadWrite+0x90>
			c00: R_MIPS_26	.text
     c04:	2622f800 	addiu	v0,s1,-2048
     c08:	1040004d 	beqz	v0,d40 <HIFReadWrite+0x31c>
     c0c:	8ec20000 	lw	v0,0(s6)
			c0c: R_MIPS_LO16	debughif
     c10:	2c420003 	sltiu	v0,v0,3
     c14:	1040009f 	beqz	v0,e94 <HIFReadWrite+0x470>
     c18:	3c040000 	lui	a0,0x0
			c18: R_MIPS_HI16	$LC26
     c1c:	2622f800 	addiu	v0,s1,-2048
     c20:	2c422000 	sltiu	v0,v0,8192
     c24:	1040008b 	beqz	v0,e54 <HIFReadWrite+0x430>
     c28:	32450200 	andi	a1,s2,0x200
     c2c:	3c030000 	lui	v1,0x0
			c2c: R_MIPS_HI16	debughif
     c30:	8c620000 	lw	v0,0(v1)
			c30: R_MIPS_LO16	debughif
     c34:	2c420003 	sltiu	v0,v0,3
     c38:	10400090 	beqz	v0,e7c <HIFReadWrite+0x458>
     c3c:	3c040000 	lui	a0,0x0
			c3c: R_MIPS_HI16	$LC27
     c40:	32237fff 	andi	v1,s1,0x7fff
     c44:	24020084 	li	v0,132
     c48:	a6020010 	sh	v0,16(s0)
     c4c:	a6030018 	sh	v1,24(s0)
     c50:	080002dc 	j	b70 <HIFReadWrite+0x14c>
			c50: R_MIPS_26	.text
     c54:	a615001a 	sh	s5,26(s0)
     c58:	32420020 	andi	v0,s2,0x20
     c5c:	1040ffb0 	beqz	v0,b20 <HIFReadWrite+0xfc>
     c60:	32420002 	andi	v0,s2,0x2
     c64:	8ec20000 	lw	v0,0(s6)
			c64: R_MIPS_LO16	debughif
     c68:	2c420003 	sltiu	v0,v0,3
     c6c:	10400095 	beqz	v0,ec4 <HIFReadWrite+0x4a0>
     c70:	3c020000 	lui	v0,0x0
			c70: R_MIPS_HI16	printk
     c74:	8fa2004c 	lw	v0,76(sp)
     c78:	3c030000 	lui	v1,0x0
			c78: R_MIPS_HI16	hifRWCompletionHandler
     c7c:	ae82000c 	sw	v0,12(s4)
     c80:	3c020002 	lui	v0,0x2
     c84:	34421000 	ori	v0,v0,0x1000
     c88:	24630000 	addiu	v1,v1,0
			c88: R_MIPS_LO16	hifRWCompletionHandler
     c8c:	ae930008 	sw	s3,8(s4)
     c90:	ae020008 	sw	v0,8(s0)
     c94:	ae030038 	sw	v1,56(s0)
     c98:	080002c7 	j	b1c <HIFReadWrite+0xf8>
			c98: R_MIPS_26	.text
     c9c:	ae14003c 	sw	s4,60(s0)
     ca0:	3c050000 	lui	a1,0x0
			ca0: R_MIPS_HI16	.rodata
     ca4:	3c020000 	lui	v0,0x0
			ca4: R_MIPS_HI16	printk
     ca8:	24840000 	addiu	a0,a0,0
			ca8: R_MIPS_LO16	$LC0
     cac:	24a5003c 	addiu	a1,a1,60
			cac: R_MIPS_LO16	.rodata
     cb0:	24420000 	addiu	v0,v0,0
			cb0: R_MIPS_LO16	printk
     cb4:	0040f809 	jalr	v0
     cb8:	02603021 	move	a2,s3
     cbc:	080002a3 	j	a8c <HIFReadWrite+0x68>
			cbc: R_MIPS_26	.text
     cc0:	96620290 	lhu	v0,656(s3)
     cc4:	14400036 	bnez	v0,da0 <HIFReadWrite+0x37c>
     cc8:	3c040000 	lui	a0,0x0
			cc8: R_MIPS_HI16	$LC18
     ccc:	2410ffff 	li	s0,-1
     cd0:	02001021 	move	v0,s0
     cd4:	8fbf0034 	lw	ra,52(sp)
     cd8:	8fbe0030 	lw	s8,48(sp)
     cdc:	8fb7002c 	lw	s7,44(sp)
     ce0:	8fb60028 	lw	s6,40(sp)
     ce4:	8fb50024 	lw	s5,36(sp)
     ce8:	8fb40020 	lw	s4,32(sp)
     cec:	8fb3001c 	lw	s3,28(sp)
     cf0:	8fb20018 	lw	s2,24(sp)
     cf4:	8fb10014 	lw	s1,20(sp)
     cf8:	8fb00010 	lw	s0,16(sp)
     cfc:	03e00008 	jr	ra
     d00:	27bd0038 	addiu	sp,sp,56
     d04:	8c620000 	lw	v0,0(v1)
			d04: R_MIPS_LO16	debuglevel
     d08:	28420003 	slti	v0,v0,3
     d0c:	1440ff6f 	bnez	v0,acc <HIFReadWrite+0xa8>
     d10:	3c040000 	lui	a0,0x0
			d10: R_MIPS_HI16	$LC19
     d14:	3c050000 	lui	a1,0x0
			d14: R_MIPS_HI16	$LC2
     d18:	3c070000 	lui	a3,0x0
			d18: R_MIPS_HI16	$LC20
     d1c:	3c020000 	lui	v0,0x0
			d1c: R_MIPS_HI16	printk
     d20:	24840000 	addiu	a0,a0,0
			d20: R_MIPS_LO16	$LC19
     d24:	24a50000 	addiu	a1,a1,0
			d24: R_MIPS_LO16	$LC2
     d28:	24e70000 	addiu	a3,a3,0
			d28: R_MIPS_LO16	$LC20
     d2c:	24420000 	addiu	v0,v0,0
			d2c: R_MIPS_LO16	printk
     d30:	0040f809 	jalr	v0
     d34:	2406012e 	li	a2,302
     d38:	080002b4 	j	ad0 <HIFReadWrite+0xac>
			d38: R_MIPS_26	.text
     d3c:	02351023 	subu	v0,s1,s5
     d40:	14400047 	bnez	v0,e60 <HIFReadWrite+0x43c>
     d44:	3c040000 	lui	a0,0x0
			d44: R_MIPS_HI16	$LC28
     d48:	080002e3 	j	b8c <HIFReadWrite+0x168>
			d48: R_MIPS_26	.text
     d4c:	2410ffff 	li	s0,-1
     d50:	24020010 	li	v0,16
     d54:	24030030 	li	v1,48
     d58:	0065100a 	movz	v0,v1,a1
     d5c:	32247fff 	andi	a0,s1,0x7fff
     d60:	a6020010 	sh	v0,16(s0)
     d64:	a6040018 	sh	a0,24(s0)
     d68:	080002dc 	j	b70 <HIFReadWrite+0x14c>
			d68: R_MIPS_26	.text
     d6c:	a615001a 	sh	s5,26(s0)
     d70:	3c040000 	lui	a0,0x0
			d70: R_MIPS_HI16	$LC24
     d74:	24420000 	addiu	v0,v0,0
			d74: R_MIPS_LO16	printk
     d78:	0040f809 	jalr	v0
     d7c:	24840000 	addiu	a0,a0,0
			d7c: R_MIPS_LO16	$LC24
     d80:	080002cf 	j	b3c <HIFReadWrite+0x118>
			d80: R_MIPS_26	.text
     d84:	2622f800 	addiu	v0,s1,-2048
     d88:	3c040000 	lui	a0,0x0
			d88: R_MIPS_HI16	$LC22
     d8c:	24420000 	addiu	v0,v0,0
			d8c: R_MIPS_LO16	printk
     d90:	0040f809 	jalr	v0
     d94:	24840000 	addiu	a0,a0,0
			d94: R_MIPS_LO16	$LC22
     d98:	080002c4 	j	b10 <HIFReadWrite+0xec>
			d98: R_MIPS_26	.text
     d9c:	3c020002 	lui	v0,0x2
     da0:	3c020000 	lui	v0,0x0
			da0: R_MIPS_HI16	printk
     da4:	24840000 	addiu	a0,a0,0
			da4: R_MIPS_LO16	$LC18
     da8:	24420000 	addiu	v0,v0,0
			da8: R_MIPS_LO16	printk
     dac:	0040f809 	jalr	v0
     db0:	02402821 	move	a1,s2
     db4:	08000334 	j	cd0 <HIFReadWrite+0x2ac>
			db4: R_MIPS_26	.text
     db8:	2410ffff 	li	s0,-1
     dbc:	8ec20000 	lw	v0,0(s6)
			dbc: R_MIPS_LO16	debughif
     dc0:	1040ff31 	beqz	v0,a88 <HIFReadWrite+0x64>
     dc4:	3c040000 	lui	a0,0x0
			dc4: R_MIPS_HI16	$LC1
     dc8:	3c050000 	lui	a1,0x0
			dc8: R_MIPS_HI16	$LC2
     dcc:	3c070000 	lui	a3,0x0
			dcc: R_MIPS_HI16	$LC10
     dd0:	3c020000 	lui	v0,0x0
			dd0: R_MIPS_HI16	printk
     dd4:	24840000 	addiu	a0,a0,0
			dd4: R_MIPS_LO16	$LC1
     dd8:	24a50000 	addiu	a1,a1,0
			dd8: R_MIPS_LO16	$LC2
     ddc:	24e70000 	addiu	a3,a3,0
			ddc: R_MIPS_LO16	$LC10
     de0:	24420000 	addiu	v0,v0,0
			de0: R_MIPS_LO16	printk
     de4:	0040f809 	jalr	v0
     de8:	24060108 	li	a2,264
     dec:	0800029f 	j	a7c <HIFReadWrite+0x58>
			dec: R_MIPS_26	.text
     df0:	8ec20000 	lw	v0,0(s6)
			df0: R_MIPS_LO16	debughif
     df4:	3c020000 	lui	v0,0x0
			df4: R_MIPS_HI16	printk
     df8:	24420000 	addiu	v0,v0,0
			df8: R_MIPS_LO16	printk
     dfc:	0040f809 	jalr	v0
     e00:	24840000 	addiu	a0,a0,0
			e00: R_MIPS_LO16	$LC16
     e04:	080002ad 	j	ab4 <HIFReadWrite+0x90>
			e04: R_MIPS_26	.text
     e08:	2622f800 	addiu	v0,s1,-2048
     e0c:	8ec20000 	lw	v0,0(s6)
			e0c: R_MIPS_LO16	debughif
     e10:	1040ffae 	beqz	v0,ccc <HIFReadWrite+0x2a8>
     e14:	3c040000 	lui	a0,0x0
			e14: R_MIPS_HI16	$LC21
     e18:	3c020000 	lui	v0,0x0
			e18: R_MIPS_HI16	printk
     e1c:	24420000 	addiu	v0,v0,0
			e1c: R_MIPS_LO16	printk
     e20:	0040f809 	jalr	v0
     e24:	24840000 	addiu	a0,a0,0
			e24: R_MIPS_LO16	$LC21
     e28:	08000334 	j	cd0 <HIFReadWrite+0x2ac>
			e28: R_MIPS_26	.text
     e2c:	2410ffff 	li	s0,-1
     e30:	8ec20000 	lw	v0,0(s6)
			e30: R_MIPS_LO16	debughif
     e34:	1040ffc4 	beqz	v0,d48 <HIFReadWrite+0x324>
     e38:	3c040000 	lui	a0,0x0
			e38: R_MIPS_HI16	$LC29
     e3c:	3c020000 	lui	v0,0x0
			e3c: R_MIPS_HI16	printk
     e40:	24420000 	addiu	v0,v0,0
			e40: R_MIPS_LO16	printk
     e44:	0040f809 	jalr	v0
     e48:	24840000 	addiu	a0,a0,0
			e48: R_MIPS_LO16	$LC29
     e4c:	080002e3 	j	b8c <HIFReadWrite+0x168>
			e4c: R_MIPS_26	.text
     e50:	2410ffff 	li	s0,-1
     e54:	24020090 	li	v0,144
     e58:	08000356 	j	d58 <HIFReadWrite+0x334>
			e58: R_MIPS_26	.text
     e5c:	240300b0 	li	v1,176
     e60:	3c020000 	lui	v0,0x0
			e60: R_MIPS_HI16	printk
     e64:	24840000 	addiu	a0,a0,0
			e64: R_MIPS_LO16	$LC28
     e68:	24420000 	addiu	v0,v0,0
			e68: R_MIPS_LO16	printk
     e6c:	0040f809 	jalr	v0
     e70:	02402821 	move	a1,s2
     e74:	080002e3 	j	b8c <HIFReadWrite+0x168>
			e74: R_MIPS_26	.text
     e78:	2410ffff 	li	s0,-1
     e7c:	3c020000 	lui	v0,0x0
			e7c: R_MIPS_HI16	printk
     e80:	24420000 	addiu	v0,v0,0
			e80: R_MIPS_LO16	printk
     e84:	0040f809 	jalr	v0
     e88:	24840000 	addiu	a0,a0,0
			e88: R_MIPS_LO16	$LC27
     e8c:	08000311 	j	c44 <HIFReadWrite+0x220>
			e8c: R_MIPS_26	.text
     e90:	32237fff 	andi	v1,s1,0x7fff
     e94:	3c020000 	lui	v0,0x0
			e94: R_MIPS_HI16	printk
     e98:	24420000 	addiu	v0,v0,0
			e98: R_MIPS_LO16	printk
     e9c:	0040f809 	jalr	v0
     ea0:	24840000 	addiu	a0,a0,0
			ea0: R_MIPS_LO16	$LC26
     ea4:	08000308 	j	c20 <HIFReadWrite+0x1fc>
			ea4: R_MIPS_26	.text
     ea8:	2622f800 	addiu	v0,s1,-2048
     eac:	3c020000 	lui	v0,0x0
			eac: R_MIPS_HI16	printk
     eb0:	24420000 	addiu	v0,v0,0
			eb0: R_MIPS_LO16	printk
     eb4:	0040f809 	jalr	v0
     eb8:	24840000 	addiu	a0,a0,0
			eb8: R_MIPS_LO16	$LC25
     ebc:	080002d8 	j	b60 <HIFReadWrite+0x13c>
			ebc: R_MIPS_26	.text
     ec0:	32237fff 	andi	v1,s1,0x7fff
     ec4:	3c040000 	lui	a0,0x0
			ec4: R_MIPS_HI16	$LC23
     ec8:	24420000 	addiu	v0,v0,0
			ec8: R_MIPS_LO16	printk
     ecc:	0040f809 	jalr	v0
     ed0:	24840000 	addiu	a0,a0,0
			ed0: R_MIPS_LO16	$LC23
     ed4:	0800031e 	j	c78 <HIFReadWrite+0x254>
			ed4: R_MIPS_26	.text
     ed8:	8fa2004c 	lw	v0,76(sp)
     edc:	32420020 	andi	v0,s2,0x20
     ee0:	1040ff7a 	beqz	v0,ccc <HIFReadWrite+0x2a8>
     ee4:	00000000 	nop
     ee8:	8c820298 	lw	v0,664(a0)
     eec:	8fa4004c 	lw	a0,76(sp)
     ef0:	0040f809 	jalr	v0
     ef4:	2405ffff 	li	a1,-1
     ef8:	08000334 	j	cd0 <HIFReadWrite+0x2ac>
			ef8: R_MIPS_26	.text
     efc:	24100018 	li	s0,24
     f00:	8ec20000 	lw	v0,0(s6)
			f00: R_MIPS_LO16	debughif
     f04:	1040ff71 	beqz	v0,ccc <HIFReadWrite+0x2a8>
     f08:	3c040000 	lui	a0,0x0
			f08: R_MIPS_HI16	$LC15
     f0c:	3c020000 	lui	v0,0x0
			f0c: R_MIPS_HI16	printk
     f10:	24840000 	addiu	a0,a0,0
			f10: R_MIPS_LO16	$LC15
     f14:	24420000 	addiu	v0,v0,0
			f14: R_MIPS_LO16	printk
     f18:	0040f809 	jalr	v0
     f1c:	02a02821 	move	a1,s5
     f20:	08000334 	j	cd0 <HIFReadWrite+0x2ac>
			f20: R_MIPS_26	.text
     f24:	2410ffff 	li	s0,-1

00000f28 <SPIReadWriteInternal>:
     f28:	27bdffd0 	addiu	sp,sp,-48
     f2c:	3c020000 	lui	v0,0x0
			f2c: R_MIPS_HI16	hifAllocateBusRequest
     f30:	afb50024 	sw	s5,36(sp)
     f34:	afb40020 	sw	s4,32(sp)
     f38:	afb3001c 	sw	s3,28(sp)
     f3c:	afb20018 	sw	s2,24(sp)
     f40:	afb10014 	sw	s1,20(sp)
     f44:	afbf0028 	sw	ra,40(sp)
     f48:	afb00010 	sw	s0,16(sp)
     f4c:	24420000 	addiu	v0,v0,0
			f4c: R_MIPS_LO16	hifAllocateBusRequest
     f50:	00c0a821 	move	s5,a2
     f54:	30b1ffff 	andi	s1,a1,0xffff
     f58:	30f300ff 	andi	s3,a3,0xff
     f5c:	0040f809 	jalr	v0
     f60:	0080a021 	move	s4,a0
     f64:	10400042 	beqz	v0,1070 <SPIReadWriteInternal+0x148>
     f68:	00409021 	move	s2,v0
     f6c:	12600021 	beqz	s3,ff4 <SPIReadWriteInternal+0xcc>
     f70:	8c500004 	lw	s0,4(v0)
     f74:	24020080 	li	v0,128
     f78:	a6020010 	sh	v0,16(s0)
     f7c:	32237fff 	andi	v1,s1,0x7fff
     f80:	3c020002 	lui	v0,0x2
     f84:	a6030018 	sh	v1,24(s0)
     f88:	ae020008 	sw	v0,8(s0)
     f8c:	ae00003c 	sw	zero,60(s0)
     f90:	ae000038 	sw	zero,56(s0)
     f94:	8e840000 	lw	a0,0(s4)
     f98:	8c820010 	lw	v0,16(a0)
     f9c:	0040f809 	jalr	v0
     fa0:	02002821 	move	a1,s0
     fa4:	04400022 	bltz	v0,1030 <SPIReadWriteInternal+0x108>
     fa8:	00402821 	move	a1,v0
     fac:	16600026 	bnez	s3,1048 <SPIReadWriteInternal+0x120>
     fb0:	00000000 	nop
     fb4:	00008021 	move	s0,zero
     fb8:	3c020000 	lui	v0,0x0
			fb8: R_MIPS_HI16	hifFreeBusRequest
     fbc:	02802021 	move	a0,s4
     fc0:	24420000 	addiu	v0,v0,0
			fc0: R_MIPS_LO16	hifFreeBusRequest
     fc4:	0040f809 	jalr	v0
     fc8:	02402821 	move	a1,s2
     fcc:	02001021 	move	v0,s0
     fd0:	8fbf0028 	lw	ra,40(sp)
     fd4:	8fb50024 	lw	s5,36(sp)
     fd8:	8fb40020 	lw	s4,32(sp)
     fdc:	8fb3001c 	lw	s3,28(sp)
     fe0:	8fb20018 	lw	s2,24(sp)
     fe4:	8fb10014 	lw	s1,20(sp)
     fe8:	8fb00010 	lw	s0,16(sp)
     fec:	03e00008 	jr	ra
     ff0:	27bd0030 	addiu	sp,sp,48
     ff4:	32227fff 	andi	v0,s1,0x7fff
     ff8:	a6020018 	sh	v0,24(s0)
     ffc:	a6000010 	sh	zero,16(s0)
    1000:	96a20000 	lhu	v0,0(s5)
    1004:	ae00003c 	sw	zero,60(s0)
    1008:	ae020014 	sw	v0,20(s0)
    100c:	3c020002 	lui	v0,0x2
    1010:	ae020008 	sw	v0,8(s0)
    1014:	ae000038 	sw	zero,56(s0)
    1018:	8e840000 	lw	a0,0(s4)
    101c:	8c820010 	lw	v0,16(a0)
    1020:	0040f809 	jalr	v0
    1024:	02002821 	move	a1,s0
    1028:	0441ffe0 	bgez	v0,fac <SPIReadWriteInternal+0x84>
    102c:	00402821 	move	a1,v0
    1030:	3c020000 	lui	v0,0x0
			1030: R_MIPS_HI16	debughif
    1034:	8c430000 	lw	v1,0(v0)
			1034: R_MIPS_LO16	debughif
    1038:	14600007 	bnez	v1,1058 <SPIReadWriteInternal+0x130>
    103c:	3c040000 	lui	a0,0x0
			103c: R_MIPS_HI16	$LC30
    1040:	080003ee 	j	fb8 <SPIReadWriteInternal+0x90>
			1040: R_MIPS_26	.text
    1044:	2410ffff 	li	s0,-1
    1048:	8e02001c 	lw	v0,28(s0)
    104c:	00008021 	move	s0,zero
    1050:	080003ee 	j	fb8 <SPIReadWriteInternal+0x90>
			1050: R_MIPS_26	.text
    1054:	a6a20000 	sh	v0,0(s5)
    1058:	3c020000 	lui	v0,0x0
			1058: R_MIPS_HI16	printk
    105c:	24420000 	addiu	v0,v0,0
			105c: R_MIPS_LO16	printk
    1060:	0040f809 	jalr	v0
    1064:	24840000 	addiu	a0,a0,0
			1064: R_MIPS_LO16	$LC30
    1068:	080003ee 	j	fb8 <SPIReadWriteInternal+0x90>
			1068: R_MIPS_26	.text
    106c:	2410ffff 	li	s0,-1
    1070:	3c020000 	lui	v0,0x0
			1070: R_MIPS_HI16	debughif
    1074:	8c430000 	lw	v1,0(v0)
			1074: R_MIPS_LO16	debughif
    1078:	14600003 	bnez	v1,1088 <SPIReadWriteInternal+0x160>
    107c:	3c040000 	lui	a0,0x0
			107c: R_MIPS_HI16	$LC21
    1080:	080003f3 	j	fcc <SPIReadWriteInternal+0xa4>
			1080: R_MIPS_26	.text
    1084:	2410ffff 	li	s0,-1
    1088:	3c020000 	lui	v0,0x0
			1088: R_MIPS_HI16	printk
    108c:	24420000 	addiu	v0,v0,0
			108c: R_MIPS_LO16	printk
    1090:	0040f809 	jalr	v0
    1094:	24840000 	addiu	a0,a0,0
			1094: R_MIPS_LO16	$LC21
    1098:	080003f3 	j	fcc <SPIReadWriteInternal+0xa4>
			1098: R_MIPS_26	.text
    109c:	2410ffff 	li	s0,-1

000010a0 <HIFGetLookAhead>:
    10a0:	27bdffc8 	addiu	sp,sp,-56
    10a4:	3c020000 	lui	v0,0x0
			10a4: R_MIPS_HI16	.text
    10a8:	afb40030 	sw	s4,48(sp)
    10ac:	afb10024 	sw	s1,36(sp)
    10b0:	00a0a021 	move	s4,a1
    10b4:	24510f28 	addiu	s1,v0,3880
			10b4: R_MIPS_LO16	.text
    10b8:	24050300 	li	a1,768
    10bc:	27a60014 	addiu	a2,sp,20
    10c0:	24070001 	li	a3,1
    10c4:	afb20028 	sw	s2,40(sp)
    10c8:	afb00020 	sw	s0,32(sp)
    10cc:	afbf0034 	sw	ra,52(sp)
    10d0:	afb3002c 	sw	s3,44(sp)
    10d4:	0220f809 	jalr	s1
    10d8:	00809021 	move	s2,a0
    10dc:	14400009 	bnez	v0,1104 <HIFGetLookAhead+0x64>
    10e0:	00408021 	move	s0,v0
    10e4:	3c130000 	lui	s3,0x0
			10e4: R_MIPS_HI16	debughif
    10e8:	8e620000 	lw	v0,0(s3)
			10e8: R_MIPS_LO16	debughif
    10ec:	2c420005 	sltiu	v0,v0,5
    10f0:	1040003e 	beqz	v0,11ec <HIFGetLookAhead+0x14c>
    10f4:	97a20014 	lhu	v0,20(sp)
    10f8:	2c420006 	sltiu	v0,v0,6
    10fc:	1040000a 	beqz	v0,1128 <HIFGetLookAhead+0x88>
    1100:	02402021 	move	a0,s2
    1104:	02001021 	move	v0,s0
    1108:	8fbf0034 	lw	ra,52(sp)
    110c:	8fb40030 	lw	s4,48(sp)
    1110:	8fb3002c 	lw	s3,44(sp)
    1114:	8fb20028 	lw	s2,40(sp)
    1118:	8fb10024 	lw	s1,36(sp)
    111c:	8fb00020 	lw	s0,32(sp)
    1120:	03e00008 	jr	ra
    1124:	27bd0038 	addiu	sp,sp,56
    1128:	24051400 	li	a1,5120
    112c:	27a60010 	addiu	a2,sp,16
    1130:	0220f809 	jalr	s1
    1134:	24070001 	li	a3,1
    1138:	1440fff2 	bnez	v0,1104 <HIFGetLookAhead+0x64>
    113c:	00408021 	move	s0,v0
    1140:	02402021 	move	a0,s2
    1144:	24051500 	li	a1,5376
    1148:	27a60012 	addiu	a2,sp,18
    114c:	0220f809 	jalr	s1
    1150:	24070001 	li	a3,1
    1154:	1440ffeb 	bnez	v0,1104 <HIFGetLookAhead+0x64>
    1158:	00408021 	move	s0,v0
    115c:	97a30012 	lhu	v1,18(sp)
    1160:	97a50010 	lhu	a1,16(sp)
    1164:	306400ff 	andi	a0,v1,0xff
    1168:	30a200ff 	andi	v0,a1,0xff
    116c:	00031a02 	srl	v1,v1,0x8
    1170:	00042200 	sll	a0,a0,0x8
    1174:	00832025 	or	a0,a0,v1
    1178:	00052a02 	srl	a1,a1,0x8
    117c:	00021200 	sll	v0,v0,0x8
    1180:	00451025 	or	v0,v0,a1
    1184:	00041c00 	sll	v1,a0,0x10
    1188:	00622825 	or	a1,v1,v0
    118c:	a7a20010 	sh	v0,16(sp)
    1190:	a7a40012 	sh	a0,18(sp)
    1194:	10a00021 	beqz	a1,121c <HIFGetLookAhead+0x17c>
    1198:	afa50018 	sw	a1,24(sp)
    119c:	93a2001b 	lbu	v0,27(sp)
    11a0:	93a4001a 	lbu	a0,26(sp)
    11a4:	00021200 	sll	v0,v0,0x8
    11a8:	00441025 	or	v0,v0,a0
    11ac:	97a30014 	lhu	v1,20(sp)
    11b0:	24420006 	addiu	v0,v0,6
    11b4:	0062182b 	sltu	v1,v1,v0
    11b8:	1460ffd3 	bnez	v1,1108 <HIFGetLookAhead+0x68>
    11bc:	02001021 	move	v0,s0
    11c0:	ae850000 	sw	a1,0(s4)
    11c4:	8e620000 	lw	v0,0(s3)
			11c4: R_MIPS_LO16	debughif
    11c8:	2c420005 	sltiu	v0,v0,5
    11cc:	1440ffcd 	bnez	v0,1104 <HIFGetLookAhead+0x64>
    11d0:	3c040000 	lui	a0,0x0
			11d0: R_MIPS_HI16	$LC34
    11d4:	3c020000 	lui	v0,0x0
			11d4: R_MIPS_HI16	printk
    11d8:	24420000 	addiu	v0,v0,0
			11d8: R_MIPS_LO16	printk
    11dc:	0040f809 	jalr	v0
    11e0:	24840000 	addiu	a0,a0,0
			11e0: R_MIPS_LO16	$LC34
    11e4:	08000442 	j	1108 <HIFGetLookAhead+0x68>
			11e4: R_MIPS_26	.text
    11e8:	02001021 	move	v0,s0
    11ec:	97a50014 	lhu	a1,20(sp)
    11f0:	3c040000 	lui	a0,0x0
			11f0: R_MIPS_HI16	$LC31
    11f4:	3c020000 	lui	v0,0x0
			11f4: R_MIPS_HI16	printk
    11f8:	24420000 	addiu	v0,v0,0
			11f8: R_MIPS_LO16	printk
    11fc:	0040f809 	jalr	v0
    1200:	24840000 	addiu	a0,a0,0
			1200: R_MIPS_LO16	$LC31
    1204:	97a20014 	lhu	v0,20(sp)
    1208:	2c420006 	sltiu	v0,v0,6
    120c:	1440ffbe 	bnez	v0,1108 <HIFGetLookAhead+0x68>
    1210:	02001021 	move	v0,s0
    1214:	0800044a 	j	1128 <HIFGetLookAhead+0x88>
			1214: R_MIPS_26	.text
    1218:	02402021 	move	a0,s2
    121c:	3c040000 	lui	a0,0x0
			121c: R_MIPS_HI16	$LC32
    1220:	3c020000 	lui	v0,0x0
			1220: R_MIPS_HI16	printk
    1224:	24840000 	addiu	a0,a0,0
			1224: R_MIPS_LO16	$LC32
    1228:	24420000 	addiu	v0,v0,0
			1228: R_MIPS_LO16	printk
    122c:	0040f809 	jalr	v0
    1230:	24050419 	li	a1,1049
    1234:	3c040000 	lui	a0,0x0
			1234: R_MIPS_HI16	$LC33
    1238:	3c020000 	lui	v0,0x0
			1238: R_MIPS_HI16	panic
    123c:	24420000 	addiu	v0,v0,0
			123c: R_MIPS_LO16	panic
    1240:	0040f809 	jalr	v0
    1244:	24840000 	addiu	a0,a0,0
			1244: R_MIPS_LO16	$LC33

00001248 <hifConfigureSPI>:
    1248:	27bdffe0 	addiu	sp,sp,-32
    124c:	240205dc 	li	v0,1500
    1250:	a7a20010 	sh	v0,16(sp)
    1254:	3c020000 	lui	v0,0x0
			1254: R_MIPS_HI16	.text
    1258:	afbf0018 	sw	ra,24(sp)
    125c:	27a60010 	addiu	a2,sp,16
    1260:	24051200 	li	a1,4608
    1264:	24420f28 	addiu	v0,v0,3880
			1264: R_MIPS_LO16	.text
    1268:	0040f809 	jalr	v0
    126c:	00003821 	move	a3,zero
    1270:	8fbf0018 	lw	ra,24(sp)
    1274:	03e00008 	jr	ra
    1278:	27bd0020 	addiu	sp,sp,32

0000127c <hifMaskUnmaskRecvMsg>:
    127c:	27bdffe0 	addiu	sp,sp,-32
    1280:	3c020000 	lui	v0,0x0
			1280: R_MIPS_HI16	local_bh_disable
    1284:	afb20018 	sw	s2,24(sp)
    1288:	afb10014 	sw	s1,20(sp)
    128c:	afb00010 	sw	s0,16(sp)
    1290:	afbf001c 	sw	ra,28(sp)
    1294:	24420000 	addiu	v0,v0,0
			1294: R_MIPS_LO16	local_bh_disable
    1298:	00808021 	move	s0,a0
    129c:	00a09021 	move	s2,a1
    12a0:	0040f809 	jalr	v0
    12a4:	00c08821 	move	s1,a2
    12a8:	8f820014 	lw	v0,20(gp)
    12ac:	24420001 	addiu	v0,v0,1
    12b0:	af820014 	sw	v0,20(gp)
    12b4:	40026000 	mfc0	v0,c0_status
    12b8:	30420001 	andi	v0,v0,0x1
    12bc:	10400022 	beqz	v0,1348 <hifMaskUnmaskRecvMsg+0xcc>
    12c0:	3c040000 	lui	a0,0x0
			12c0: R_MIPS_HI16	$LC13
    12c4:	1240001a 	beqz	s2,1330 <hifMaskUnmaskRecvMsg+0xb4>
    12c8:	00000000 	nop
    12cc:	96020292 	lhu	v0,658(s0)
    12d0:	00009021 	move	s2,zero
    12d4:	3042fffe 	andi	v0,v0,0xfffe
    12d8:	a6020292 	sh	v0,658(s0)
    12dc:	8f830014 	lw	v1,20(gp)
    12e0:	3c040000 	lui	a0,0x0
			12e0: R_MIPS_HI16	local_bh_enable
    12e4:	2463ffff 	addiu	v1,v1,-1
    12e8:	24840000 	addiu	a0,a0,0
			12e8: R_MIPS_LO16	local_bh_enable
    12ec:	0080f809 	jalr	a0
    12f0:	af830014 	sw	v1,20(gp)
    12f4:	12200004 	beqz	s1,1308 <hifMaskUnmaskRecvMsg+0x8c>
    12f8:	02202021 	move	a0,s1
    12fc:	8e020298 	lw	v0,664(s0)
    1300:	0040f809 	jalr	v0
    1304:	00002821 	move	a1,zero
    1308:	12400003 	beqz	s2,1318 <hifMaskUnmaskRecvMsg+0x9c>
    130c:	8fbf001c 	lw	ra,28(sp)
    1310:	1220001a 	beqz	s1,137c <hifMaskUnmaskRecvMsg+0x100>
    1314:	00000000 	nop
    1318:	8fb20018 	lw	s2,24(sp)
    131c:	8fb10014 	lw	s1,20(sp)
    1320:	8fb00010 	lw	s0,16(sp)
    1324:	00001021 	move	v0,zero
    1328:	03e00008 	jr	ra
    132c:	27bd0020 	addiu	sp,sp,32
    1330:	96020292 	lhu	v0,658(s0)
    1334:	34430001 	ori	v1,v0,0x1
    1338:	38420001 	xori	v0,v0,0x1
    133c:	30520001 	andi	s2,v0,0x1
    1340:	080004b7 	j	12dc <hifMaskUnmaskRecvMsg+0x60>
			1340: R_MIPS_26	.text
    1344:	a6030292 	sh	v1,658(s0)
    1348:	3c020000 	lui	v0,0x0
			1348: R_MIPS_HI16	printk
    134c:	24420000 	addiu	v0,v0,0
			134c: R_MIPS_LO16	printk
    1350:	0040f809 	jalr	v0
    1354:	24840000 	addiu	a0,a0,0
			1354: R_MIPS_LO16	$LC13
    1358:	40016000 	mfc0	at,c0_status
    135c:	3421001f 	ori	at,at,0x1f
    1360:	3821001e 	xori	at,at,0x1e
    1364:	40816000 	mtc0	at,c0_status
    1368:	00000040 	ssnop
    136c:	00000040 	ssnop
    1370:	00000040 	ssnop
    1374:	080004b1 	j	12c4 <hifMaskUnmaskRecvMsg+0x48>
			1374: R_MIPS_26	.text
    1378:	000000c0 	sll	zero,zero,0x3
    137c:	8e02029c 	lw	v0,668(s0)
    1380:	0040f809 	jalr	v0
    1384:	8e040294 	lw	a0,660(s0)
    1388:	8fbf001c 	lw	ra,28(sp)
    138c:	8fb20018 	lw	s2,24(sp)
    1390:	8fb10014 	lw	s1,20(sp)
    1394:	8fb00010 	lw	s0,16(sp)
    1398:	00001021 	move	v0,zero
    139c:	03e00008 	jr	ra
    13a0:	27bd0020 	addiu	sp,sp,32

000013a4 <hifDeviceInserted>:
    13a4:	27bdffc8 	addiu	sp,sp,-56
    13a8:	afb60028 	sw	s6,40(sp)
    13ac:	afbf0034 	sw	ra,52(sp)
    13b0:	afbe0030 	sw	s8,48(sp)
    13b4:	afb7002c 	sw	s7,44(sp)
    13b8:	afb50024 	sw	s5,36(sp)
    13bc:	afb40020 	sw	s4,32(sp)
    13c0:	afb3001c 	sw	s3,28(sp)
    13c4:	afb20018 	sw	s2,24(sp)
    13c8:	afb10014 	sw	s1,20(sp)
    13cc:	afb00010 	sw	s0,16(sp)
    13d0:	10800098 	beqz	a0,1634 <hifDeviceInserted+0x290>
    13d4:	00a0b021 	move	s6,a1
    13d8:	12c000a5 	beqz	s6,1670 <hifDeviceInserted+0x2cc>
    13dc:	3c030000 	lui	v1,0x0
			13dc: R_MIPS_HI16	debughif
    13e0:	8c620000 	lw	v0,0(v1)
			13e0: R_MIPS_LO16	debughif
    13e4:	14400085 	bnez	v0,15fc <hifDeviceInserted+0x258>
    13e8:	3c040000 	lui	a0,0x0
			13e8: R_MIPS_HI16	$LC35
    13ec:	3c1e0000 	lui	s8,0x0
			13ec: R_MIPS_HI16	.bss
    13f0:	3c020000 	lui	v0,0x0
			13f0: R_MIPS_HI16	memset
    13f4:	27c40018 	addiu	a0,s8,24
			13f4: R_MIPS_LO16	.bss
    13f8:	00002821 	move	a1,zero
    13fc:	24420000 	addiu	v0,v0,0
			13fc: R_MIPS_LO16	memset
    1400:	0040f809 	jalr	v0
    1404:	240602a0 	li	a2,672
    1408:	27d00018 	addiu	s0,s8,24
			1408: R_MIPS_LO16	.bss
    140c:	3c020000 	lui	v0,0x0
			140c: R_MIPS_HI16	addHifDevice
    1410:	02c02021 	move	a0,s6
    1414:	ae000008 	sw	zero,8(s0)
    1418:	24420000 	addiu	v0,v0,0
			1418: R_MIPS_LO16	addHifDevice
    141c:	0040f809 	jalr	v0
    1420:	afd60018 	sw	s6,24(s8)
			1420: R_MIPS_LO16	.bss
    1424:	8fc40018 	lw	a0,24(s8)
			1424: R_MIPS_LO16	.bss
    1428:	3c020000 	lui	v0,0x0
			1428: R_MIPS_HI16	hifIRQHandler
    142c:	24030081 	li	v1,129
    1430:	24420000 	addiu	v0,v0,0
			1430: R_MIPS_LO16	hifIRQHandler
    1434:	a6030292 	sh	v1,658(s0)
    1438:	ac820020 	sw	v0,32(a0)
    143c:	8fc30018 	lw	v1,24(s8)
			143c: R_MIPS_LO16	.bss
    1440:	3c110000 	lui	s1,0x0
			1440: R_MIPS_HI16	debughif
    1444:	ac700028 	sw	s0,40(v1)
    1448:	8e220000 	lw	v0,0(s1)
			1448: R_MIPS_LO16	debughif
    144c:	2c420003 	sltiu	v0,v0,3
    1450:	10400063 	beqz	v0,15e0 <hifDeviceInserted+0x23c>
    1454:	3c040000 	lui	a0,0x0
			1454: R_MIPS_HI16	$LC35
    1458:	96c20038 	lhu	v0,56(s6)
    145c:	30420008 	andi	v0,v0,0x8
    1460:	14400044 	bnez	v0,1574 <hifDeviceInserted+0x1d0>
    1464:	8e220000 	lw	v0,0(s1)
			1464: R_MIPS_LO16	debughif
    1468:	2c420003 	sltiu	v0,v0,3
    146c:	1040004d 	beqz	v0,15a4 <hifDeviceInserted+0x200>
    1470:	00000000 	nop
    1474:	8ec20034 	lw	v0,52(s6)
    1478:	27c40018 	addiu	a0,s8,24
			1478: R_MIPS_LO16	.bss
    147c:	94430050 	lhu	v1,80(v0)
    1480:	a4830290 	sh	v1,656(a0)
    1484:	3c020000 	lui	v0,0x0
			1484: R_MIPS_HI16	.bss
    1488:	24530028 	addiu	s3,v0,40
			1488: R_MIPS_LO16	.bss
    148c:	3c030000 	lui	v1,0x0
			148c: R_MIPS_HI16	.bss
    1490:	3c020000 	lui	v0,0x0
			1490: R_MIPS_HI16	hifFreeBusRequest
    1494:	24770018 	addiu	s7,v1,24
			1494: R_MIPS_LO16	.bss
    1498:	24550000 	addiu	s5,v0,0
			1498: R_MIPS_LO16	hifFreeBusRequest
    149c:	00009021 	move	s2,zero
    14a0:	24110008 	li	s1,8
    14a4:	0800052f 	j	14bc <hifDeviceInserted+0x118>
			14a4: R_MIPS_26	.text
    14a8:	24140028 	li	s4,40
    14ac:	02a0f809 	jalr	s5
    14b0:	00000000 	nop
    14b4:	12540021 	beq	s2,s4,153c <hifDeviceInserted+0x198>
    14b8:	3c020000 	lui	v0,0x0
			14b8: R_MIPS_HI16	hifConfigureSPI
    14bc:	8ec20018 	lw	v0,24(s6)
    14c0:	0040f809 	jalr	v0
    14c4:	02c02021 	move	a0,s6
    14c8:	02372821 	addu	a1,s1,s7
    14cc:	ae620000 	sw	v0,0(s3)
    14d0:	26520001 	addiu	s2,s2,1
    14d4:	24a50004 	addiu	a1,a1,4
    14d8:	02e02021 	move	a0,s7
    14dc:	26310010 	addiu	s1,s1,16
    14e0:	1440fff2 	bnez	v0,14ac <hifDeviceInserted+0x108>
    14e4:	26730010 	addiu	s3,s3,16
    14e8:	3c030000 	lui	v1,0x0
			14e8: R_MIPS_HI16	debughif
    14ec:	8c620000 	lw	v0,0(v1)
			14ec: R_MIPS_LO16	debughif
    14f0:	1440004a 	bnez	v0,161c <hifDeviceInserted+0x278>
    14f4:	3c040000 	lui	a0,0x0
			14f4: R_MIPS_HI16	$LC21
    14f8:	3c020000 	lui	v0,0x0
			14f8: R_MIPS_HI16	.text
    14fc:	24420274 	addiu	v0,v0,628
			14fc: R_MIPS_LO16	.text
    1500:	0040f809 	jalr	v0
    1504:	27c40018 	addiu	a0,s8,24
			1504: R_MIPS_LO16	.bss
    1508:	00001021 	move	v0,zero
    150c:	8fbf0034 	lw	ra,52(sp)
    1510:	8fbe0030 	lw	s8,48(sp)
    1514:	8fb7002c 	lw	s7,44(sp)
    1518:	8fb60028 	lw	s6,40(sp)
    151c:	8fb50024 	lw	s5,36(sp)
    1520:	8fb40020 	lw	s4,32(sp)
    1524:	8fb3001c 	lw	s3,28(sp)
    1528:	8fb20018 	lw	s2,24(sp)
    152c:	8fb10014 	lw	s1,20(sp)
    1530:	8fb00010 	lw	s0,16(sp)
    1534:	03e00008 	jr	ra
    1538:	27bd0038 	addiu	sp,sp,56
    153c:	24420000 	addiu	v0,v0,0
			153c: R_MIPS_LO16	hifConfigureSPI
    1540:	0040f809 	jalr	v0
    1544:	02e02021 	move	a0,s7
    1548:	10400071 	beqz	v0,1710 <hifDeviceInserted+0x36c>
    154c:	3c030000 	lui	v1,0x0
			154c: R_MIPS_HI16	debughif
    1550:	8c620000 	lw	v0,0(v1)
			1550: R_MIPS_LO16	debughif
    1554:	1040ffe8 	beqz	v0,14f8 <hifDeviceInserted+0x154>
    1558:	3c040000 	lui	a0,0x0
			1558: R_MIPS_HI16	$LC41
    155c:	3c020000 	lui	v0,0x0
			155c: R_MIPS_HI16	printk
    1560:	24420000 	addiu	v0,v0,0
			1560: R_MIPS_LO16	printk
    1564:	0040f809 	jalr	v0
    1568:	24840000 	addiu	a0,a0,0
			1568: R_MIPS_LO16	$LC41
    156c:	0800053f 	j	14fc <hifDeviceInserted+0x158>
			156c: R_MIPS_26	.text
    1570:	3c020000 	lui	v0,0x0
			1570: R_MIPS_HI16	.text
    1574:	8ec20034 	lw	v0,52(s6)
    1578:	3c050000 	lui	a1,0x0
			1578: R_MIPS_HI16	$LC36
    157c:	8c44000c 	lw	a0,12(v0)
    1580:	3c020000 	lui	v0,0x0
			1580: R_MIPS_HI16	strstr
    1584:	24420000 	addiu	v0,v0,0
			1584: R_MIPS_LO16	strstr
    1588:	0040f809 	jalr	v0
    158c:	24a50000 	addiu	a1,a1,0
			158c: R_MIPS_LO16	$LC36
    1590:	1040ffd9 	beqz	v0,14f8 <hifDeviceInserted+0x154>
    1594:	8e220000 	lw	v0,0(s1)
			1594: R_MIPS_LO16	debughif
    1598:	2c420003 	sltiu	v0,v0,3
    159c:	1440ffb5 	bnez	v0,1474 <hifDeviceInserted+0xd0>
    15a0:	00000000 	nop
    15a4:	8ec20034 	lw	v0,52(s6)
    15a8:	3c040000 	lui	a0,0x0
			15a8: R_MIPS_HI16	$LC37
    15ac:	8c45000c 	lw	a1,12(v0)
    15b0:	3c020000 	lui	v0,0x0
			15b0: R_MIPS_HI16	printk
    15b4:	24520000 	addiu	s2,v0,0
			15b4: R_MIPS_LO16	printk
    15b8:	0240f809 	jalr	s2
    15bc:	24840000 	addiu	a0,a0,0
			15bc: R_MIPS_LO16	$LC37
    15c0:	8e230000 	lw	v1,0(s1)
			15c0: R_MIPS_LO16	debughif
    15c4:	2c630003 	sltiu	v1,v1,3
    15c8:	10600038 	beqz	v1,16ac <hifDeviceInserted+0x308>
    15cc:	3c040000 	lui	a0,0x0
			15cc: R_MIPS_HI16	$LC38
    15d0:	8ec20034 	lw	v0,52(s6)
    15d4:	94430050 	lhu	v1,80(v0)
    15d8:	08000521 	j	1484 <hifDeviceInserted+0xe0>
			15d8: R_MIPS_26	.text
    15dc:	a6030290 	sh	v1,656(s0)
    15e0:	3c020000 	lui	v0,0x0
			15e0: R_MIPS_HI16	printk
    15e4:	24840000 	addiu	a0,a0,0
			15e4: R_MIPS_LO16	$LC35
    15e8:	24420000 	addiu	v0,v0,0
			15e8: R_MIPS_LO16	printk
    15ec:	0040f809 	jalr	v0
    15f0:	02002821 	move	a1,s0
    15f4:	08000517 	j	145c <hifDeviceInserted+0xb8>
			15f4: R_MIPS_26	.text
    15f8:	96c20038 	lhu	v0,56(s6)
    15fc:	3c050000 	lui	a1,0x0
			15fc: R_MIPS_HI16	.rodata
    1600:	3c020000 	lui	v0,0x0
			1600: R_MIPS_HI16	printk
    1604:	24840000 	addiu	a0,a0,0
			1604: R_MIPS_LO16	$LC35
    1608:	24420000 	addiu	v0,v0,0
			1608: R_MIPS_LO16	printk
    160c:	0040f809 	jalr	v0
    1610:	24a50018 	addiu	a1,a1,24
			1610: R_MIPS_LO16	.rodata
    1614:	080004fc 	j	13f0 <hifDeviceInserted+0x4c>
			1614: R_MIPS_26	.text
    1618:	3c1e0000 	lui	s8,0x0
			1618: R_MIPS_HI16	.bss
    161c:	3c020000 	lui	v0,0x0
			161c: R_MIPS_HI16	printk
    1620:	24420000 	addiu	v0,v0,0
			1620: R_MIPS_LO16	printk
    1624:	0040f809 	jalr	v0
    1628:	24840000 	addiu	a0,a0,0
			1628: R_MIPS_LO16	$LC21
    162c:	0800053f 	j	14fc <hifDeviceInserted+0x158>
			162c: R_MIPS_26	.text
    1630:	3c020000 	lui	v0,0x0
			1630: R_MIPS_HI16	.text
    1634:	3c030000 	lui	v1,0x0
			1634: R_MIPS_HI16	debughif
    1638:	8c620000 	lw	v0,0(v1)
			1638: R_MIPS_LO16	debughif
    163c:	1040ff66 	beqz	v0,13d8 <hifDeviceInserted+0x34>
    1640:	3c040000 	lui	a0,0x0
			1640: R_MIPS_HI16	$LC1
    1644:	3c050000 	lui	a1,0x0
			1644: R_MIPS_HI16	$LC2
    1648:	3c070000 	lui	a3,0x0
			1648: R_MIPS_HI16	$LC8
    164c:	3c020000 	lui	v0,0x0
			164c: R_MIPS_HI16	printk
    1650:	24840000 	addiu	a0,a0,0
			1650: R_MIPS_LO16	$LC1
    1654:	24a50000 	addiu	a1,a1,0
			1654: R_MIPS_LO16	$LC2
    1658:	24e70000 	addiu	a3,a3,0
			1658: R_MIPS_LO16	$LC8
    165c:	24420000 	addiu	v0,v0,0
			165c: R_MIPS_LO16	printk
    1660:	0040f809 	jalr	v0
    1664:	24060241 	li	a2,577
    1668:	16c0ff5d 	bnez	s6,13e0 <hifDeviceInserted+0x3c>
    166c:	3c030000 	lui	v1,0x0
			166c: R_MIPS_HI16	debughif
    1670:	8c620000 	lw	v0,0(v1)
			1670: R_MIPS_LO16	debughif
    1674:	1040ff5e 	beqz	v0,13f0 <hifDeviceInserted+0x4c>
    1678:	3c1e0000 	lui	s8,0x0
			1678: R_MIPS_HI16	.bss
    167c:	3c040000 	lui	a0,0x0
			167c: R_MIPS_HI16	$LC1
    1680:	3c050000 	lui	a1,0x0
			1680: R_MIPS_HI16	$LC2
    1684:	3c070000 	lui	a3,0x0
			1684: R_MIPS_HI16	$LC7
    1688:	3c020000 	lui	v0,0x0
			1688: R_MIPS_HI16	printk
    168c:	24840000 	addiu	a0,a0,0
			168c: R_MIPS_LO16	$LC1
    1690:	24a50000 	addiu	a1,a1,0
			1690: R_MIPS_LO16	$LC2
    1694:	24e70000 	addiu	a3,a3,0
			1694: R_MIPS_LO16	$LC7
    1698:	24420000 	addiu	v0,v0,0
			1698: R_MIPS_LO16	printk
    169c:	0040f809 	jalr	v0
    16a0:	24060242 	li	a2,578
    16a4:	080004f8 	j	13e0 <hifDeviceInserted+0x3c>
			16a4: R_MIPS_26	.text
    16a8:	3c030000 	lui	v1,0x0
			16a8: R_MIPS_HI16	debughif
    16ac:	92c50801 	lbu	a1,2049(s6)
    16b0:	30a6000f 	andi	a2,a1,0xf
    16b4:	24840000 	addiu	a0,a0,0
			16b4: R_MIPS_LO16	$LC38
    16b8:	0240f809 	jalr	s2
    16bc:	00052902 	srl	a1,a1,0x4
    16c0:	8e230000 	lw	v1,0(s1)
			16c0: R_MIPS_LO16	debughif
    16c4:	2c630003 	sltiu	v1,v1,3
    16c8:	1460ff6a 	bnez	v1,1474 <hifDeviceInserted+0xd0>
    16cc:	00000000 	nop
    16d0:	8ec20034 	lw	v0,52(s6)
    16d4:	3c040000 	lui	a0,0x0
			16d4: R_MIPS_HI16	$LC39
    16d8:	94450014 	lhu	a1,20(v0)
    16dc:	0240f809 	jalr	s2
    16e0:	24840000 	addiu	a0,a0,0
			16e0: R_MIPS_LO16	$LC39
    16e4:	8ec30034 	lw	v1,52(s6)
    16e8:	8e220000 	lw	v0,0(s1)
			16e8: R_MIPS_LO16	debughif
    16ec:	94650050 	lhu	a1,80(v1)
    16f0:	2c420003 	sltiu	v0,v0,3
    16f4:	1440ff63 	bnez	v0,1484 <hifDeviceInserted+0xe0>
    16f8:	a6050290 	sh	a1,656(s0)
    16fc:	3c040000 	lui	a0,0x0
			16fc: R_MIPS_HI16	$LC40
    1700:	0240f809 	jalr	s2
    1704:	24840000 	addiu	a0,a0,0
			1704: R_MIPS_LO16	$LC40
    1708:	08000522 	j	1488 <hifDeviceInserted+0xe4>
			1708: R_MIPS_26	.text
    170c:	3c020000 	lui	v0,0x0
			170c: R_MIPS_HI16	.bss
    1710:	3c030000 	lui	v1,0x0
			1710: R_MIPS_HI16	osdrvCallbacks
    1714:	24640000 	addiu	a0,v1,0
			1714: R_MIPS_LO16	osdrvCallbacks
    1718:	8c820004 	lw	v0,4(a0)
    171c:	8c640000 	lw	a0,0(v1)
			171c: R_MIPS_LO16	osdrvCallbacks
    1720:	0040f809 	jalr	v0
    1724:	02e02821 	move	a1,s7
    1728:	1040ff78 	beqz	v0,150c <hifDeviceInserted+0x168>
    172c:	24020001 	li	v0,1
    1730:	3c030000 	lui	v1,0x0
			1730: R_MIPS_HI16	debughif
    1734:	8c620000 	lw	v0,0(v1)
			1734: R_MIPS_LO16	debughif
    1738:	1040ff75 	beqz	v0,1510 <hifDeviceInserted+0x16c>
    173c:	8fbf0034 	lw	ra,52(sp)
    1740:	3c040000 	lui	a0,0x0
			1740: R_MIPS_HI16	$LC42
    1744:	3c020000 	lui	v0,0x0
			1744: R_MIPS_HI16	printk
    1748:	24420000 	addiu	v0,v0,0
			1748: R_MIPS_LO16	printk
    174c:	0040f809 	jalr	v0
    1750:	24840000 	addiu	a0,a0,0
			1750: R_MIPS_LO16	$LC42
    1754:	08000543 	j	150c <hifDeviceInserted+0x168>
			1754: R_MIPS_26	.text
    1758:	00001021 	move	v0,zero

0000175c <hifGetPendingEvents>:
    175c:	27bdffc0 	addiu	sp,sp,-64
    1760:	afb40030 	sw	s4,48(sp)
    1764:	3c140000 	lui	s4,0x0
			1764: R_MIPS_HI16	debughif
    1768:	8e820000 	lw	v0,0(s4)
			1768: R_MIPS_LO16	debughif
    176c:	afb20028 	sw	s2,40(sp)
    1770:	2c420005 	sltiu	v0,v0,5
    1774:	afb10024 	sw	s1,36(sp)
    1778:	afb00020 	sw	s0,32(sp)
    177c:	afbf0038 	sw	ra,56(sp)
    1780:	afb50034 	sw	s5,52(sp)
    1784:	afb3002c 	sw	s3,44(sp)
    1788:	00808821 	move	s1,a0
    178c:	00a09021 	move	s2,a1
    1790:	1040004a 	beqz	v0,18bc <hifGetPendingEvents+0x160>
    1794:	00c08021 	move	s0,a2
    1798:	3c020000 	lui	v0,0x0
			1798: R_MIPS_HI16	memset
    179c:	02402021 	move	a0,s2
    17a0:	00002821 	move	a1,zero
    17a4:	24420000 	addiu	v0,v0,0
			17a4: R_MIPS_LO16	memset
    17a8:	0040f809 	jalr	v0
    17ac:	2406000c 	li	a2,12
    17b0:	160000a7 	bnez	s0,1a50 <hifGetPendingEvents+0x2f4>
    17b4:	3c150000 	lui	s5,0x0
			17b4: R_MIPS_HI16	.text
    17b8:	02202021 	move	a0,s1
    17bc:	24050c00 	li	a1,3072
    17c0:	27a60010 	addiu	a2,sp,16
    17c4:	26b30f28 	addiu	s3,s5,3880
			17c4: R_MIPS_LO16	.text
    17c8:	0260f809 	jalr	s3
    17cc:	24070001 	li	a3,1
    17d0:	00408021 	move	s0,v0
    17d4:	3c020000 	lui	v0,0x0
			17d4: R_MIPS_HI16	stack_force_interrupt_get
    17d8:	24420000 	addiu	v0,v0,0
			17d8: R_MIPS_LO16	stack_force_interrupt_get
    17dc:	0040f809 	jalr	v0
    17e0:	00000000 	nop
    17e4:	1440002b 	bnez	v0,1894 <hifGetPendingEvents+0x138>
    17e8:	97a20010 	lhu	v0,16(sp)
    17ec:	3c020000 	lui	v0,0x0
			17ec: R_MIPS_HI16	stack_force_interrupt_clear
    17f0:	24420000 	addiu	v0,v0,0
			17f0: R_MIPS_LO16	stack_force_interrupt_clear
    17f4:	0040f809 	jalr	v0
    17f8:	00000000 	nop
    17fc:	16000013 	bnez	s0,184c <hifGetPendingEvents+0xf0>
    1800:	8e820000 	lw	v0,0(s4)
			1800: R_MIPS_LO16	debughif
    1804:	2c420005 	sltiu	v0,v0,5
    1808:	10400083 	beqz	v0,1a18 <hifGetPendingEvents+0x2bc>
    180c:	97a50010 	lhu	a1,16(sp)
    1810:	97a30010 	lhu	v1,16(sp)
    1814:	30620080 	andi	v0,v1,0x80
    1818:	10400005 	beqz	v0,1830 <hifGetPendingEvents+0xd4>
    181c:	30620001 	andi	v0,v1,0x1
    1820:	8e420000 	lw	v0,0(s2)
    1824:	34420001 	ori	v0,v0,0x1
    1828:	ae420000 	sw	v0,0(s2)
    182c:	30620001 	andi	v0,v1,0x1
    1830:	1440006f 	bnez	v0,19f0 <hifGetPendingEvents+0x294>
    1834:	24020001 	li	v0,1
    1838:	96220292 	lhu	v0,658(s1)
    183c:	30420001 	andi	v0,v0,0x1
    1840:	14400026 	bnez	v0,18dc <hifGetPendingEvents+0x180>
    1844:	26b30f28 	addiu	s3,s5,3880
			1844: R_MIPS_LO16	.text
    1848:	8e820000 	lw	v0,0(s4)
			1848: R_MIPS_LO16	debughif
    184c:	2c420005 	sltiu	v0,v0,5
    1850:	14400007 	bnez	v0,1870 <hifGetPendingEvents+0x114>
    1854:	02001021 	move	v0,s0
    1858:	3c040000 	lui	a0,0x0
			1858: R_MIPS_HI16	$LC49
    185c:	3c020000 	lui	v0,0x0
			185c: R_MIPS_HI16	printk
    1860:	24420000 	addiu	v0,v0,0
			1860: R_MIPS_LO16	printk
    1864:	0040f809 	jalr	v0
    1868:	24840000 	addiu	a0,a0,0
			1868: R_MIPS_LO16	$LC49
    186c:	02001021 	move	v0,s0
    1870:	8fbf0038 	lw	ra,56(sp)
    1874:	8fb50034 	lw	s5,52(sp)
    1878:	8fb40030 	lw	s4,48(sp)
    187c:	8fb3002c 	lw	s3,44(sp)
    1880:	8fb20028 	lw	s2,40(sp)
    1884:	8fb10024 	lw	s1,36(sp)
    1888:	8fb00020 	lw	s0,32(sp)
    188c:	03e00008 	jr	ra
    1890:	27bd0040 	addiu	sp,sp,64
    1894:	34420001 	ori	v0,v0,0x1
    1898:	a7a20010 	sh	v0,16(sp)
    189c:	3c020000 	lui	v0,0x0
			189c: R_MIPS_HI16	stack_force_interrupt_clear
    18a0:	24420000 	addiu	v0,v0,0
			18a0: R_MIPS_LO16	stack_force_interrupt_clear
    18a4:	0040f809 	jalr	v0
    18a8:	00000000 	nop
    18ac:	1600ffe6 	bnez	s0,1848 <hifGetPendingEvents+0xec>
    18b0:	8e820000 	lw	v0,0(s4)
			18b0: R_MIPS_LO16	debughif
    18b4:	08000602 	j	1808 <hifGetPendingEvents+0xac>
			18b4: R_MIPS_26	.text
    18b8:	2c420005 	sltiu	v0,v0,5
    18bc:	3c040000 	lui	a0,0x0
			18bc: R_MIPS_HI16	$LC43
    18c0:	3c020000 	lui	v0,0x0
			18c0: R_MIPS_HI16	printk
    18c4:	24840000 	addiu	a0,a0,0
			18c4: R_MIPS_LO16	$LC43
    18c8:	24420000 	addiu	v0,v0,0
			18c8: R_MIPS_LO16	printk
    18cc:	0040f809 	jalr	v0
    18d0:	02202821 	move	a1,s1
    18d4:	080005e7 	j	179c <hifGetPendingEvents+0x40>
			18d4: R_MIPS_26	.text
    18d8:	3c020000 	lui	v0,0x0
			18d8: R_MIPS_HI16	memset
    18dc:	02202021 	move	a0,s1
    18e0:	24050300 	li	a1,768
    18e4:	27a60018 	addiu	a2,sp,24
    18e8:	0260f809 	jalr	s3
    18ec:	24070001 	li	a3,1
    18f0:	1440ffd5 	bnez	v0,1848 <hifGetPendingEvents+0xec>
    18f4:	00408021 	move	s0,v0
    18f8:	8e820000 	lw	v0,0(s4)
			18f8: R_MIPS_LO16	debughif
    18fc:	2c420005 	sltiu	v0,v0,5
    1900:	1040004c 	beqz	v0,1a34 <hifGetPendingEvents+0x2d8>
    1904:	97a50018 	lhu	a1,24(sp)
    1908:	97a20018 	lhu	v0,24(sp)
    190c:	2c430006 	sltiu	v1,v0,6
    1910:	1460ffcd 	bnez	v1,1848 <hifGetPendingEvents+0xec>
    1914:	ae420008 	sw	v0,8(s2)
    1918:	02202021 	move	a0,s1
    191c:	24051400 	li	a1,5120
    1920:	27a60014 	addiu	a2,sp,20
    1924:	0260f809 	jalr	s3
    1928:	24070001 	li	a3,1
    192c:	1440ffc6 	bnez	v0,1848 <hifGetPendingEvents+0xec>
    1930:	00408021 	move	s0,v0
    1934:	02202021 	move	a0,s1
    1938:	24051500 	li	a1,5376
    193c:	27a60016 	addiu	a2,sp,22
    1940:	0260f809 	jalr	s3
    1944:	24070001 	li	a3,1
    1948:	1440ffbf 	bnez	v0,1848 <hifGetPendingEvents+0xec>
    194c:	00408021 	move	s0,v0
    1950:	97a30016 	lhu	v1,22(sp)
    1954:	97a40014 	lhu	a0,20(sp)
    1958:	306500ff 	andi	a1,v1,0xff
    195c:	308200ff 	andi	v0,a0,0xff
    1960:	00031a02 	srl	v1,v1,0x8
    1964:	00052a00 	sll	a1,a1,0x8
    1968:	00a32825 	or	a1,a1,v1
    196c:	00021200 	sll	v0,v0,0x8
    1970:	00042202 	srl	a0,a0,0x8
    1974:	00441025 	or	v0,v0,a0
    1978:	00051c00 	sll	v1,a1,0x10
    197c:	00623025 	or	a2,v1,v0
    1980:	a7a20014 	sh	v0,20(sp)
    1984:	a7a50016 	sh	a1,22(sp)
    1988:	10c0003c 	beqz	a2,1a7c <hifGetPendingEvents+0x320>
    198c:	afa6001c 	sw	a2,28(sp)
    1990:	93a2001f 	lbu	v0,31(sp)
    1994:	93a3001e 	lbu	v1,30(sp)
    1998:	00021200 	sll	v0,v0,0x8
    199c:	00431025 	or	v0,v0,v1
    19a0:	97a50018 	lhu	a1,24(sp)
    19a4:	24420006 	addiu	v0,v0,6
    19a8:	00a2102b 	sltu	v0,a1,v0
    19ac:	1440ffa7 	bnez	v0,184c <hifGetPendingEvents+0xf0>
    19b0:	8e820000 	lw	v0,0(s4)
			19b0: R_MIPS_LO16	debughif
    19b4:	8e420000 	lw	v0,0(s2)
    19b8:	ae460004 	sw	a2,4(s2)
    19bc:	34420002 	ori	v0,v0,0x2
    19c0:	ae420000 	sw	v0,0(s2)
    19c4:	3c030000 	lui	v1,0x0
			19c4: R_MIPS_HI16	debughif
    19c8:	8c620000 	lw	v0,0(v1)
			19c8: R_MIPS_LO16	debughif
    19cc:	2c420005 	sltiu	v0,v0,5
    19d0:	1440ffa6 	bnez	v0,186c <hifGetPendingEvents+0x110>
    19d4:	3c020000 	lui	v0,0x0
			19d4: R_MIPS_HI16	printk
    19d8:	3c040000 	lui	a0,0x0
			19d8: R_MIPS_HI16	$LC48
    19dc:	24420000 	addiu	v0,v0,0
			19dc: R_MIPS_LO16	printk
    19e0:	0040f809 	jalr	v0
    19e4:	24840000 	addiu	a0,a0,0
			19e4: R_MIPS_LO16	$LC48
    19e8:	08000613 	j	184c <hifGetPendingEvents+0xf0>
			19e8: R_MIPS_26	.text
    19ec:	8e820000 	lw	v0,0(s4)
			19ec: R_MIPS_LO16	debughif
    19f0:	02202021 	move	a0,s1
    19f4:	24050c00 	li	a1,3072
    19f8:	27a60012 	addiu	a2,sp,18
    19fc:	00003821 	move	a3,zero
    1a00:	0260f809 	jalr	s3
    1a04:	a7a20012 	sh	v0,18(sp)
    1a08:	1040ff8b 	beqz	v0,1838 <hifGetPendingEvents+0xdc>
    1a0c:	00000000 	nop
    1a10:	08000612 	j	1848 <hifGetPendingEvents+0xec>
			1a10: R_MIPS_26	.text
    1a14:	00408021 	move	s0,v0
    1a18:	3c040000 	lui	a0,0x0
			1a18: R_MIPS_HI16	$LC46
    1a1c:	3c020000 	lui	v0,0x0
			1a1c: R_MIPS_HI16	printk
    1a20:	24420000 	addiu	v0,v0,0
			1a20: R_MIPS_LO16	printk
    1a24:	0040f809 	jalr	v0
    1a28:	24840000 	addiu	a0,a0,0
			1a28: R_MIPS_LO16	$LC46
    1a2c:	08000605 	j	1814 <hifGetPendingEvents+0xb8>
			1a2c: R_MIPS_26	.text
    1a30:	97a30010 	lhu	v1,16(sp)
    1a34:	3c040000 	lui	a0,0x0
			1a34: R_MIPS_HI16	$LC47
    1a38:	3c020000 	lui	v0,0x0
			1a38: R_MIPS_HI16	printk
    1a3c:	24420000 	addiu	v0,v0,0
			1a3c: R_MIPS_LO16	printk
    1a40:	0040f809 	jalr	v0
    1a44:	24840000 	addiu	a0,a0,0
			1a44: R_MIPS_LO16	$LC47
    1a48:	08000643 	j	190c <hifGetPendingEvents+0x1b0>
			1a48: R_MIPS_26	.text
    1a4c:	97a20018 	lhu	v0,24(sp)
    1a50:	3c040000 	lui	a0,0x0
			1a50: R_MIPS_HI16	$LC44
    1a54:	3c020000 	lui	v0,0x0
			1a54: R_MIPS_HI16	printk
    1a58:	24840000 	addiu	a0,a0,0
			1a58: R_MIPS_LO16	$LC44
    1a5c:	24420000 	addiu	v0,v0,0
			1a5c: R_MIPS_LO16	printk
    1a60:	0040f809 	jalr	v0
    1a64:	2405034d 	li	a1,845
    1a68:	3c040000 	lui	a0,0x0
			1a68: R_MIPS_HI16	$LC45
    1a6c:	3c020000 	lui	v0,0x0
			1a6c: R_MIPS_HI16	panic
    1a70:	24420000 	addiu	v0,v0,0
			1a70: R_MIPS_LO16	panic
    1a74:	0040f809 	jalr	v0
    1a78:	24840000 	addiu	a0,a0,0
			1a78: R_MIPS_LO16	$LC45
    1a7c:	3c040000 	lui	a0,0x0
			1a7c: R_MIPS_HI16	$LC32
    1a80:	3c020000 	lui	v0,0x0
			1a80: R_MIPS_HI16	printk
    1a84:	24840000 	addiu	a0,a0,0
			1a84: R_MIPS_LO16	$LC32
    1a88:	24420000 	addiu	v0,v0,0
			1a88: R_MIPS_LO16	printk
    1a8c:	0040f809 	jalr	v0
    1a90:	240503d4 	li	a1,980
    1a94:	3c040000 	lui	a0,0x0
			1a94: R_MIPS_HI16	$LC33
    1a98:	3c020000 	lui	v0,0x0
			1a98: R_MIPS_HI16	panic
    1a9c:	24420000 	addiu	v0,v0,0
			1a9c: R_MIPS_LO16	panic
    1aa0:	0040f809 	jalr	v0
    1aa4:	24840000 	addiu	a0,a0,0
			1aa4: R_MIPS_LO16	$LC33

00001aa8 <HIFShutDownDevice>:
    1aa8:	27bdffe8 	addiu	sp,sp,-24
    1aac:	afb00010 	sw	s0,16(sp)
    1ab0:	afbf0014 	sw	ra,20(sp)
    1ab4:	10800018 	beqz	a0,1b18 <HIFShutDownDevice+0x70>
    1ab8:	3c100000 	lui	s0,0x0
			1ab8: R_MIPS_HI16	debughif
    1abc:	8c830000 	lw	v1,0(a0)
    1ac0:	24020001 	li	v0,1
    1ac4:	10600005 	beqz	v1,1adc <HIFShutDownDevice+0x34>
    1ac8:	ac82028c 	sw	v0,652(a0)
    1acc:	8fbf0014 	lw	ra,20(sp)
    1ad0:	8fb00010 	lw	s0,16(sp)
    1ad4:	03e00008 	jr	ra
    1ad8:	27bd0018 	addiu	sp,sp,24
    1adc:	8e030000 	lw	v1,0(s0)
			1adc: R_MIPS_LO16	debughif
    1ae0:	3c040000 	lui	a0,0x0
			1ae0: R_MIPS_HI16	$LC1
    1ae4:	3c050000 	lui	a1,0x0
			1ae4: R_MIPS_HI16	$LC2
    1ae8:	3c070000 	lui	a3,0x0
			1ae8: R_MIPS_HI16	$LC10
    1aec:	24840000 	addiu	a0,a0,0
			1aec: R_MIPS_LO16	$LC1
    1af0:	24a50000 	addiu	a1,a1,0
			1af0: R_MIPS_LO16	$LC2
    1af4:	24e70000 	addiu	a3,a3,0
			1af4: R_MIPS_LO16	$LC10
    1af8:	1060fff4 	beqz	v1,1acc <HIFShutDownDevice+0x24>
    1afc:	24060190 	li	a2,400
    1b00:	3c190000 	lui	t9,0x0
			1b00: R_MIPS_HI16	printk
    1b04:	8fbf0014 	lw	ra,20(sp)
    1b08:	8fb00010 	lw	s0,16(sp)
    1b0c:	27390000 	addiu	t9,t9,0
			1b0c: R_MIPS_LO16	printk
    1b10:	03200008 	jr	t9
    1b14:	27bd0018 	addiu	sp,sp,24
    1b18:	8e020000 	lw	v0,0(s0)
			1b18: R_MIPS_LO16	debughif
    1b1c:	3c040000 	lui	a0,0x0
			1b1c: R_MIPS_HI16	$LC50
    1b20:	2c420003 	sltiu	v0,v0,3
    1b24:	10400013 	beqz	v0,1b74 <HIFShutDownDevice+0xcc>
    1b28:	24840000 	addiu	a0,a0,0
			1b28: R_MIPS_LO16	$LC50
    1b2c:	3c040000 	lui	a0,0x0
			1b2c: R_MIPS_HI16	FunctionContext
    1b30:	3c020000 	lui	v0,0x0
			1b30: R_MIPS_HI16	SDIO_UnregisterFunction
    1b34:	24420000 	addiu	v0,v0,0
			1b34: R_MIPS_LO16	SDIO_UnregisterFunction
    1b38:	0040f809 	jalr	v0
    1b3c:	24840000 	addiu	a0,a0,0
			1b3c: R_MIPS_LO16	FunctionContext
    1b40:	0441ffe3 	bgez	v0,1ad0 <HIFShutDownDevice+0x28>
    1b44:	8fbf0014 	lw	ra,20(sp)
    1b48:	8e020000 	lw	v0,0(s0)
			1b48: R_MIPS_LO16	debughif
    1b4c:	3c040000 	lui	a0,0x0
			1b4c: R_MIPS_HI16	$LC1
    1b50:	3c050000 	lui	a1,0x0
			1b50: R_MIPS_HI16	$LC2
    1b54:	3c070000 	lui	a3,0x0
			1b54: R_MIPS_HI16	$LC11
    1b58:	24840000 	addiu	a0,a0,0
			1b58: R_MIPS_LO16	$LC1
    1b5c:	24a50000 	addiu	a1,a1,0
			1b5c: R_MIPS_LO16	$LC2
    1b60:	24e70000 	addiu	a3,a3,0
			1b60: R_MIPS_LO16	$LC11
    1b64:	1040ffda 	beqz	v0,1ad0 <HIFShutDownDevice+0x28>
    1b68:	24060199 	li	a2,409
    1b6c:	080006c2 	j	1b08 <HIFShutDownDevice+0x60>
			1b6c: R_MIPS_26	.text
    1b70:	3c190000 	lui	t9,0x0
			1b70: R_MIPS_HI16	printk
    1b74:	3c020000 	lui	v0,0x0
			1b74: R_MIPS_HI16	printk
    1b78:	24420000 	addiu	v0,v0,0
			1b78: R_MIPS_LO16	printk
    1b7c:	0040f809 	jalr	v0
    1b80:	00000000 	nop
    1b84:	080006cc 	j	1b30 <HIFShutDownDevice+0x88>
			1b84: R_MIPS_26	.text
    1b88:	3c040000 	lui	a0,0x0
			1b88: R_MIPS_HI16	FunctionContext

00001b8c <HIFInit>:
    1b8c:	27bdffe8 	addiu	sp,sp,-24
    1b90:	afb00010 	sw	s0,16(sp)
    1b94:	afbf0014 	sw	ra,20(sp)
    1b98:	1080001b 	beqz	a0,1c08 <HIFInit+0x7c>
    1b9c:	00808021 	move	s0,a0
    1ba0:	8e080008 	lw	t0,8(s0)
    1ba4:	8e050014 	lw	a1,20(s0)
    1ba8:	8e070004 	lw	a3,4(s0)
    1bac:	8e09000c 	lw	t1,12(s0)
    1bb0:	8e0a0010 	lw	t2,16(s0)
    1bb4:	3c030000 	lui	v1,0x0
			1bb4: R_MIPS_HI16	osdrvCallbacks
    1bb8:	8e060000 	lw	a2,0(s0)
    1bbc:	24620000 	addiu	v0,v1,0
			1bbc: R_MIPS_LO16	osdrvCallbacks
    1bc0:	ac480008 	sw	t0,8(v0)
    1bc4:	ac450014 	sw	a1,20(v0)
    1bc8:	ac470004 	sw	a3,4(v0)
    1bcc:	ac49000c 	sw	t1,12(v0)
    1bd0:	ac4a0010 	sw	t2,16(v0)
    1bd4:	3c040000 	lui	a0,0x0
			1bd4: R_MIPS_HI16	FunctionContext
    1bd8:	3c020000 	lui	v0,0x0
			1bd8: R_MIPS_HI16	SDIO_RegisterFunction
    1bdc:	24840000 	addiu	a0,a0,0
			1bdc: R_MIPS_LO16	FunctionContext
    1be0:	24420000 	addiu	v0,v0,0
			1be0: R_MIPS_LO16	SDIO_RegisterFunction
    1be4:	0040f809 	jalr	v0
    1be8:	ac660000 	sw	a2,0(v1)
			1be8: R_MIPS_LO16	osdrvCallbacks
    1bec:	04400016 	bltz	v0,1c48 <HIFInit+0xbc>
    1bf0:	00004021 	move	t0,zero
    1bf4:	8fbf0014 	lw	ra,20(sp)
    1bf8:	8fb00010 	lw	s0,16(sp)
    1bfc:	01001021 	move	v0,t0
    1c00:	03e00008 	jr	ra
    1c04:	27bd0018 	addiu	sp,sp,24
    1c08:	3c020000 	lui	v0,0x0
			1c08: R_MIPS_HI16	debughif
    1c0c:	8c430000 	lw	v1,0(v0)
			1c0c: R_MIPS_LO16	debughif
    1c10:	3c050000 	lui	a1,0x0
			1c10: R_MIPS_HI16	$LC2
    1c14:	3c070000 	lui	a3,0x0
			1c14: R_MIPS_HI16	$LC51
    1c18:	3c040000 	lui	a0,0x0
			1c18: R_MIPS_HI16	$LC1
    1c1c:	24a50000 	addiu	a1,a1,0
			1c1c: R_MIPS_LO16	$LC2
    1c20:	24e70000 	addiu	a3,a3,0
			1c20: R_MIPS_LO16	$LC51
    1c24:	24840000 	addiu	a0,a0,0
			1c24: R_MIPS_LO16	$LC1
    1c28:	1060ffdd 	beqz	v1,1ba0 <HIFInit+0x14>
    1c2c:	240600ae 	li	a2,174
    1c30:	3c020000 	lui	v0,0x0
			1c30: R_MIPS_HI16	printk
    1c34:	24420000 	addiu	v0,v0,0
			1c34: R_MIPS_LO16	printk
    1c38:	0040f809 	jalr	v0
    1c3c:	00000000 	nop
    1c40:	080006e9 	j	1ba4 <HIFInit+0x18>
			1c40: R_MIPS_26	.text
    1c44:	8e080008 	lw	t0,8(s0)
    1c48:	3c020000 	lui	v0,0x0
			1c48: R_MIPS_HI16	debughif
    1c4c:	8c430000 	lw	v1,0(v0)
			1c4c: R_MIPS_LO16	debughif
    1c50:	3c040000 	lui	a0,0x0
			1c50: R_MIPS_HI16	$LC1
    1c54:	3c050000 	lui	a1,0x0
			1c54: R_MIPS_HI16	$LC2
    1c58:	3c070000 	lui	a3,0x0
			1c58: R_MIPS_HI16	$LC11
    1c5c:	24840000 	addiu	a0,a0,0
			1c5c: R_MIPS_LO16	$LC1
    1c60:	24a50000 	addiu	a1,a1,0
			1c60: R_MIPS_LO16	$LC2
    1c64:	24e70000 	addiu	a3,a3,0
			1c64: R_MIPS_LO16	$LC11
    1c68:	2408ffff 	li	t0,-1
    1c6c:	1060ffe1 	beqz	v1,1bf4 <HIFInit+0x68>
    1c70:	240600b5 	li	a2,181
    1c74:	3c020000 	lui	v0,0x0
			1c74: R_MIPS_HI16	printk
    1c78:	24420000 	addiu	v0,v0,0
			1c78: R_MIPS_LO16	printk
    1c7c:	0040f809 	jalr	v0
    1c80:	00000000 	nop
    1c84:	080006fd 	j	1bf4 <HIFInit+0x68>
			1c84: R_MIPS_26	.text
    1c88:	2408ffff 	li	t0,-1
    1c8c:	00000000 	nop

00001c90 <DevDumpRegisters>:
    1c90:	27bdffd8 	addiu	sp,sp,-40
    1c94:	afb20018 	sw	s2,24(sp)
    1c98:	afb10014 	sw	s1,20(sp)
    1c9c:	afb00010 	sw	s0,16(sp)
    1ca0:	afbf0020 	sw	ra,32(sp)
    1ca4:	afb3001c 	sw	s3,28(sp)
    1ca8:	3c110000 	lui	s1,0x0
			1ca8: R_MIPS_HI16	debughtc
    1cac:	8e220000 	lw	v0,0(s1)
			1cac: R_MIPS_LO16	debughtc
    1cb0:	00808021 	move	s0,a0
    1cb4:	30420008 	andi	v0,v0,0x8
    1cb8:	14400012 	bnez	v0,1d04 <DevDumpRegisters+0x74>
    1cbc:	00a09021 	move	s2,a1
    1cc0:	12000004 	beqz	s0,1cd4 <DevDumpRegisters+0x44>
    1cc4:	8e220000 	lw	v0,0(s1)
			1cc4: R_MIPS_LO16	debughtc
    1cc8:	30420008 	andi	v0,v0,0x8
    1ccc:	14400014 	bnez	v0,1d20 <DevDumpRegisters+0x90>
    1cd0:	3c020000 	lui	v0,0x0
			1cd0: R_MIPS_HI16	printk
    1cd4:	12400004 	beqz	s2,1ce8 <DevDumpRegisters+0x58>
    1cd8:	8e220000 	lw	v0,0(s1)
			1cd8: R_MIPS_LO16	debughtc
    1cdc:	30420008 	andi	v0,v0,0x8
    1ce0:	14400049 	bnez	v0,1e08 <DevDumpRegisters+0x178>
    1ce4:	3c110000 	lui	s1,0x0
			1ce4: R_MIPS_HI16	debughtc
    1ce8:	8fbf0020 	lw	ra,32(sp)
    1cec:	8fb3001c 	lw	s3,28(sp)
    1cf0:	8fb20018 	lw	s2,24(sp)
    1cf4:	8fb10014 	lw	s1,20(sp)
    1cf8:	8fb00010 	lw	s0,16(sp)
    1cfc:	03e00008 	jr	ra
    1d00:	27bd0028 	addiu	sp,sp,40
    1d04:	3c040000 	lui	a0,0x0
			1d04: R_MIPS_HI16	$LC0
    1d08:	3c020000 	lui	v0,0x0
			1d08: R_MIPS_HI16	printk
    1d0c:	24420000 	addiu	v0,v0,0
			1d0c: R_MIPS_LO16	printk
    1d10:	0040f809 	jalr	v0
    1d14:	24840000 	addiu	a0,a0,0
			1d14: R_MIPS_LO16	$LC0
    1d18:	08000730 	j	1cc0 <DevDumpRegisters+0x30>
			1d18: R_MIPS_26	.text
    1d1c:	00000000 	nop
    1d20:	92050000 	lbu	a1,0(s0)
    1d24:	3c040000 	lui	a0,0x0
			1d24: R_MIPS_HI16	$LC1
    1d28:	24530000 	addiu	s3,v0,0
			1d28: R_MIPS_LO16	printk
    1d2c:	0260f809 	jalr	s3
    1d30:	24840000 	addiu	a0,a0,0
			1d30: R_MIPS_LO16	$LC1
    1d34:	8e230000 	lw	v1,0(s1)
			1d34: R_MIPS_LO16	debughtc
    1d38:	30630008 	andi	v1,v1,0x8
    1d3c:	1060ffe5 	beqz	v1,1cd4 <DevDumpRegisters+0x44>
    1d40:	3c040000 	lui	a0,0x0
			1d40: R_MIPS_HI16	$LC2
    1d44:	92050001 	lbu	a1,1(s0)
    1d48:	0260f809 	jalr	s3
    1d4c:	24840000 	addiu	a0,a0,0
			1d4c: R_MIPS_LO16	$LC2
    1d50:	8e230000 	lw	v1,0(s1)
			1d50: R_MIPS_LO16	debughtc
    1d54:	30630008 	andi	v1,v1,0x8
    1d58:	1060ffde 	beqz	v1,1cd4 <DevDumpRegisters+0x44>
    1d5c:	3c040000 	lui	a0,0x0
			1d5c: R_MIPS_HI16	$LC3
    1d60:	92050002 	lbu	a1,2(s0)
    1d64:	0260f809 	jalr	s3
    1d68:	24840000 	addiu	a0,a0,0
			1d68: R_MIPS_LO16	$LC3
    1d6c:	8e230000 	lw	v1,0(s1)
			1d6c: R_MIPS_LO16	debughtc
    1d70:	30630008 	andi	v1,v1,0x8
    1d74:	1060ffd7 	beqz	v1,1cd4 <DevDumpRegisters+0x44>
    1d78:	3c040000 	lui	a0,0x0
			1d78: R_MIPS_HI16	$LC4
    1d7c:	92050003 	lbu	a1,3(s0)
    1d80:	0260f809 	jalr	s3
    1d84:	24840000 	addiu	a0,a0,0
			1d84: R_MIPS_LO16	$LC4
    1d88:	8e230000 	lw	v1,0(s1)
			1d88: R_MIPS_LO16	debughtc
    1d8c:	30630008 	andi	v1,v1,0x8
    1d90:	1060ffd0 	beqz	v1,1cd4 <DevDumpRegisters+0x44>
    1d94:	3c040000 	lui	a0,0x0
			1d94: R_MIPS_HI16	$LC5
    1d98:	92050004 	lbu	a1,4(s0)
    1d9c:	0260f809 	jalr	s3
    1da0:	24840000 	addiu	a0,a0,0
			1da0: R_MIPS_LO16	$LC5
    1da4:	8e230000 	lw	v1,0(s1)
			1da4: R_MIPS_LO16	debughtc
    1da8:	30630008 	andi	v1,v1,0x8
    1dac:	1060ffc9 	beqz	v1,1cd4 <DevDumpRegisters+0x44>
    1db0:	3c040000 	lui	a0,0x0
			1db0: R_MIPS_HI16	$LC6
    1db4:	92050005 	lbu	a1,5(s0)
    1db8:	0260f809 	jalr	s3
    1dbc:	24840000 	addiu	a0,a0,0
			1dbc: R_MIPS_LO16	$LC6
    1dc0:	8e230000 	lw	v1,0(s1)
			1dc0: R_MIPS_LO16	debughtc
    1dc4:	30630008 	andi	v1,v1,0x8
    1dc8:	1060ffc2 	beqz	v1,1cd4 <DevDumpRegisters+0x44>
    1dcc:	3c040000 	lui	a0,0x0
			1dcc: R_MIPS_HI16	$LC7
    1dd0:	8a05000b 	lwl	a1,11(s0)
    1dd4:	9a050008 	lwr	a1,8(s0)
    1dd8:	0260f809 	jalr	s3
    1ddc:	24840000 	addiu	a0,a0,0
			1ddc: R_MIPS_LO16	$LC7
    1de0:	8e230000 	lw	v1,0(s1)
			1de0: R_MIPS_LO16	debughtc
    1de4:	30630008 	andi	v1,v1,0x8
    1de8:	1060ffba 	beqz	v1,1cd4 <DevDumpRegisters+0x44>
    1dec:	3c040000 	lui	a0,0x0
			1dec: R_MIPS_HI16	$LC8
    1df0:	8a05000f 	lwl	a1,15(s0)
    1df4:	9a05000c 	lwr	a1,12(s0)
    1df8:	0260f809 	jalr	s3
    1dfc:	24840000 	addiu	a0,a0,0
			1dfc: R_MIPS_LO16	$LC8
    1e00:	08000735 	j	1cd4 <DevDumpRegisters+0x44>
			1e00: R_MIPS_26	.text
    1e04:	00000000 	nop
    1e08:	3c020000 	lui	v0,0x0
			1e08: R_MIPS_HI16	printk
    1e0c:	92450000 	lbu	a1,0(s2)
    1e10:	3c040000 	lui	a0,0x0
			1e10: R_MIPS_HI16	$LC9
    1e14:	24500000 	addiu	s0,v0,0
			1e14: R_MIPS_LO16	printk
    1e18:	0200f809 	jalr	s0
    1e1c:	24840000 	addiu	a0,a0,0
			1e1c: R_MIPS_LO16	$LC9
    1e20:	8e230000 	lw	v1,0(s1)
			1e20: R_MIPS_LO16	debughtc
    1e24:	30630008 	andi	v1,v1,0x8
    1e28:	1060ffb0 	beqz	v1,1cec <DevDumpRegisters+0x5c>
    1e2c:	8fbf0020 	lw	ra,32(sp)
    1e30:	92450003 	lbu	a1,3(s2)
    1e34:	3c040000 	lui	a0,0x0
			1e34: R_MIPS_HI16	$LC10
    1e38:	0200f809 	jalr	s0
    1e3c:	24840000 	addiu	a0,a0,0
			1e3c: R_MIPS_LO16	$LC10
    1e40:	8e230000 	lw	v1,0(s1)
			1e40: R_MIPS_LO16	debughtc
    1e44:	30630008 	andi	v1,v1,0x8
    1e48:	1060ffa7 	beqz	v1,1ce8 <DevDumpRegisters+0x58>
    1e4c:	3c040000 	lui	a0,0x0
			1e4c: R_MIPS_HI16	$LC11
    1e50:	0200c821 	move	t9,s0
    1e54:	8fbf0020 	lw	ra,32(sp)
    1e58:	8fb3001c 	lw	s3,28(sp)
    1e5c:	8fb20018 	lw	s2,24(sp)
    1e60:	8fb10014 	lw	s1,20(sp)
    1e64:	8fb00010 	lw	s0,16(sp)
    1e68:	24840000 	addiu	a0,a0,0
			1e68: R_MIPS_LO16	$LC11
    1e6c:	03200008 	jr	t9
    1e70:	27bd0028 	addiu	sp,sp,40

00001e74 <AR6KAllocIOPacket>:
    1e74:	27bdffe0 	addiu	sp,sp,-32
    1e78:	3c020000 	lui	v0,0x0
			1e78: R_MIPS_HI16	local_bh_disable
    1e7c:	afb00010 	sw	s0,16(sp)
    1e80:	afbf0018 	sw	ra,24(sp)
    1e84:	afb10014 	sw	s1,20(sp)
    1e88:	24420000 	addiu	v0,v0,0
			1e88: R_MIPS_LO16	local_bh_disable
    1e8c:	0040f809 	jalr	v0
    1e90:	00808021 	move	s0,a0
    1e94:	8f820014 	lw	v0,20(gp)
    1e98:	24420001 	addiu	v0,v0,1
    1e9c:	af820014 	sw	v0,20(gp)
    1ea0:	2610002c 	addiu	s0,s0,44
    1ea4:	8e050004 	lw	a1,4(s0)
    1ea8:	12050009 	beq	s0,a1,1ed0 <AR6KAllocIOPacket+0x5c>
    1eac:	00008821 	move	s1,zero
    1eb0:	8ca20004 	lw	v0,4(a1)
    1eb4:	8ca30000 	lw	v1,0(a1)
    1eb8:	00a08821 	move	s1,a1
    1ebc:	ac430000 	sw	v1,0(v0)
    1ec0:	8ca40000 	lw	a0,0(a1)
    1ec4:	aca50000 	sw	a1,0(a1)
    1ec8:	ac820004 	sw	v0,4(a0)
    1ecc:	aca50004 	sw	a1,4(a1)
    1ed0:	8f830014 	lw	v1,20(gp)
    1ed4:	3c040000 	lui	a0,0x0
			1ed4: R_MIPS_HI16	local_bh_enable
    1ed8:	2463ffff 	addiu	v1,v1,-1
    1edc:	24840000 	addiu	a0,a0,0
			1edc: R_MIPS_LO16	local_bh_enable
    1ee0:	0080f809 	jalr	a0
    1ee4:	af830014 	sw	v1,20(gp)
    1ee8:	02201021 	move	v0,s1
    1eec:	8fbf0018 	lw	ra,24(sp)
    1ef0:	8fb10014 	lw	s1,20(sp)
    1ef4:	8fb00010 	lw	s0,16(sp)
    1ef8:	03e00008 	jr	ra
    1efc:	27bd0020 	addiu	sp,sp,32

00001f00 <AR6KFreeIOPacket>:
    1f00:	27bdffe0 	addiu	sp,sp,-32
    1f04:	3c020000 	lui	v0,0x0
			1f04: R_MIPS_HI16	local_bh_disable
    1f08:	afb10014 	sw	s1,20(sp)
    1f0c:	afb00010 	sw	s0,16(sp)
    1f10:	afbf0018 	sw	ra,24(sp)
    1f14:	24420000 	addiu	v0,v0,0
			1f14: R_MIPS_LO16	local_bh_disable
    1f18:	00808021 	move	s0,a0
    1f1c:	0040f809 	jalr	v0
    1f20:	00a08821 	move	s1,a1
    1f24:	8f820014 	lw	v0,20(gp)
    1f28:	24420001 	addiu	v0,v0,1
    1f2c:	af820014 	sw	v0,20(gp)
    1f30:	8e02002c 	lw	v0,44(s0)
    1f34:	2604002c 	addiu	a0,s0,44
    1f38:	ae220000 	sw	v0,0(s1)
    1f3c:	8e03002c 	lw	v1,44(s0)
    1f40:	ae240004 	sw	a0,4(s1)
    1f44:	ae11002c 	sw	s1,44(s0)
    1f48:	ac710004 	sw	s1,4(v1)
    1f4c:	8f820014 	lw	v0,20(gp)
    1f50:	3c190000 	lui	t9,0x0
			1f50: R_MIPS_HI16	local_bh_enable
    1f54:	2442ffff 	addiu	v0,v0,-1
    1f58:	af820014 	sw	v0,20(gp)
    1f5c:	8fbf0018 	lw	ra,24(sp)
    1f60:	8fb10014 	lw	s1,20(sp)
    1f64:	8fb00010 	lw	s0,16(sp)
    1f68:	27390000 	addiu	t9,t9,0
			1f68: R_MIPS_LO16	local_bh_enable
    1f6c:	03200008 	jr	t9
    1f70:	27bd0020 	addiu	sp,sp,32

00001f74 <DevDoEnableDisableRecvOverride>:
    1f74:	27bdffd8 	addiu	sp,sp,-40
    1f78:	afb3001c 	sw	s3,28(sp)
    1f7c:	afb20018 	sw	s2,24(sp)
    1f80:	afb10014 	sw	s1,20(sp)
    1f84:	afb00010 	sw	s0,16(sp)
    1f88:	afbf0020 	sw	ra,32(sp)
    1f8c:	3c120000 	lui	s2,0x0
			1f8c: R_MIPS_HI16	debughtc
    1f90:	8e420000 	lw	v0,0(s2)
			1f90: R_MIPS_LO16	debughtc
    1f94:	00808821 	move	s1,a0
    1f98:	30420020 	andi	v0,v0,0x20
    1f9c:	00a09821 	move	s3,a1
    1fa0:	1440002a 	bnez	v0,204c <DevDoEnableDisableRecvOverride+0xd8>
    1fa4:	00c08021 	move	s0,a2
    1fa8:	12000021 	beqz	s0,2030 <DevDoEnableDisableRecvOverride+0xbc>
    1fac:	2e650001 	sltiu	a1,s3,1
    1fb0:	3c020000 	lui	v0,0x0
			1fb0: R_MIPS_HI16	AR6KAllocIOPacket
    1fb4:	24420000 	addiu	v0,v0,0
			1fb4: R_MIPS_LO16	AR6KAllocIOPacket
    1fb8:	0040f809 	jalr	v0
    1fbc:	02202021 	move	a0,s1
    1fc0:	10400029 	beqz	v0,2068 <DevDoEnableDisableRecvOverride+0xf4>
    1fc4:	00408021 	move	s0,v0
    1fc8:	3c020000 	lui	v0,0x0
			1fc8: R_MIPS_HI16	.text
    1fcc:	244220c8 	addiu	v0,v0,8392
			1fcc: R_MIPS_LO16	.text
    1fd0:	ae020028 	sw	v0,40(s0)
    1fd4:	ae11002c 	sw	s1,44(s0)
    1fd8:	8e2202e0 	lw	v0,736(s1)
    1fdc:	8e240014 	lw	a0,20(s1)
    1fe0:	2e650001 	sltiu	a1,s3,1
    1fe4:	0040f809 	jalr	v0
    1fe8:	02003021 	move	a2,s0
    1fec:	00409021 	move	s2,v0
    1ff0:	12400008 	beqz	s2,2014 <DevDoEnableDisableRecvOverride+0xa0>
    1ff4:	02401021 	move	v0,s2
    1ff8:	12000005 	beqz	s0,2010 <DevDoEnableDisableRecvOverride+0x9c>
    1ffc:	3c020000 	lui	v0,0x0
			1ffc: R_MIPS_HI16	AR6KFreeIOPacket
    2000:	02202021 	move	a0,s1
    2004:	24420000 	addiu	v0,v0,0
			2004: R_MIPS_LO16	AR6KFreeIOPacket
    2008:	0040f809 	jalr	v0
    200c:	02002821 	move	a1,s0
    2010:	02401021 	move	v0,s2
    2014:	8fbf0020 	lw	ra,32(sp)
    2018:	8fb3001c 	lw	s3,28(sp)
    201c:	8fb20018 	lw	s2,24(sp)
    2020:	8fb10014 	lw	s1,20(sp)
    2024:	8fb00010 	lw	s0,16(sp)
    2028:	03e00008 	jr	ra
    202c:	27bd0028 	addiu	sp,sp,40
    2030:	8e2202e0 	lw	v0,736(s1)
    2034:	8e240014 	lw	a0,20(s1)
    2038:	0040f809 	jalr	v0
    203c:	00003021 	move	a2,zero
    2040:	00409021 	move	s2,v0
    2044:	080007fc 	j	1ff0 <DevDoEnableDisableRecvOverride+0x7c>
			2044: R_MIPS_26	.text
    2048:	00008021 	move	s0,zero
    204c:	3c040000 	lui	a0,0x0
			204c: R_MIPS_HI16	$LC12
    2050:	3c020000 	lui	v0,0x0
			2050: R_MIPS_HI16	printk
    2054:	24420000 	addiu	v0,v0,0
			2054: R_MIPS_LO16	printk
    2058:	0040f809 	jalr	v0
    205c:	24840000 	addiu	a0,a0,0
			205c: R_MIPS_LO16	$LC12
    2060:	080007ea 	j	1fa8 <DevDoEnableDisableRecvOverride+0x34>
			2060: R_MIPS_26	.text
    2064:	00000000 	nop
    2068:	8e420000 	lw	v0,0(s2)
			2068: R_MIPS_LO16	debughtc
    206c:	30420080 	andi	v0,v0,0x80
    2070:	1440000a 	bnez	v0,209c <DevDoEnableDisableRecvOverride+0x128>
    2074:	3c040000 	lui	a0,0x0
			2074: R_MIPS_HI16	$LC13
    2078:	24120002 	li	s2,2
    207c:	02401021 	move	v0,s2
    2080:	8fbf0020 	lw	ra,32(sp)
    2084:	8fb3001c 	lw	s3,28(sp)
    2088:	8fb20018 	lw	s2,24(sp)
    208c:	8fb10014 	lw	s1,20(sp)
    2090:	8fb00010 	lw	s0,16(sp)
    2094:	03e00008 	jr	ra
    2098:	27bd0028 	addiu	sp,sp,40
    209c:	3c050000 	lui	a1,0x0
			209c: R_MIPS_HI16	$LC14
    20a0:	3c070000 	lui	a3,0x0
			20a0: R_MIPS_HI16	$LC15
    20a4:	3c020000 	lui	v0,0x0
			20a4: R_MIPS_HI16	printk
    20a8:	24840000 	addiu	a0,a0,0
			20a8: R_MIPS_LO16	$LC13
    20ac:	24a50000 	addiu	a1,a1,0
			20ac: R_MIPS_LO16	$LC14
    20b0:	24e70000 	addiu	a3,a3,0
			20b0: R_MIPS_LO16	$LC15
    20b4:	24420000 	addiu	v0,v0,0
			20b4: R_MIPS_LO16	printk
    20b8:	0040f809 	jalr	v0
    20bc:	24060169 	li	a2,361
    20c0:	0800081f 	j	207c <DevDoEnableDisableRecvOverride+0x108>
			20c0: R_MIPS_26	.text
    20c4:	24120002 	li	s2,2

000020c8 <DevDoEnableDisableRecvAsyncHandler>:
    20c8:	27bdffe0 	addiu	sp,sp,-32
    20cc:	afb20018 	sw	s2,24(sp)
    20d0:	afb10014 	sw	s1,20(sp)
    20d4:	afb00010 	sw	s0,16(sp)
    20d8:	afbf001c 	sw	ra,28(sp)
    20dc:	3c120000 	lui	s2,0x0
			20dc: R_MIPS_HI16	debughtc
    20e0:	8e420000 	lw	v0,0(s2)
			20e0: R_MIPS_LO16	debughtc
    20e4:	00808821 	move	s1,a0
    20e8:	30420010 	andi	v0,v0,0x10
    20ec:	3c040000 	lui	a0,0x0
			20ec: R_MIPS_HI16	$LC16
    20f0:	00a08021 	move	s0,a1
    20f4:	24840000 	addiu	a0,a0,0
			20f4: R_MIPS_LO16	$LC16
    20f8:	14400021 	bnez	v0,2180 <DevDoEnableDisableRecvAsyncHandler+0xb8>
    20fc:	02202821 	move	a1,s1
    2100:	8e050020 	lw	a1,32(s0)
    2104:	10a00007 	beqz	a1,2124 <DevDoEnableDisableRecvAsyncHandler+0x5c>
    2108:	3c020000 	lui	v0,0x0
			2108: R_MIPS_HI16	AR6KFreeIOPacket
    210c:	8e420000 	lw	v0,0(s2)
			210c: R_MIPS_LO16	debughtc
    2110:	3c040000 	lui	a0,0x0
			2110: R_MIPS_HI16	$LC17
    2114:	30420080 	andi	v0,v0,0x80
    2118:	1440001f 	bnez	v0,2198 <DevDoEnableDisableRecvAsyncHandler+0xd0>
    211c:	24840000 	addiu	a0,a0,0
			211c: R_MIPS_LO16	$LC17
    2120:	3c020000 	lui	v0,0x0
			2120: R_MIPS_HI16	AR6KFreeIOPacket
    2124:	02202021 	move	a0,s1
    2128:	24420000 	addiu	v0,v0,0
			2128: R_MIPS_LO16	AR6KFreeIOPacket
    212c:	0040f809 	jalr	v0
    2130:	02002821 	move	a1,s0
    2134:	8e430000 	lw	v1,0(s2)
			2134: R_MIPS_LO16	debughtc
    2138:	3c040000 	lui	a0,0x0
			2138: R_MIPS_HI16	$LC18
    213c:	30630010 	andi	v1,v1,0x10
    2140:	14600007 	bnez	v1,2160 <DevDoEnableDisableRecvAsyncHandler+0x98>
    2144:	24840000 	addiu	a0,a0,0
			2144: R_MIPS_LO16	$LC18
    2148:	8fbf001c 	lw	ra,28(sp)
    214c:	8fb20018 	lw	s2,24(sp)
    2150:	8fb10014 	lw	s1,20(sp)
    2154:	8fb00010 	lw	s0,16(sp)
    2158:	03e00008 	jr	ra
    215c:	27bd0020 	addiu	sp,sp,32
    2160:	3c190000 	lui	t9,0x0
			2160: R_MIPS_HI16	printk
    2164:	8fbf001c 	lw	ra,28(sp)
    2168:	8fb20018 	lw	s2,24(sp)
    216c:	8fb10014 	lw	s1,20(sp)
    2170:	8fb00010 	lw	s0,16(sp)
    2174:	27390000 	addiu	t9,t9,0
			2174: R_MIPS_LO16	printk
    2178:	03200008 	jr	t9
    217c:	27bd0020 	addiu	sp,sp,32
    2180:	3c020000 	lui	v0,0x0
			2180: R_MIPS_HI16	printk
    2184:	24420000 	addiu	v0,v0,0
			2184: R_MIPS_LO16	printk
    2188:	0040f809 	jalr	v0
    218c:	00000000 	nop
    2190:	08000841 	j	2104 <DevDoEnableDisableRecvAsyncHandler+0x3c>
			2190: R_MIPS_26	.text
    2194:	8e050020 	lw	a1,32(s0)
    2198:	3c020000 	lui	v0,0x0
			2198: R_MIPS_HI16	printk
    219c:	24420000 	addiu	v0,v0,0
			219c: R_MIPS_LO16	printk
    21a0:	0040f809 	jalr	v0
    21a4:	00000000 	nop
    21a8:	08000849 	j	2124 <DevDoEnableDisableRecvAsyncHandler+0x5c>
			21a8: R_MIPS_26	.text
    21ac:	3c020000 	lui	v0,0x0
			21ac: R_MIPS_HI16	AR6KFreeIOPacket

000021b0 <DevDoEnableDisableRecvNormal>:
    21b0:	27bdffc8 	addiu	sp,sp,-56
    21b4:	3c020000 	lui	v0,0x0
			21b4: R_MIPS_HI16	local_bh_disable
    21b8:	afb40030 	sw	s4,48(sp)
    21bc:	afb10024 	sw	s1,36(sp)
    21c0:	afb00020 	sw	s0,32(sp)
    21c4:	afbf0034 	sw	ra,52(sp)
    21c8:	afb3002c 	sw	s3,44(sp)
    21cc:	afb20028 	sw	s2,40(sp)
    21d0:	24420000 	addiu	v0,v0,0
			21d0: R_MIPS_LO16	local_bh_disable
    21d4:	00808821 	move	s1,a0
    21d8:	00a08021 	move	s0,a1
    21dc:	0040f809 	jalr	v0
    21e0:	00c0a021 	move	s4,a2
    21e4:	8f820014 	lw	v0,20(gp)
    21e8:	24420001 	addiu	v0,v0,1
    21ec:	12000034 	beqz	s0,22c0 <DevDoEnableDisableRecvNormal+0x110>
    21f0:	af820014 	sw	v0,20(gp)
    21f4:	92220010 	lbu	v0,16(s1)
    21f8:	34420001 	ori	v0,v0,0x1
    21fc:	a2220010 	sb	v0,16(s1)
    2200:	27b20018 	addiu	s2,sp,24
    2204:	3c020000 	lui	v0,0x0
			2204: R_MIPS_HI16	memcpy
    2208:	24530000 	addiu	s3,v0,0
			2208: R_MIPS_LO16	memcpy
    220c:	02402021 	move	a0,s2
    2210:	26250010 	addiu	a1,s1,16
    2214:	0260f809 	jalr	s3
    2218:	24060004 	li	a2,4
    221c:	8f820014 	lw	v0,20(gp)
    2220:	3c030000 	lui	v1,0x0
			2220: R_MIPS_HI16	local_bh_enable
    2224:	2442ffff 	addiu	v0,v0,-1
    2228:	24630000 	addiu	v1,v1,0
			2228: R_MIPS_LO16	local_bh_enable
    222c:	0060f809 	jalr	v1
    2230:	af820014 	sw	v0,20(gp)
    2234:	12800026 	beqz	s4,22d0 <DevDoEnableDisableRecvNormal+0x120>
    2238:	2402025a 	li	v0,602
    223c:	3c020000 	lui	v0,0x0
			223c: R_MIPS_HI16	AR6KAllocIOPacket
    2240:	24420000 	addiu	v0,v0,0
			2240: R_MIPS_LO16	AR6KAllocIOPacket
    2244:	0040f809 	jalr	v0
    2248:	02202021 	move	a0,s1
    224c:	10400031 	beqz	v0,2314 <DevDoEnableDisableRecvNormal+0x164>
    2250:	00408021 	move	s0,v0
    2254:	8c440010 	lw	a0,16(v0)
    2258:	02402821 	move	a1,s2
    225c:	0260f809 	jalr	s3
    2260:	24060004 	li	a2,4
    2264:	3c030000 	lui	v1,0x0
			2264: R_MIPS_HI16	.text
    2268:	246320c8 	addiu	v1,v1,8392
			2268: R_MIPS_LO16	.text
    226c:	ae11002c 	sw	s1,44(s0)
    2270:	ae030028 	sw	v1,40(s0)
    2274:	2402026a 	li	v0,618
    2278:	8e240014 	lw	a0,20(s1)
    227c:	8e060010 	lw	a2,16(s0)
    2280:	afa20010 	sw	v0,16(sp)
    2284:	3c020000 	lui	v0,0x0
			2284: R_MIPS_HI16	HIFReadWrite
    2288:	afb00014 	sw	s0,20(sp)
    228c:	24050418 	li	a1,1048
    2290:	24420000 	addiu	v0,v0,0
			2290: R_MIPS_LO16	HIFReadWrite
    2294:	0040f809 	jalr	v0
    2298:	24070004 	li	a3,4
    229c:	8fbf0034 	lw	ra,52(sp)
    22a0:	8fb40030 	lw	s4,48(sp)
    22a4:	8fb3002c 	lw	s3,44(sp)
    22a8:	8fb20028 	lw	s2,40(sp)
    22ac:	8fb10024 	lw	s1,36(sp)
    22b0:	8fb00020 	lw	s0,32(sp)
    22b4:	00001021 	move	v0,zero
    22b8:	03e00008 	jr	ra
    22bc:	27bd0038 	addiu	sp,sp,56
    22c0:	92220010 	lbu	v0,16(s1)
    22c4:	304200fe 	andi	v0,v0,0xfe
    22c8:	08000880 	j	2200 <DevDoEnableDisableRecvNormal+0x50>
			22c8: R_MIPS_26	.text
    22cc:	a2220010 	sb	v0,16(s1)
    22d0:	8e240014 	lw	a0,20(s1)
    22d4:	afa20010 	sw	v0,16(sp)
    22d8:	3c020000 	lui	v0,0x0
			22d8: R_MIPS_HI16	HIFReadWrite
    22dc:	02403021 	move	a2,s2
    22e0:	afa00014 	sw	zero,20(sp)
    22e4:	24050418 	li	a1,1048
    22e8:	24420000 	addiu	v0,v0,0
			22e8: R_MIPS_LO16	HIFReadWrite
    22ec:	0040f809 	jalr	v0
    22f0:	24070004 	li	a3,4
    22f4:	8fbf0034 	lw	ra,52(sp)
    22f8:	8fb40030 	lw	s4,48(sp)
    22fc:	8fb3002c 	lw	s3,44(sp)
    2300:	8fb20028 	lw	s2,40(sp)
    2304:	8fb10024 	lw	s1,36(sp)
    2308:	8fb00020 	lw	s0,32(sp)
    230c:	03e00008 	jr	ra
    2310:	27bd0038 	addiu	sp,sp,56
    2314:	3c030000 	lui	v1,0x0
			2314: R_MIPS_HI16	debughtc
    2318:	8c620000 	lw	v0,0(v1)
			2318: R_MIPS_LO16	debughtc
    231c:	30420080 	andi	v0,v0,0x80
    2320:	1440000a 	bnez	v0,234c <DevDoEnableDisableRecvNormal+0x19c>
    2324:	3c040000 	lui	a0,0x0
			2324: R_MIPS_HI16	$LC13
    2328:	24020002 	li	v0,2
    232c:	8fbf0034 	lw	ra,52(sp)
    2330:	8fb40030 	lw	s4,48(sp)
    2334:	8fb3002c 	lw	s3,44(sp)
    2338:	8fb20028 	lw	s2,40(sp)
    233c:	8fb10024 	lw	s1,36(sp)
    2340:	8fb00020 	lw	s0,32(sp)
    2344:	03e00008 	jr	ra
    2348:	27bd0038 	addiu	sp,sp,56
    234c:	3c050000 	lui	a1,0x0
			234c: R_MIPS_HI16	$LC14
    2350:	3c070000 	lui	a3,0x0
			2350: R_MIPS_HI16	$LC15
    2354:	3c020000 	lui	v0,0x0
			2354: R_MIPS_HI16	printk
    2358:	24840000 	addiu	a0,a0,0
			2358: R_MIPS_LO16	$LC13
    235c:	24a50000 	addiu	a1,a1,0
			235c: R_MIPS_LO16	$LC14
    2360:	24e70000 	addiu	a3,a3,0
			2360: R_MIPS_LO16	$LC15
    2364:	24420000 	addiu	v0,v0,0
			2364: R_MIPS_LO16	printk
    2368:	0040f809 	jalr	v0
    236c:	240601a4 	li	a2,420
    2370:	080008cb 	j	232c <DevDoEnableDisableRecvNormal+0x17c>
			2370: R_MIPS_26	.text
    2374:	24020002 	li	v0,2

00002378 <DevEnableRecv>:
    2378:	8c8202e0 	lw	v0,736(a0)
    237c:	00a01821 	move	v1,a1
    2380:	00a03021 	move	a2,a1
    2384:	10400006 	beqz	v0,23a0 <DevEnableRecv+0x28>
    2388:	24050001 	li	a1,1
    238c:	3c190000 	lui	t9,0x0
			238c: R_MIPS_HI16	.text
    2390:	00603021 	move	a2,v1
    2394:	27391f74 	addiu	t9,t9,8052
			2394: R_MIPS_LO16	.text
    2398:	03200008 	jr	t9
    239c:	24050001 	li	a1,1
    23a0:	3c190000 	lui	t9,0x0
			23a0: R_MIPS_HI16	.text
    23a4:	273921b0 	addiu	t9,t9,8624
			23a4: R_MIPS_LO16	.text
    23a8:	03200008 	jr	t9
    23ac:	00000000 	nop

000023b0 <DevStopRecv>:
    23b0:	8c8202e0 	lw	v0,736(a0)
    23b4:	00a01821 	move	v1,a1
    23b8:	00a03021 	move	a2,a1
    23bc:	10400006 	beqz	v0,23d8 <DevStopRecv+0x28>
    23c0:	00002821 	move	a1,zero
    23c4:	3c190000 	lui	t9,0x0
			23c4: R_MIPS_HI16	.text
    23c8:	00603021 	move	a2,v1
    23cc:	27391f74 	addiu	t9,t9,8052
			23cc: R_MIPS_LO16	.text
    23d0:	03200008 	jr	t9
    23d4:	00002821 	move	a1,zero
    23d8:	3c190000 	lui	t9,0x0
			23d8: R_MIPS_HI16	.text
    23dc:	273921b0 	addiu	t9,t9,8624
			23dc: R_MIPS_LO16	.text
    23e0:	03200008 	jr	t9
    23e4:	00000000 	nop

000023e8 <DevDisableInterrupts>:
    23e8:	27bdffd0 	addiu	sp,sp,-48
    23ec:	3c020000 	lui	v0,0x0
			23ec: R_MIPS_HI16	local_bh_disable
    23f0:	afb00020 	sw	s0,32(sp)
    23f4:	afbf0028 	sw	ra,40(sp)
    23f8:	afb10024 	sw	s1,36(sp)
    23fc:	24420000 	addiu	v0,v0,0
			23fc: R_MIPS_LO16	local_bh_disable
    2400:	0040f809 	jalr	v0
    2404:	00808021 	move	s0,a0
    2408:	8f820014 	lw	v0,20(gp)
    240c:	24420001 	addiu	v0,v0,1
    2410:	af820014 	sw	v0,20(gp)
    2414:	3c020000 	lui	v0,0x0
			2414: R_MIPS_HI16	memcpy
    2418:	27b10018 	addiu	s1,sp,24
    241c:	a2000010 	sb	zero,16(s0)
    2420:	a2000011 	sb	zero,17(s0)
    2424:	a2000012 	sb	zero,18(s0)
    2428:	a2000013 	sb	zero,19(s0)
    242c:	02202021 	move	a0,s1
    2430:	26050010 	addiu	a1,s0,16
    2434:	24420000 	addiu	v0,v0,0
			2434: R_MIPS_LO16	memcpy
    2438:	0040f809 	jalr	v0
    243c:	24060004 	li	a2,4
    2440:	8f820014 	lw	v0,20(gp)
    2444:	3c030000 	lui	v1,0x0
			2444: R_MIPS_HI16	local_bh_enable
    2448:	2442ffff 	addiu	v0,v0,-1
    244c:	24630000 	addiu	v1,v1,0
			244c: R_MIPS_LO16	local_bh_enable
    2450:	0060f809 	jalr	v1
    2454:	af820014 	sw	v0,20(gp)
    2458:	2402025a 	li	v0,602
    245c:	8e040014 	lw	a0,20(s0)
    2460:	afa20010 	sw	v0,16(sp)
    2464:	3c020000 	lui	v0,0x0
			2464: R_MIPS_HI16	HIFReadWrite
    2468:	02203021 	move	a2,s1
    246c:	afa00014 	sw	zero,20(sp)
    2470:	24050418 	li	a1,1048
    2474:	24420000 	addiu	v0,v0,0
			2474: R_MIPS_LO16	HIFReadWrite
    2478:	0040f809 	jalr	v0
    247c:	24070004 	li	a3,4
    2480:	8fbf0028 	lw	ra,40(sp)
    2484:	8fb10024 	lw	s1,36(sp)
    2488:	8fb00020 	lw	s0,32(sp)
    248c:	03e00008 	jr	ra
    2490:	27bd0030 	addiu	sp,sp,48

00002494 <DevEnableInterrupts>:
    2494:	27bdffd0 	addiu	sp,sp,-48
    2498:	3c020000 	lui	v0,0x0
			2498: R_MIPS_HI16	local_bh_disable
    249c:	afb00020 	sw	s0,32(sp)
    24a0:	afbf0028 	sw	ra,40(sp)
    24a4:	afb10024 	sw	s1,36(sp)
    24a8:	24420000 	addiu	v0,v0,0
			24a8: R_MIPS_LO16	local_bh_disable
    24ac:	0040f809 	jalr	v0
    24b0:	00808021 	move	s0,a0
    24b4:	8f820014 	lw	v0,20(gp)
    24b8:	24420001 	addiu	v0,v0,1
    24bc:	af820014 	sw	v0,20(gp)
    24c0:	8e020024 	lw	v0,36(s0)
    24c4:	2403ffd0 	li	v1,-48
    24c8:	10400043 	beqz	v0,25d8 <DevEnableInterrupts+0x144>
    24cc:	a2030010 	sb	v1,16(s0)
    24d0:	a2030010 	sb	v1,16(s0)
    24d4:	24020003 	li	v0,3
    24d8:	a2020012 	sb	v0,18(s0)
    24dc:	24030001 	li	v1,1
    24e0:	27b10018 	addiu	s1,sp,24
    24e4:	3c020000 	lui	v0,0x0
			24e4: R_MIPS_HI16	memcpy
    24e8:	a2030013 	sb	v1,19(s0)
    24ec:	a2000011 	sb	zero,17(s0)
    24f0:	02202021 	move	a0,s1
    24f4:	26050010 	addiu	a1,s0,16
    24f8:	24420000 	addiu	v0,v0,0
			24f8: R_MIPS_LO16	memcpy
    24fc:	0040f809 	jalr	v0
    2500:	24060004 	li	a2,4
    2504:	8f820014 	lw	v0,20(gp)
    2508:	3c030000 	lui	v1,0x0
			2508: R_MIPS_HI16	local_bh_enable
    250c:	2442ffff 	addiu	v0,v0,-1
    2510:	24630000 	addiu	v1,v1,0
			2510: R_MIPS_LO16	local_bh_enable
    2514:	0060f809 	jalr	v1
    2518:	af820014 	sw	v0,20(gp)
    251c:	3c020000 	lui	v0,0x0
			251c: R_MIPS_HI16	cpu_data
    2520:	3c031999 	lui	v1,0x1999
    2524:	8c440000 	lw	a0,0(v0)
			2524: R_MIPS_LO16	cpu_data
    2528:	34639aa8 	ori	v1,v1,0x9aa8
    252c:	24050063 	li	a1,99
    2530:	2406ffff 	li	a2,-1
    2534:	00640019 	multu	v1,a0
    2538:	00001010 	mfhi	v0
    253c:	00000000 	nop
    2540:	1440ffff 	bnez	v0,2540 <DevEnableInterrupts+0xac>
    2544:	2442ffff 	addiu	v0,v0,-1
    2548:	24a5ffff 	addiu	a1,a1,-1
    254c:	14a6fff9 	bne	a1,a2,2534 <DevEnableInterrupts+0xa0>
    2550:	2402025a 	li	v0,602
    2554:	8e040014 	lw	a0,20(s0)
    2558:	afa20010 	sw	v0,16(sp)
    255c:	3c020000 	lui	v0,0x0
			255c: R_MIPS_HI16	HIFReadWrite
    2560:	02203021 	move	a2,s1
    2564:	24050418 	li	a1,1048
    2568:	24070004 	li	a3,4
    256c:	24420000 	addiu	v0,v0,0
			256c: R_MIPS_LO16	HIFReadWrite
    2570:	0040f809 	jalr	v0
    2574:	afa00014 	sw	zero,20(sp)
    2578:	10400006 	beqz	v0,2594 <DevEnableInterrupts+0x100>
    257c:	00408021 	move	s0,v0
    2580:	3c030000 	lui	v1,0x0
			2580: R_MIPS_HI16	debughtc
    2584:	8c620000 	lw	v0,0(v1)
			2584: R_MIPS_LO16	debughtc
    2588:	30420080 	andi	v0,v0,0x80
    258c:	14400007 	bnez	v0,25ac <DevEnableInterrupts+0x118>
    2590:	3c040000 	lui	a0,0x0
			2590: R_MIPS_HI16	$LC19
    2594:	02001021 	move	v0,s0
    2598:	8fbf0028 	lw	ra,40(sp)
    259c:	8fb10024 	lw	s1,36(sp)
    25a0:	8fb00020 	lw	s0,32(sp)
    25a4:	03e00008 	jr	ra
    25a8:	27bd0030 	addiu	sp,sp,48
    25ac:	3c020000 	lui	v0,0x0
			25ac: R_MIPS_HI16	printk
    25b0:	02002821 	move	a1,s0
    25b4:	24420000 	addiu	v0,v0,0
			25b4: R_MIPS_LO16	printk
    25b8:	0040f809 	jalr	v0
    25bc:	24840000 	addiu	a0,a0,0
			25bc: R_MIPS_LO16	$LC19
    25c0:	02001021 	move	v0,s0
    25c4:	8fbf0028 	lw	ra,40(sp)
    25c8:	8fb10024 	lw	s1,36(sp)
    25cc:	8fb00020 	lw	s0,32(sp)
    25d0:	03e00008 	jr	ra
    25d4:	27bd0030 	addiu	sp,sp,48
    25d8:	2402ffd1 	li	v0,-47
    25dc:	08000935 	j	24d4 <DevEnableInterrupts+0x40>
			25dc: R_MIPS_26	.text
    25e0:	a2020010 	sb	v0,16(s0)

000025e4 <DevMaskInterrupts>:
    25e4:	27bdffe8 	addiu	sp,sp,-24
    25e8:	afbf0014 	sw	ra,20(sp)
    25ec:	afb00010 	sw	s0,16(sp)
    25f0:	3c020000 	lui	v0,0x0
			25f0: R_MIPS_HI16	HIFMaskInterrupt
    25f4:	00808021 	move	s0,a0
    25f8:	24420000 	addiu	v0,v0,0
			25f8: R_MIPS_LO16	HIFMaskInterrupt
    25fc:	0040f809 	jalr	v0
    2600:	8c840014 	lw	a0,20(a0)
    2604:	3c190000 	lui	t9,0x0
			2604: R_MIPS_HI16	DevDisableInterrupts
    2608:	02002021 	move	a0,s0
    260c:	8fbf0014 	lw	ra,20(sp)
    2610:	8fb00010 	lw	s0,16(sp)
    2614:	27390000 	addiu	t9,t9,0
			2614: R_MIPS_LO16	DevDisableInterrupts
    2618:	03200008 	jr	t9
    261c:	27bd0018 	addiu	sp,sp,24

00002620 <DevUnmaskInterrupts>:
    2620:	27bdffe8 	addiu	sp,sp,-24
    2624:	3c020000 	lui	v0,0x0
			2624: R_MIPS_HI16	DevDisableInterrupts
    2628:	afbf0014 	sw	ra,20(sp)
    262c:	afb00010 	sw	s0,16(sp)
    2630:	24420000 	addiu	v0,v0,0
			2630: R_MIPS_LO16	DevDisableInterrupts
    2634:	0040f809 	jalr	v0
    2638:	00808021 	move	s0,a0
    263c:	3c020000 	lui	v0,0x0
			263c: R_MIPS_HI16	HIFUnMaskInterrupt
    2640:	24420000 	addiu	v0,v0,0
			2640: R_MIPS_LO16	HIFUnMaskInterrupt
    2644:	0040f809 	jalr	v0
    2648:	8e040014 	lw	a0,20(s0)
    264c:	3c190000 	lui	t9,0x0
			264c: R_MIPS_HI16	DevEnableInterrupts
    2650:	02002021 	move	a0,s0
    2654:	8fbf0014 	lw	ra,20(sp)
    2658:	8fb00010 	lw	s0,16(sp)
    265c:	27390000 	addiu	t9,t9,0
			265c: R_MIPS_LO16	DevEnableInterrupts
    2660:	03200008 	jr	t9
    2664:	27bd0018 	addiu	sp,sp,24

00002668 <DevSetup>:
    2668:	27bdff98 	addiu	sp,sp,-104
    266c:	afb00040 	sw	s0,64(sp)
    2670:	3c020000 	lui	v0,0x0
			2670: R_MIPS_HI16	memset
    2674:	27b00010 	addiu	s0,sp,16
    2678:	afbf0060 	sw	ra,96(sp)
    267c:	afb3004c 	sw	s3,76(sp)
    2680:	00002821 	move	a1,zero
    2684:	00809821 	move	s3,a0
    2688:	2406000c 	li	a2,12
    268c:	02002021 	move	a0,s0
    2690:	afb7005c 	sw	s7,92(sp)
    2694:	afb60058 	sw	s6,88(sp)
    2698:	afb50054 	sw	s5,84(sp)
    269c:	afb40050 	sw	s4,80(sp)
    26a0:	afb20048 	sw	s2,72(sp)
    26a4:	24420000 	addiu	v0,v0,0
			26a4: R_MIPS_LO16	memset
    26a8:	0040f809 	jalr	v0
    26ac:	afb10044 	sw	s1,68(sp)
    26b0:	3c020000 	lui	v0,0x0
			26b0: R_MIPS_HI16	DevRWCompletionHandler
    26b4:	24420000 	addiu	v0,v0,0
			26b4: R_MIPS_LO16	DevRWCompletionHandler
    26b8:	3c030000 	lui	v1,0x0
			26b8: R_MIPS_HI16	DevDsrHandler
    26bc:	8e640014 	lw	a0,20(s3)
    26c0:	24630000 	addiu	v1,v1,0
			26c0: R_MIPS_LO16	DevDsrHandler
    26c4:	afa20014 	sw	v0,20(sp)
    26c8:	3c020000 	lui	v0,0x0
			26c8: R_MIPS_HI16	HIFAttachHTC
    26cc:	02002821 	move	a1,s0
    26d0:	afa30018 	sw	v1,24(sp)
    26d4:	24420000 	addiu	v0,v0,0
			26d4: R_MIPS_LO16	HIFAttachHTC
    26d8:	0040f809 	jalr	v0
    26dc:	afb30010 	sw	s3,16(sp)
    26e0:	10400015 	beqz	v0,2738 <DevSetup+0xd0>
    26e4:	00408021 	move	s0,v0
    26e8:	8e6202e4 	lw	v0,740(s3)
    26ec:	10400007 	beqz	v0,270c <DevSetup+0xa4>
    26f0:	02001021 	move	v0,s0
    26f4:	3c020000 	lui	v0,0x0
			26f4: R_MIPS_HI16	HIFDetachHTC
    26f8:	24420000 	addiu	v0,v0,0
			26f8: R_MIPS_LO16	HIFDetachHTC
    26fc:	0040f809 	jalr	v0
    2700:	8e640014 	lw	a0,20(s3)
    2704:	ae6002e4 	sw	zero,740(s3)
    2708:	02001021 	move	v0,s0
    270c:	8fbf0060 	lw	ra,96(sp)
    2710:	8fb7005c 	lw	s7,92(sp)
    2714:	8fb60058 	lw	s6,88(sp)
    2718:	8fb50054 	lw	s5,84(sp)
    271c:	8fb40050 	lw	s4,80(sp)
    2720:	8fb3004c 	lw	s3,76(sp)
    2724:	8fb20048 	lw	s2,72(sp)
    2728:	8fb10044 	lw	s1,68(sp)
    272c:	8fb00040 	lw	s0,64(sp)
    2730:	03e00008 	jr	ra
    2734:	27bd0068 	addiu	sp,sp,104
    2738:	2662002c 	addiu	v0,s3,44
    273c:	24030001 	li	v1,1
    2740:	8e640014 	lw	a0,20(s3)
    2744:	3c170000 	lui	s7,0x0
			2744: R_MIPS_HI16	HIFConfigureDevice
    2748:	ae620030 	sw	v0,48(s3)
    274c:	ae62002c 	sw	v0,44(s3)
    2750:	ae6302e4 	sw	v1,740(s3)
    2754:	24050002 	li	a1,2
    2758:	27a6001c 	addiu	a2,sp,28
    275c:	26e20000 	addiu	v0,s7,0
			275c: R_MIPS_LO16	HIFConfigureDevice
    2760:	0040f809 	jalr	v0
    2764:	24070010 	li	a3,16
    2768:	1440002e 	bnez	v0,2824 <DevSetup+0x1bc>
    276c:	00408021 	move	s0,v0
    2770:	3c020000 	lui	v0,0x0
			2770: R_MIPS_HI16	AR6KFreeIOPacket
    2774:	24560000 	addiu	s6,v0,0
			2774: R_MIPS_LO16	AR6KFreeIOPacket
    2778:	00009021 	move	s2,zero
    277c:	24150020 	li	s5,32
    2780:	26700068 	addiu	s0,s3,104
    2784:	26710034 	addiu	s1,s3,52
    2788:	24140008 	li	s4,8
    278c:	ae13ffd4 	sw	s3,-44(s0)
    2790:	ae10ffdc 	sw	s0,-36(s0)
    2794:	ae10ffd8 	sw	s0,-40(s0)
    2798:	ae15ffe0 	sw	s5,-32(s0)
    279c:	ae00ffe8 	sw	zero,-24(s0)
    27a0:	02202821 	move	a1,s1
    27a4:	02602021 	move	a0,s3
    27a8:	02c0f809 	jalr	s6
    27ac:	26520001 	addiu	s2,s2,1
    27b0:	26310054 	addiu	s1,s1,84
    27b4:	1654fff5 	bne	s2,s4,278c <DevSetup+0x124>
    27b8:	26100054 	addiu	s0,s0,84
    27bc:	8fa2001c 	lw	v0,28(sp)
    27c0:	8e640014 	lw	a0,20(s3)
    27c4:	ae620020 	sw	v0,32(s3)
    27c8:	24050001 	li	a1,1
    27cc:	27a6002c 	addiu	a2,sp,44
    27d0:	26e20000 	addiu	v0,s7,0
			27d0: R_MIPS_LO16	HIFConfigureDevice
    27d4:	0040f809 	jalr	v0
    27d8:	24070010 	li	a3,16
    27dc:	10400021 	beqz	v0,2864 <DevSetup+0x1fc>
    27e0:	00408021 	move	s0,v0
    27e4:	3c030000 	lui	v1,0x0
			27e4: R_MIPS_HI16	debughtc
    27e8:	8c620000 	lw	v0,0(v1)
			27e8: R_MIPS_LO16	debughtc
    27ec:	30420080 	andi	v0,v0,0x80
    27f0:	1040ffbd 	beqz	v0,26e8 <DevSetup+0x80>
    27f4:	3c040000 	lui	a0,0x0
			27f4: R_MIPS_HI16	$LC13
    27f8:	3c050000 	lui	a1,0x0
			27f8: R_MIPS_HI16	$LC14
    27fc:	3c070000 	lui	a3,0x0
			27fc: R_MIPS_HI16	$LC15
    2800:	3c020000 	lui	v0,0x0
			2800: R_MIPS_HI16	printk
    2804:	24840000 	addiu	a0,a0,0
			2804: R_MIPS_LO16	$LC13
    2808:	24a50000 	addiu	a1,a1,0
			2808: R_MIPS_LO16	$LC14
    280c:	24e70000 	addiu	a3,a3,0
			280c: R_MIPS_LO16	$LC15
    2810:	24420000 	addiu	v0,v0,0
			2810: R_MIPS_LO16	printk
    2814:	0040f809 	jalr	v0
    2818:	24060088 	li	a2,136
    281c:	080009bb 	j	26ec <DevSetup+0x84>
			281c: R_MIPS_26	.text
    2820:	8e6202e4 	lw	v0,740(s3)
    2824:	3c030000 	lui	v1,0x0
			2824: R_MIPS_HI16	debughtc
    2828:	8c620000 	lw	v0,0(v1)
			2828: R_MIPS_LO16	debughtc
    282c:	30420080 	andi	v0,v0,0x80
    2830:	1040ffad 	beqz	v0,26e8 <DevSetup+0x80>
    2834:	3c040000 	lui	a0,0x0
			2834: R_MIPS_HI16	$LC13
    2838:	3c050000 	lui	a1,0x0
			2838: R_MIPS_HI16	$LC14
    283c:	3c070000 	lui	a3,0x0
			283c: R_MIPS_HI16	$LC15
    2840:	3c020000 	lui	v0,0x0
			2840: R_MIPS_HI16	printk
    2844:	24840000 	addiu	a0,a0,0
			2844: R_MIPS_LO16	$LC13
    2848:	24a50000 	addiu	a1,a1,0
			2848: R_MIPS_LO16	$LC14
    284c:	24e70000 	addiu	a3,a3,0
			284c: R_MIPS_LO16	$LC15
    2850:	24420000 	addiu	v0,v0,0
			2850: R_MIPS_LO16	printk
    2854:	0040f809 	jalr	v0
    2858:	24060070 	li	a2,112
    285c:	080009bb 	j	26ec <DevSetup+0x84>
			285c: R_MIPS_26	.text
    2860:	8e6202e4 	lw	v0,740(s3)
    2864:	8fa20030 	lw	v0,48(sp)
    2868:	2443ffff 	addiu	v1,v0,-1
    286c:	00431824 	and	v1,v0,v1
    2870:	10600036 	beqz	v1,294c <DevSetup+0x2e4>
    2874:	ae620018 	sw	v0,24(s3)
    2878:	3c140000 	lui	s4,0x0
			2878: R_MIPS_HI16	debughtc
    287c:	8e820000 	lw	v0,0(s4)
			287c: R_MIPS_LO16	debughtc
    2880:	30420080 	andi	v0,v0,0x80
    2884:	1440004d 	bnez	v0,29bc <DevSetup+0x354>
    2888:	3c040000 	lui	a0,0x0
			2888: R_MIPS_HI16	$LC13
    288c:	8e650018 	lw	a1,24(s3)
    2890:	24a3ffff 	addiu	v1,a1,-1
    2894:	ae63001c 	sw	v1,28(s3)
    2898:	8e820000 	lw	v0,0(s4)
			2898: R_MIPS_LO16	debughtc
    289c:	30420020 	andi	v0,v0,0x20
    28a0:	1440003e 	bnez	v0,299c <DevSetup+0x334>
    28a4:	3c120000 	lui	s2,0x0
			28a4: R_MIPS_HI16	debughtc
    28a8:	8e640014 	lw	a0,20(s3)
    28ac:	24050003 	li	a1,3
    28b0:	26660024 	addiu	a2,s3,36
    28b4:	24070004 	li	a3,4
    28b8:	26f00000 	addiu	s0,s7,0
			28b8: R_MIPS_LO16	HIFConfigureDevice
    28bc:	0200f809 	jalr	s0
    28c0:	ae600024 	sw	zero,36(s3)
    28c4:	24110001 	li	s1,1
    28c8:	8e640014 	lw	a0,20(s3)
    28cc:	ae7102dc 	sw	s1,732(s3)
    28d0:	24050004 	li	a1,4
    28d4:	266602dc 	addiu	a2,s3,732
    28d8:	0200f809 	jalr	s0
    28dc:	24070004 	li	a3,4
    28e0:	8e6202dc 	lw	v0,732(s3)
    28e4:	1040001b 	beqz	v0,2954 <DevSetup+0x2ec>
    28e8:	00000000 	nop
    28ec:	1051003e 	beq	v0,s1,29e8 <DevSetup+0x380>
    28f0:	8e820000 	lw	v0,0(s4)
			28f0: R_MIPS_LO16	debughtc
    28f4:	30420080 	andi	v0,v0,0x80
    28f8:	14400045 	bnez	v0,2a10 <DevSetup+0x3a8>
    28fc:	3c040000 	lui	a0,0x0
			28fc: R_MIPS_HI16	$LC13
    2900:	8e640014 	lw	a0,20(s3)
    2904:	ae6002e0 	sw	zero,736(s3)
    2908:	26e20000 	addiu	v0,s7,0
			2908: R_MIPS_LO16	HIFConfigureDevice
    290c:	24050005 	li	a1,5
    2910:	266602e0 	addiu	a2,s3,736
    2914:	0040f809 	jalr	v0
    2918:	24070004 	li	a3,4
    291c:	8e830000 	lw	v1,0(s4)
			291c: R_MIPS_LO16	debughtc
    2920:	30630020 	andi	v1,v1,0x20
    2924:	14600015 	bnez	v1,297c <DevSetup+0x314>
    2928:	3c040000 	lui	a0,0x0
			2928: R_MIPS_HI16	$LC24
    292c:	3c020000 	lui	v0,0x0
			292c: R_MIPS_HI16	DevDisableInterrupts
    2930:	24420000 	addiu	v0,v0,0
			2930: R_MIPS_LO16	DevDisableInterrupts
    2934:	0040f809 	jalr	v0
    2938:	02602021 	move	a0,s3
    293c:	1440ff6a 	bnez	v0,26e8 <DevSetup+0x80>
    2940:	00408021 	move	s0,v0
    2944:	080009c3 	j	270c <DevSetup+0xa4>
			2944: R_MIPS_26	.text
    2948:	02001021 	move	v0,s0
    294c:	08000a23 	j	288c <DevSetup+0x224>
			294c: R_MIPS_26	.text
    2950:	3c140000 	lui	s4,0x0
			2950: R_MIPS_HI16	debughtc
    2954:	8e420000 	lw	v0,0(s2)
			2954: R_MIPS_LO16	debughtc
    2958:	30420020 	andi	v0,v0,0x20
    295c:	1040ffe8 	beqz	v0,2900 <DevSetup+0x298>
    2960:	3c040000 	lui	a0,0x0
			2960: R_MIPS_HI16	$LC22
    2964:	3c020000 	lui	v0,0x0
			2964: R_MIPS_HI16	printk
    2968:	24420000 	addiu	v0,v0,0
			2968: R_MIPS_LO16	printk
    296c:	0040f809 	jalr	v0
    2970:	24840000 	addiu	a0,a0,0
			2970: R_MIPS_LO16	$LC22
    2974:	08000a41 	j	2904 <DevSetup+0x29c>
			2974: R_MIPS_26	.text
    2978:	8e640014 	lw	a0,20(s3)
    297c:	8e650024 	lw	a1,36(s3)
    2980:	8e6602e0 	lw	a2,736(s3)
    2984:	3c020000 	lui	v0,0x0
			2984: R_MIPS_HI16	printk
    2988:	24420000 	addiu	v0,v0,0
			2988: R_MIPS_LO16	printk
    298c:	0040f809 	jalr	v0
    2990:	24840000 	addiu	a0,a0,0
			2990: R_MIPS_LO16	$LC24
    2994:	08000a4c 	j	2930 <DevSetup+0x2c8>
			2994: R_MIPS_26	.text
    2998:	3c020000 	lui	v0,0x0
			2998: R_MIPS_HI16	DevDisableInterrupts
    299c:	8e660020 	lw	a2,32(s3)
    29a0:	3c040000 	lui	a0,0x0
			29a0: R_MIPS_HI16	$LC21
    29a4:	3c020000 	lui	v0,0x0
			29a4: R_MIPS_HI16	printk
    29a8:	24420000 	addiu	v0,v0,0
			29a8: R_MIPS_LO16	printk
    29ac:	0040f809 	jalr	v0
    29b0:	24840000 	addiu	a0,a0,0
			29b0: R_MIPS_LO16	$LC21
    29b4:	08000a2b 	j	28ac <DevSetup+0x244>
			29b4: R_MIPS_26	.text
    29b8:	8e640014 	lw	a0,20(s3)
    29bc:	3c050000 	lui	a1,0x0
			29bc: R_MIPS_HI16	$LC14
    29c0:	3c070000 	lui	a3,0x0
			29c0: R_MIPS_HI16	$LC20
    29c4:	3c020000 	lui	v0,0x0
			29c4: R_MIPS_HI16	printk
    29c8:	24840000 	addiu	a0,a0,0
			29c8: R_MIPS_LO16	$LC13
    29cc:	24a50000 	addiu	a1,a1,0
			29cc: R_MIPS_LO16	$LC14
    29d0:	24e70000 	addiu	a3,a3,0
			29d0: R_MIPS_LO16	$LC20
    29d4:	24420000 	addiu	v0,v0,0
			29d4: R_MIPS_LO16	printk
    29d8:	0040f809 	jalr	v0
    29dc:	24060091 	li	a2,145
    29e0:	08000a24 	j	2890 <DevSetup+0x228>
			29e0: R_MIPS_26	.text
    29e4:	8e650018 	lw	a1,24(s3)
    29e8:	8e420000 	lw	v0,0(s2)
			29e8: R_MIPS_LO16	debughtc
    29ec:	30420020 	andi	v0,v0,0x20
    29f0:	1040ffc3 	beqz	v0,2900 <DevSetup+0x298>
    29f4:	3c040000 	lui	a0,0x0
			29f4: R_MIPS_HI16	$LC23
    29f8:	3c020000 	lui	v0,0x0
			29f8: R_MIPS_HI16	printk
    29fc:	24420000 	addiu	v0,v0,0
			29fc: R_MIPS_LO16	printk
    2a00:	0040f809 	jalr	v0
    2a04:	24840000 	addiu	a0,a0,0
			2a04: R_MIPS_LO16	$LC23
    2a08:	08000a41 	j	2904 <DevSetup+0x29c>
			2a08: R_MIPS_26	.text
    2a0c:	8e640014 	lw	a0,20(s3)
    2a10:	3c050000 	lui	a1,0x0
			2a10: R_MIPS_HI16	$LC14
    2a14:	3c070000 	lui	a3,0x0
			2a14: R_MIPS_HI16	$LC15
    2a18:	3c020000 	lui	v0,0x0
			2a18: R_MIPS_HI16	printk
    2a1c:	24840000 	addiu	a0,a0,0
			2a1c: R_MIPS_LO16	$LC13
    2a20:	24a50000 	addiu	a1,a1,0
			2a20: R_MIPS_LO16	$LC14
    2a24:	24e70000 	addiu	a3,a3,0
			2a24: R_MIPS_LO16	$LC15
    2a28:	24420000 	addiu	v0,v0,0
			2a28: R_MIPS_LO16	printk
    2a2c:	0040f809 	jalr	v0
    2a30:	240600b1 	li	a2,177
    2a34:	08000a41 	j	2904 <DevSetup+0x29c>
			2a34: R_MIPS_26	.text
    2a38:	8e640014 	lw	a0,20(s3)

00002a3c <DevCleanup>:
    2a3c:	27bdffe8 	addiu	sp,sp,-24
    2a40:	afb00010 	sw	s0,16(sp)
    2a44:	afbf0014 	sw	ra,20(sp)
    2a48:	8c8202e4 	lw	v0,740(a0)
    2a4c:	10400006 	beqz	v0,2a68 <DevCleanup+0x2c>
    2a50:	00808021 	move	s0,a0
    2a54:	3c020000 	lui	v0,0x0
			2a54: R_MIPS_HI16	HIFDetachHTC
    2a58:	24420000 	addiu	v0,v0,0
			2a58: R_MIPS_LO16	HIFDetachHTC
    2a5c:	0040f809 	jalr	v0
    2a60:	8c840014 	lw	a0,20(a0)
    2a64:	ae0002e4 	sw	zero,740(s0)
    2a68:	8fbf0014 	lw	ra,20(sp)
    2a6c:	8fb00010 	lw	s0,16(sp)
    2a70:	03e00008 	jr	ra
    2a74:	27bd0018 	addiu	sp,sp,24
	...

00002a80 <DevRWCompletionHandler>:
    2a80:	27bdffe8 	addiu	sp,sp,-24
    2a84:	afbf0010 	sw	ra,16(sp)
    2a88:	00801021 	move	v0,a0
    2a8c:	8c830028 	lw	v1,40(a0)
    2a90:	8c84002c 	lw	a0,44(a0)
    2a94:	ac450020 	sw	a1,32(v0)
    2a98:	0060f809 	jalr	v1
    2a9c:	00402821 	move	a1,v0
    2aa0:	8fbf0010 	lw	ra,16(sp)
    2aa4:	00001021 	move	v0,zero
    2aa8:	03e00008 	jr	ra
    2aac:	27bd0018 	addiu	sp,sp,24

00002ab0 <DevServiceDebugInterrupt>:
    2ab0:	27bdffd0 	addiu	sp,sp,-48
    2ab4:	afb10024 	sw	s1,36(sp)
    2ab8:	afb00020 	sw	s0,32(sp)
    2abc:	afbf0028 	sw	ra,40(sp)
    2ac0:	3c110000 	lui	s1,0x0
			2ac0: R_MIPS_HI16	debughtc
    2ac4:	8e220000 	lw	v0,0(s1)
			2ac4: R_MIPS_LO16	debughtc
    2ac8:	00808021 	move	s0,a0
    2acc:	30420080 	andi	v0,v0,0x80
    2ad0:	3c040000 	lui	a0,0x0
			2ad0: R_MIPS_HI16	$LC0
    2ad4:	1440002c 	bnez	v0,2b88 <DevServiceDebugInterrupt+0xd8>
    2ad8:	24840000 	addiu	a0,a0,0
			2ad8: R_MIPS_LO16	$LC0
    2adc:	8e0202d4 	lw	v0,724(s0)
    2ae0:	10400003 	beqz	v0,2af0 <DevServiceDebugInterrupt+0x40>
    2ae4:	24050001 	li	a1,1
    2ae8:	0040f809 	jalr	v0
    2aec:	8e040028 	lw	a0,40(s0)
    2af0:	24020259 	li	v0,601
    2af4:	8e040014 	lw	a0,20(s0)
    2af8:	afa20010 	sw	v0,16(sp)
    2afc:	3c020000 	lui	v0,0x0
			2afc: R_MIPS_HI16	HIFReadWrite
    2b00:	24050440 	li	a1,1088
    2b04:	27a60018 	addiu	a2,sp,24
    2b08:	24070004 	li	a3,4
    2b0c:	24420000 	addiu	v0,v0,0
			2b0c: R_MIPS_LO16	HIFReadWrite
    2b10:	0040f809 	jalr	v0
    2b14:	afa00014 	sw	zero,20(sp)
    2b18:	1040000b 	beqz	v0,2b48 <DevServiceDebugInterrupt+0x98>
    2b1c:	00408021 	move	s0,v0
    2b20:	8e220000 	lw	v0,0(s1)
			2b20: R_MIPS_LO16	debughtc
    2b24:	3c040000 	lui	a0,0x0
			2b24: R_MIPS_HI16	$LC1
    2b28:	3c050000 	lui	a1,0x0
			2b28: R_MIPS_HI16	$LC2
    2b2c:	3c070000 	lui	a3,0x0
			2b2c: R_MIPS_HI16	$LC3
    2b30:	30420080 	andi	v0,v0,0x80
    2b34:	24840000 	addiu	a0,a0,0
			2b34: R_MIPS_LO16	$LC1
    2b38:	24a50000 	addiu	a1,a1,0
			2b38: R_MIPS_LO16	$LC2
    2b3c:	24e70000 	addiu	a3,a3,0
			2b3c: R_MIPS_LO16	$LC3
    2b40:	14400007 	bnez	v0,2b60 <DevServiceDebugInterrupt+0xb0>
    2b44:	24060119 	li	a2,281
    2b48:	02001021 	move	v0,s0
    2b4c:	8fbf0028 	lw	ra,40(sp)
    2b50:	8fb10024 	lw	s1,36(sp)
    2b54:	8fb00020 	lw	s0,32(sp)
    2b58:	03e00008 	jr	ra
    2b5c:	27bd0030 	addiu	sp,sp,48
    2b60:	3c020000 	lui	v0,0x0
			2b60: R_MIPS_HI16	printk
    2b64:	24420000 	addiu	v0,v0,0
			2b64: R_MIPS_LO16	printk
    2b68:	0040f809 	jalr	v0
    2b6c:	00000000 	nop
    2b70:	02001021 	move	v0,s0
    2b74:	8fbf0028 	lw	ra,40(sp)
    2b78:	8fb10024 	lw	s1,36(sp)
    2b7c:	8fb00020 	lw	s0,32(sp)
    2b80:	03e00008 	jr	ra
    2b84:	27bd0030 	addiu	sp,sp,48
    2b88:	3c020000 	lui	v0,0x0
			2b88: R_MIPS_HI16	printk
    2b8c:	24420000 	addiu	v0,v0,0
			2b8c: R_MIPS_LO16	printk
    2b90:	0040f809 	jalr	v0
    2b94:	00000000 	nop
    2b98:	08000ab8 	j	2ae0 <DevServiceDebugInterrupt+0x30>
			2b98: R_MIPS_26	.text
    2b9c:	8e0202d4 	lw	v0,724(s0)

00002ba0 <DevDsrHandler>:
    2ba0:	27bdffb0 	addiu	sp,sp,-80
    2ba4:	afb3003c 	sw	s3,60(sp)
    2ba8:	3c130000 	lui	s3,0x0
			2ba8: R_MIPS_HI16	debughtc
    2bac:	8e620000 	lw	v0,0(s3)
			2bac: R_MIPS_LO16	debughtc
    2bb0:	afb10034 	sw	s1,52(sp)
    2bb4:	30420010 	andi	v0,v0,0x10
    2bb8:	afbf004c 	sw	ra,76(sp)
    2bbc:	afb60048 	sw	s6,72(sp)
    2bc0:	afb50044 	sw	s5,68(sp)
    2bc4:	afb40040 	sw	s4,64(sp)
    2bc8:	afb20038 	sw	s2,56(sp)
    2bcc:	afb00030 	sw	s0,48(sp)
    2bd0:	00808821 	move	s1,a0
    2bd4:	14400191 	bnez	v0,321c <DevDsrHandler+0x67c>
    2bd8:	afa00018 	sw	zero,24(sp)
    2bdc:	8e620000 	lw	v0,0(s3)
			2bdc: R_MIPS_LO16	debughtc
    2be0:	30420010 	andi	v0,v0,0x10
    2be4:	14400120 	bnez	v0,3068 <DevDsrHandler+0x4c8>
    2be8:	afa0001c 	sw	zero,28(sp)
    2bec:	92220010 	lbu	v0,16(s1)
    2bf0:	104000ae 	beqz	v0,2eac <DevDsrHandler+0x30c>
    2bf4:	00009021 	move	s2,zero
    2bf8:	8e220024 	lw	v0,36(s1)
    2bfc:	10400054 	beqz	v0,2d50 <DevDsrHandler+0x1b0>
    2c00:	27a50020 	addiu	a1,sp,32
    2c04:	8e240014 	lw	a0,20(s1)
    2c08:	0040f809 	jalr	v0
    2c0c:	00003021 	move	a2,zero
    2c10:	10400034 	beqz	v0,2ce4 <DevDsrHandler+0x144>
    2c14:	00408021 	move	s0,v0
    2c18:	0000a821 	move	s5,zero
    2c1c:	8e620000 	lw	v0,0(s3)
			2c1c: R_MIPS_LO16	debughtc
    2c20:	30420010 	andi	v0,v0,0x10
    2c24:	14400026 	bnez	v0,2cc0 <DevDsrHandler+0x120>
    2c28:	3c040000 	lui	a0,0x0
			2c28: R_MIPS_HI16	$LC22
    2c2c:	16000011 	bnez	s0,2c74 <DevDsrHandler+0xd4>
    2c30:	8e620000 	lw	v0,0(s3)
			2c30: R_MIPS_LO16	debughtc
    2c34:	8e2202dc 	lw	v0,732(s1)
    2c38:	144000a2 	bnez	v0,2ec4 <DevDsrHandler+0x324>
    2c3c:	8fa20018 	lw	v0,24(sp)
    2c40:	12a0ffe6 	beqz	s5,2bdc <DevDsrHandler+0x3c>
    2c44:	afa00018 	sw	zero,24(sp)
    2c48:	8fa20018 	lw	v0,24(sp)
    2c4c:	14400009 	bnez	v0,2c74 <DevDsrHandler+0xd4>
    2c50:	8e620000 	lw	v0,0(s3)
			2c50: R_MIPS_LO16	debughtc
    2c54:	30420010 	andi	v0,v0,0x10
    2c58:	144001d3 	bnez	v0,33a8 <DevDsrHandler+0x808>
    2c5c:	3c040000 	lui	a0,0x0
			2c5c: R_MIPS_HI16	$LC23
    2c60:	3c020000 	lui	v0,0x0
			2c60: R_MIPS_HI16	HIFAckInterrupt
    2c64:	24420000 	addiu	v0,v0,0
			2c64: R_MIPS_LO16	HIFAckInterrupt
    2c68:	0040f809 	jalr	v0
    2c6c:	8e240014 	lw	a0,20(s1)
    2c70:	8e620000 	lw	v0,0(s3)
			2c70: R_MIPS_LO16	debughtc
    2c74:	30420010 	andi	v0,v0,0x10
    2c78:	10400007 	beqz	v0,2c98 <DevDsrHandler+0xf8>
    2c7c:	02001021 	move	v0,s0
    2c80:	3c040000 	lui	a0,0x0
			2c80: R_MIPS_HI16	$LC24
    2c84:	3c020000 	lui	v0,0x0
			2c84: R_MIPS_HI16	printk
    2c88:	24420000 	addiu	v0,v0,0
			2c88: R_MIPS_LO16	printk
    2c8c:	0040f809 	jalr	v0
    2c90:	24840000 	addiu	a0,a0,0
			2c90: R_MIPS_LO16	$LC24
    2c94:	02001021 	move	v0,s0
    2c98:	8fbf004c 	lw	ra,76(sp)
    2c9c:	8fb60048 	lw	s6,72(sp)
    2ca0:	8fb50044 	lw	s5,68(sp)
    2ca4:	8fb40040 	lw	s4,64(sp)
    2ca8:	8fb3003c 	lw	s3,60(sp)
    2cac:	8fb20038 	lw	s2,56(sp)
    2cb0:	8fb10034 	lw	s1,52(sp)
    2cb4:	8fb00030 	lw	s0,48(sp)
    2cb8:	03e00008 	jr	ra
    2cbc:	27bd0050 	addiu	sp,sp,80
    2cc0:	8fa60018 	lw	a2,24(sp)
    2cc4:	3c020000 	lui	v0,0x0
			2cc4: R_MIPS_HI16	printk
    2cc8:	24840000 	addiu	a0,a0,0
			2cc8: R_MIPS_LO16	$LC22
    2ccc:	02a02821 	move	a1,s5
    2cd0:	24420000 	addiu	v0,v0,0
			2cd0: R_MIPS_LO16	printk
    2cd4:	0040f809 	jalr	v0
    2cd8:	02003821 	move	a3,s0
    2cdc:	08000b0b 	j	2c2c <DevDsrHandler+0x8c>
			2cdc: R_MIPS_26	.text
    2ce0:	00000000 	nop
    2ce4:	3c020000 	lui	v0,0x0
			2ce4: R_MIPS_HI16	stack_force_interrupt_get
    2ce8:	24420000 	addiu	v0,v0,0
			2ce8: R_MIPS_LO16	stack_force_interrupt_get
    2cec:	0040f809 	jalr	v0
    2cf0:	00000000 	nop
    2cf4:	10400005 	beqz	v0,2d0c <DevDsrHandler+0x16c>
    2cf8:	3c020000 	lui	v0,0x0
			2cf8: R_MIPS_HI16	stack_force_interrupt_clear
    2cfc:	8fa20020 	lw	v0,32(sp)
    2d00:	34440002 	ori	a0,v0,0x2
    2d04:	afa40020 	sw	a0,32(sp)
    2d08:	3c020000 	lui	v0,0x0
			2d08: R_MIPS_HI16	stack_force_interrupt_clear
    2d0c:	24420000 	addiu	v0,v0,0
			2d0c: R_MIPS_LO16	stack_force_interrupt_clear
    2d10:	0040f809 	jalr	v0
    2d14:	00000000 	nop
    2d18:	8fa40020 	lw	a0,32(sp)
    2d1c:	30820002 	andi	v0,a0,0x2
    2d20:	10400005 	beqz	v0,2d38 <DevDsrHandler+0x198>
    2d24:	30820001 	andi	v0,a0,0x1
    2d28:	8fa20024 	lw	v0,36(sp)
    2d2c:	104000fc 	beqz	v0,3120 <DevDsrHandler+0x580>
    2d30:	afa2001c 	sw	v0,28(sp)
    2d34:	30820001 	andi	v0,a0,0x1
    2d38:	1040005c 	beqz	v0,2eac <DevDsrHandler+0x30c>
    2d3c:	00009021 	move	s2,zero
    2d40:	92220010 	lbu	v0,16(s1)
    2d44:	304200d0 	andi	v0,v0,0xd0
    2d48:	10400059 	beqz	v0,2eb0 <DevDsrHandler+0x310>
    2d4c:	8fa5001c 	lw	a1,28(sp)
    2d50:	24020259 	li	v0,601
    2d54:	8e240014 	lw	a0,20(s1)
    2d58:	afa20010 	sw	v0,16(sp)
    2d5c:	3c020000 	lui	v0,0x0
			2d5c: R_MIPS_HI16	HIFReadWrite
    2d60:	24050400 	li	a1,1024
    2d64:	02203021 	move	a2,s1
    2d68:	24070010 	li	a3,16
    2d6c:	24420000 	addiu	v0,v0,0
			2d6c: R_MIPS_LO16	HIFReadWrite
    2d70:	0040f809 	jalr	v0
    2d74:	afa00014 	sw	zero,20(sp)
    2d78:	1440ffa7 	bnez	v0,2c18 <DevDsrHandler+0x78>
    2d7c:	00408021 	move	s0,v0
    2d80:	8e620000 	lw	v0,0(s3)
			2d80: R_MIPS_LO16	debughtc
    2d84:	30420010 	andi	v0,v0,0x10
    2d88:	14400133 	bnez	v0,3258 <DevDsrHandler+0x6b8>
    2d8c:	3c020000 	lui	v0,0x0
			2d8c: R_MIPS_HI16	DevDumpRegisters
    2d90:	92220010 	lbu	v0,16(s1)
    2d94:	92230000 	lbu	v1,0(s1)
    2d98:	8e240024 	lw	a0,36(s1)
    2d9c:	10800137 	beqz	a0,327c <DevDsrHandler+0x6dc>
    2da0:	00629024 	and	s2,v1,v0
    2da4:	325200fe 	andi	s2,s2,0xfe
    2da8:	12400041 	beqz	s2,2eb0 <DevDsrHandler+0x310>
    2dac:	8fa5001c 	lw	a1,28(sp)
    2db0:	8fa5001c 	lw	a1,28(sp)
    2db4:	14a00049 	bnez	a1,2edc <DevDsrHandler+0x33c>
    2db8:	8e620000 	lw	v0,0(s3)
			2db8: R_MIPS_LO16	debughtc
    2dbc:	30420010 	andi	v0,v0,0x10
    2dc0:	14400059 	bnez	v0,2f28 <DevDsrHandler+0x388>
    2dc4:	0000a821 	move	s5,zero
    2dc8:	32420040 	andi	v0,s2,0x40
    2dcc:	10400060 	beqz	v0,2f50 <DevDsrHandler+0x3b0>
    2dd0:	32420080 	andi	v0,s2,0x80
    2dd4:	8e620000 	lw	v0,0(s3)
			2dd4: R_MIPS_LO16	debughtc
    2dd8:	30420010 	andi	v0,v0,0x10
    2ddc:	14400109 	bnez	v0,3204 <DevDsrHandler+0x664>
    2de0:	3c040000 	lui	a0,0x0
			2de0: R_MIPS_HI16	$LC10
    2de4:	92230011 	lbu	v1,17(s1)
    2de8:	92220001 	lbu	v0,1(s1)
    2dec:	00438024 	and	s0,v0,v1
    2df0:	16000007 	bnez	s0,2e10 <DevDsrHandler+0x270>
    2df4:	8e620000 	lw	v0,0(s3)
			2df4: R_MIPS_LO16	debughtc
    2df8:	3c030000 	lui	v1,0x0
			2df8: R_MIPS_HI16	debughtc
    2dfc:	8c620000 	lw	v0,0(v1)
			2dfc: R_MIPS_LO16	debughtc
    2e00:	30420080 	andi	v0,v0,0x80
    2e04:	1440014d 	bnez	v0,333c <DevDsrHandler+0x79c>
    2e08:	3c040000 	lui	a0,0x0
			2e08: R_MIPS_HI16	$LC1
    2e0c:	8e620000 	lw	v0,0(s3)
			2e0c: R_MIPS_LO16	debughtc
    2e10:	30420010 	andi	v0,v0,0x10
    2e14:	144000f4 	bnez	v0,31e8 <DevDsrHandler+0x648>
    2e18:	3c040000 	lui	a0,0x0
			2e18: R_MIPS_HI16	$LC12
    2e1c:	92230001 	lbu	v1,1(s1)
    2e20:	00101027 	nor	v0,zero,s0
    2e24:	00431024 	and	v0,v0,v1
    2e28:	a2220001 	sb	v0,1(s1)
    2e2c:	2402015a 	li	v0,346
    2e30:	8e240014 	lw	a0,20(s1)
    2e34:	afa20010 	sw	v0,16(sp)
    2e38:	3c020000 	lui	v0,0x0
			2e38: R_MIPS_HI16	HIFReadWrite
    2e3c:	a3b00020 	sb	s0,32(sp)
    2e40:	24050401 	li	a1,1025
    2e44:	27a60020 	addiu	a2,sp,32
    2e48:	24070004 	li	a3,4
    2e4c:	a3a00021 	sb	zero,33(sp)
    2e50:	a3a00022 	sb	zero,34(sp)
    2e54:	a3a00023 	sb	zero,35(sp)
    2e58:	24420000 	addiu	v0,v0,0
			2e58: R_MIPS_LO16	HIFReadWrite
    2e5c:	0040f809 	jalr	v0
    2e60:	afa00014 	sw	zero,20(sp)
    2e64:	10400039 	beqz	v0,2f4c <DevDsrHandler+0x3ac>
    2e68:	00408021 	move	s0,v0
    2e6c:	3c030000 	lui	v1,0x0
			2e6c: R_MIPS_HI16	debughtc
    2e70:	8c620000 	lw	v0,0(v1)
			2e70: R_MIPS_LO16	debughtc
    2e74:	30420080 	andi	v0,v0,0x80
    2e78:	1040ff68 	beqz	v0,2c1c <DevDsrHandler+0x7c>
    2e7c:	3c040000 	lui	a0,0x0
			2e7c: R_MIPS_HI16	$LC1
    2e80:	3c050000 	lui	a1,0x0
			2e80: R_MIPS_HI16	$LC2
    2e84:	3c070000 	lui	a3,0x0
			2e84: R_MIPS_HI16	$LC3
    2e88:	3c020000 	lui	v0,0x0
			2e88: R_MIPS_HI16	printk
    2e8c:	24840000 	addiu	a0,a0,0
			2e8c: R_MIPS_LO16	$LC1
    2e90:	24a50000 	addiu	a1,a1,0
			2e90: R_MIPS_LO16	$LC2
    2e94:	24e70000 	addiu	a3,a3,0
			2e94: R_MIPS_LO16	$LC3
    2e98:	24420000 	addiu	v0,v0,0
			2e98: R_MIPS_LO16	printk
    2e9c:	0040f809 	jalr	v0
    2ea0:	240600c3 	li	a2,195
    2ea4:	08000b08 	j	2c20 <DevDsrHandler+0x80>
			2ea4: R_MIPS_26	.text
    2ea8:	8e620000 	lw	v0,0(s3)
			2ea8: R_MIPS_LO16	debughtc
    2eac:	8fa5001c 	lw	a1,28(sp)
    2eb0:	14a0000a 	bnez	a1,2edc <DevDsrHandler+0x33c>
    2eb4:	8e620000 	lw	v0,0(s3)
			2eb4: R_MIPS_LO16	debughtc
    2eb8:	00008021 	move	s0,zero
    2ebc:	08000b08 	j	2c20 <DevDsrHandler+0x80>
			2ebc: R_MIPS_26	.text
    2ec0:	24150001 	li	s5,1
    2ec4:	1440ff6a 	bnez	v0,2c70 <DevDsrHandler+0xd0>
    2ec8:	00000000 	nop
    2ecc:	12a0ff43 	beqz	s5,2bdc <DevDsrHandler+0x3c>
    2ed0:	00000000 	nop
    2ed4:	08000b13 	j	2c4c <DevDsrHandler+0xac>
			2ed4: R_MIPS_26	.text
    2ed8:	00000000 	nop
    2edc:	30420010 	andi	v0,v0,0x10
    2ee0:	14400069 	bnez	v0,3088 <DevDsrHandler+0x4e8>
    2ee4:	3c040000 	lui	a0,0x0
			2ee4: R_MIPS_HI16	$LC8
    2ee8:	8e2202d8 	lw	v0,728(s1)
    2eec:	8e240028 	lw	a0,40(s1)
    2ef0:	27a5001c 	addiu	a1,sp,28
    2ef4:	0040f809 	jalr	v0
    2ef8:	27a60018 	addiu	a2,sp,24
    2efc:	1440ff46 	bnez	v0,2c18 <DevDsrHandler+0x78>
    2f00:	00408021 	move	s0,v0
    2f04:	8fa2001c 	lw	v0,28(sp)
    2f08:	1440ffac 	bnez	v0,2dbc <DevDsrHandler+0x21c>
    2f0c:	8e620000 	lw	v0,0(s3)
			2f0c: R_MIPS_LO16	debughtc
    2f10:	8fa20018 	lw	v0,24(sp)
    2f14:	1440ffa9 	bnez	v0,2dbc <DevDsrHandler+0x21c>
    2f18:	8e620000 	lw	v0,0(s3)
			2f18: R_MIPS_LO16	debughtc
    2f1c:	30420010 	andi	v0,v0,0x10
    2f20:	1040ffa9 	beqz	v0,2dc8 <DevDsrHandler+0x228>
    2f24:	24150001 	li	s5,1
    2f28:	3c040000 	lui	a0,0x0
			2f28: R_MIPS_HI16	$LC9
    2f2c:	3c020000 	lui	v0,0x0
			2f2c: R_MIPS_HI16	printk
    2f30:	24840000 	addiu	a0,a0,0
			2f30: R_MIPS_LO16	$LC9
    2f34:	24420000 	addiu	v0,v0,0
			2f34: R_MIPS_LO16	printk
    2f38:	0040f809 	jalr	v0
    2f3c:	02402821 	move	a1,s2
    2f40:	32420040 	andi	v0,s2,0x40
    2f44:	1440ffa4 	bnez	v0,2dd8 <DevDsrHandler+0x238>
    2f48:	8e620000 	lw	v0,0(s3)
			2f48: R_MIPS_LO16	debughtc
    2f4c:	32420080 	andi	v0,s2,0x80
    2f50:	10400032 	beqz	v0,301c <DevDsrHandler+0x47c>
    2f54:	32420010 	andi	v0,s2,0x10
    2f58:	8e630000 	lw	v1,0(s3)
			2f58: R_MIPS_LO16	debughtc
    2f5c:	30620080 	andi	v0,v1,0x80
    2f60:	144000b6 	bnez	v0,323c <DevDsrHandler+0x69c>
    2f64:	3c160000 	lui	s6,0x0
			2f64: R_MIPS_HI16	debughtc
    2f68:	92340002 	lbu	s4,2(s1)
    2f6c:	3290000f 	andi	s0,s4,0xf
    2f70:	1200005a 	beqz	s0,30dc <DevDsrHandler+0x53c>
    2f74:	30620080 	andi	v0,v1,0x80
    2f78:	144000fb 	bnez	v0,3368 <DevDsrHandler+0x7c8>
    2f7c:	3c040000 	lui	a0,0x0
			2f7c: R_MIPS_HI16	$LC15
    2f80:	32820004 	andi	v0,s4,0x4
    2f84:	14400081 	bnez	v0,318c <DevDsrHandler+0x5ec>
    2f88:	8e620000 	lw	v0,0(s3)
			2f88: R_MIPS_LO16	debughtc
    2f8c:	32020002 	andi	v0,s0,0x2
    2f90:	14400087 	bnez	v0,31b0 <DevDsrHandler+0x610>
    2f94:	8e620000 	lw	v0,0(s3)
			2f94: R_MIPS_LO16	debughtc
    2f98:	32020001 	andi	v0,s0,0x1
    2f9c:	1040000a 	beqz	v0,2fc8 <DevDsrHandler+0x428>
    2fa0:	8e620000 	lw	v0,0(s3)
			2fa0: R_MIPS_LO16	debughtc
    2fa4:	30420080 	andi	v0,v0,0x80
    2fa8:	14400105 	bnez	v0,33c0 <DevDsrHandler+0x820>
    2fac:	3c040000 	lui	a0,0x0
			2fac: R_MIPS_HI16	$LC18
    2fb0:	8e2202d4 	lw	v0,724(s1)
    2fb4:	10400004 	beqz	v0,2fc8 <DevDsrHandler+0x428>
    2fb8:	00000000 	nop
    2fbc:	8e240028 	lw	a0,40(s1)
    2fc0:	0040f809 	jalr	v0
    2fc4:	24050003 	li	a1,3
    2fc8:	92230002 	lbu	v1,2(s1)
    2fcc:	00101027 	nor	v0,zero,s0
    2fd0:	00431024 	and	v0,v0,v1
    2fd4:	a2220002 	sb	v0,2(s1)
    2fd8:	2402015a 	li	v0,346
    2fdc:	8e240014 	lw	a0,20(s1)
    2fe0:	afa20010 	sw	v0,16(sp)
    2fe4:	3c020000 	lui	v0,0x0
			2fe4: R_MIPS_HI16	HIFReadWrite
    2fe8:	a3b00020 	sb	s0,32(sp)
    2fec:	24050402 	li	a1,1026
    2ff0:	27a60020 	addiu	a2,sp,32
    2ff4:	24070004 	li	a3,4
    2ff8:	a3a00021 	sb	zero,33(sp)
    2ffc:	a3a00022 	sb	zero,34(sp)
    3000:	a3a00023 	sb	zero,35(sp)
    3004:	24420000 	addiu	v0,v0,0
			3004: R_MIPS_LO16	HIFReadWrite
    3008:	0040f809 	jalr	v0
    300c:	afa00014 	sw	zero,20(sp)
    3010:	14400023 	bnez	v0,30a0 <DevDsrHandler+0x500>
    3014:	00408021 	move	s0,v0
    3018:	32420010 	andi	v0,s2,0x10
    301c:	1040feff 	beqz	v0,2c1c <DevDsrHandler+0x7c>
    3020:	00008021 	move	s0,zero
    3024:	8e620000 	lw	v0,0(s3)
			3024: R_MIPS_LO16	debughtc
    3028:	30420010 	andi	v0,v0,0x10
    302c:	144000b8 	bnez	v0,3310 <DevDsrHandler+0x770>
    3030:	3c040000 	lui	a0,0x0
			3030: R_MIPS_HI16	$LC19
    3034:	92230013 	lbu	v1,19(s1)
    3038:	92220003 	lbu	v0,3(s1)
    303c:	00438024 	and	s0,v0,v1
    3040:	12000043 	beqz	s0,3150 <DevDsrHandler+0x5b0>
    3044:	3c030000 	lui	v1,0x0
			3044: R_MIPS_HI16	debughtc
    3048:	8e620000 	lw	v0,0(s3)
			3048: R_MIPS_LO16	debughtc
    304c:	30420010 	andi	v0,v0,0x10
    3050:	144000a1 	bnez	v0,32d8 <DevDsrHandler+0x738>
    3054:	32020001 	andi	v0,s0,0x1
    3058:	144000a8 	bnez	v0,32fc <DevDsrHandler+0x75c>
    305c:	3c020000 	lui	v0,0x0
			305c: R_MIPS_HI16	.text
    3060:	08000b07 	j	2c1c <DevDsrHandler+0x7c>
			3060: R_MIPS_26	.text
    3064:	00008021 	move	s0,zero
    3068:	3c040000 	lui	a0,0x0
			3068: R_MIPS_HI16	$LC5
    306c:	3c020000 	lui	v0,0x0
			306c: R_MIPS_HI16	printk
    3070:	24840000 	addiu	a0,a0,0
			3070: R_MIPS_LO16	$LC5
    3074:	24420000 	addiu	v0,v0,0
			3074: R_MIPS_LO16	printk
    3078:	0040f809 	jalr	v0
    307c:	02202821 	move	a1,s1
    3080:	08000afc 	j	2bf0 <DevDsrHandler+0x50>
			3080: R_MIPS_26	.text
    3084:	92220010 	lbu	v0,16(s1)
    3088:	3c020000 	lui	v0,0x0
			3088: R_MIPS_HI16	printk
    308c:	24420000 	addiu	v0,v0,0
			308c: R_MIPS_LO16	printk
    3090:	0040f809 	jalr	v0
    3094:	24840000 	addiu	a0,a0,0
			3094: R_MIPS_LO16	$LC8
    3098:	08000bbb 	j	2eec <DevDsrHandler+0x34c>
			3098: R_MIPS_26	.text
    309c:	8e2202d8 	lw	v0,728(s1)
    30a0:	8e620000 	lw	v0,0(s3)
			30a0: R_MIPS_LO16	debughtc
    30a4:	30420080 	andi	v0,v0,0x80
    30a8:	1040fedc 	beqz	v0,2c1c <DevDsrHandler+0x7c>
    30ac:	3c040000 	lui	a0,0x0
			30ac: R_MIPS_HI16	$LC1
    30b0:	3c050000 	lui	a1,0x0
			30b0: R_MIPS_HI16	$LC2
    30b4:	3c070000 	lui	a3,0x0
			30b4: R_MIPS_HI16	$LC3
    30b8:	3c020000 	lui	v0,0x0
			30b8: R_MIPS_HI16	printk
    30bc:	24840000 	addiu	a0,a0,0
			30bc: R_MIPS_LO16	$LC1
    30c0:	24a50000 	addiu	a1,a1,0
			30c0: R_MIPS_LO16	$LC2
    30c4:	24e70000 	addiu	a3,a3,0
			30c4: R_MIPS_LO16	$LC3
    30c8:	24420000 	addiu	v0,v0,0
			30c8: R_MIPS_LO16	printk
    30cc:	0040f809 	jalr	v0
    30d0:	240600ff 	li	a2,255
    30d4:	08000b08 	j	2c20 <DevDsrHandler+0x80>
			30d4: R_MIPS_26	.text
    30d8:	8e620000 	lw	v0,0(s3)
			30d8: R_MIPS_LO16	debughtc
    30dc:	1040ffba 	beqz	v0,2fc8 <DevDsrHandler+0x428>
    30e0:	3c040000 	lui	a0,0x0
			30e0: R_MIPS_HI16	$LC1
    30e4:	3c050000 	lui	a1,0x0
			30e4: R_MIPS_HI16	$LC2
    30e8:	3c070000 	lui	a3,0x0
			30e8: R_MIPS_HI16	$LC14
    30ec:	3c020000 	lui	v0,0x0
			30ec: R_MIPS_HI16	printk
    30f0:	24840000 	addiu	a0,a0,0
			30f0: R_MIPS_LO16	$LC1
    30f4:	24a50000 	addiu	a1,a1,0
			30f4: R_MIPS_LO16	$LC2
    30f8:	24e70000 	addiu	a3,a3,0
			30f8: R_MIPS_LO16	$LC14
    30fc:	24420000 	addiu	v0,v0,0
			30fc: R_MIPS_LO16	printk
    3100:	0040f809 	jalr	v0
    3104:	240600d0 	li	a2,208
    3108:	8ec30000 	lw	v1,0(s6)
			3108: R_MIPS_LO16	debughtc
    310c:	30620080 	andi	v0,v1,0x80
    3110:	1040ff9c 	beqz	v0,2f84 <DevDsrHandler+0x3e4>
    3114:	32820004 	andi	v0,s4,0x4
    3118:	08000cda 	j	3368 <DevDsrHandler+0x7c8>
			3118: R_MIPS_26	.text
    311c:	3c040000 	lui	a0,0x0
			311c: R_MIPS_HI16	$LC15
    3120:	3c020000 	lui	v0,0x0
			3120: R_MIPS_HI16	debughtc
    3124:	8c430000 	lw	v1,0(v0)
			3124: R_MIPS_LO16	debughtc
    3128:	30630080 	andi	v1,v1,0x80
    312c:	1060ff02 	beqz	v1,2d38 <DevDsrHandler+0x198>
    3130:	30820001 	andi	v0,a0,0x1
    3134:	3c040000 	lui	a0,0x0
			3134: R_MIPS_HI16	$LC6
    3138:	3c020000 	lui	v0,0x0
			3138: R_MIPS_HI16	printk
    313c:	24420000 	addiu	v0,v0,0
			313c: R_MIPS_LO16	printk
    3140:	0040f809 	jalr	v0
    3144:	24840000 	addiu	a0,a0,0
			3144: R_MIPS_LO16	$LC6
    3148:	08000b4d 	j	2d34 <DevDsrHandler+0x194>
			3148: R_MIPS_26	.text
    314c:	8fa40020 	lw	a0,32(sp)
    3150:	8c620000 	lw	v0,0(v1)
			3150: R_MIPS_LO16	debughtc
    3154:	30420080 	andi	v0,v0,0x80
    3158:	1040ffbb 	beqz	v0,3048 <DevDsrHandler+0x4a8>
    315c:	3c040000 	lui	a0,0x0
			315c: R_MIPS_HI16	$LC1
    3160:	3c050000 	lui	a1,0x0
			3160: R_MIPS_HI16	$LC2
    3164:	3c070000 	lui	a3,0x0
			3164: R_MIPS_HI16	$LC20
    3168:	3c020000 	lui	v0,0x0
			3168: R_MIPS_HI16	printk
    316c:	24840000 	addiu	a0,a0,0
			316c: R_MIPS_LO16	$LC1
    3170:	24a50000 	addiu	a1,a1,0
			3170: R_MIPS_LO16	$LC2
    3174:	24e70000 	addiu	a3,a3,0
			3174: R_MIPS_LO16	$LC20
    3178:	24420000 	addiu	v0,v0,0
			3178: R_MIPS_LO16	printk
    317c:	0040f809 	jalr	v0
    3180:	24060126 	li	a2,294
    3184:	08000c13 	j	304c <DevDsrHandler+0x4ac>
			3184: R_MIPS_26	.text
    3188:	8e620000 	lw	v0,0(s3)
			3188: R_MIPS_LO16	debughtc
    318c:	30420010 	andi	v0,v0,0x10
    3190:	1040ff7e 	beqz	v0,2f8c <DevDsrHandler+0x3ec>
    3194:	3c040000 	lui	a0,0x0
			3194: R_MIPS_HI16	$LC16
    3198:	3c020000 	lui	v0,0x0
			3198: R_MIPS_HI16	printk
    319c:	24420000 	addiu	v0,v0,0
			319c: R_MIPS_LO16	printk
    31a0:	0040f809 	jalr	v0
    31a4:	24840000 	addiu	a0,a0,0
			31a4: R_MIPS_LO16	$LC16
    31a8:	08000be4 	j	2f90 <DevDsrHandler+0x3f0>
			31a8: R_MIPS_26	.text
    31ac:	32020002 	andi	v0,s0,0x2
    31b0:	30420080 	andi	v0,v0,0x80
    31b4:	14400076 	bnez	v0,3390 <DevDsrHandler+0x7f0>
    31b8:	3c040000 	lui	a0,0x0
			31b8: R_MIPS_HI16	$LC17
    31bc:	8e2202d4 	lw	v0,724(s1)
    31c0:	1040ff75 	beqz	v0,2f98 <DevDsrHandler+0x3f8>
    31c4:	00000000 	nop
    31c8:	8e240028 	lw	a0,40(s1)
    31cc:	0040f809 	jalr	v0
    31d0:	24050002 	li	a1,2
    31d4:	32020001 	andi	v0,s0,0x1
    31d8:	1440ff72 	bnez	v0,2fa4 <DevDsrHandler+0x404>
    31dc:	8e620000 	lw	v0,0(s3)
			31dc: R_MIPS_LO16	debughtc
    31e0:	08000bf3 	j	2fcc <DevDsrHandler+0x42c>
			31e0: R_MIPS_26	.text
    31e4:	92230002 	lbu	v1,2(s1)
    31e8:	3c020000 	lui	v0,0x0
			31e8: R_MIPS_HI16	printk
    31ec:	24840000 	addiu	a0,a0,0
			31ec: R_MIPS_LO16	$LC12
    31f0:	24420000 	addiu	v0,v0,0
			31f0: R_MIPS_LO16	printk
    31f4:	0040f809 	jalr	v0
    31f8:	02002821 	move	a1,s0
    31fc:	08000b88 	j	2e20 <DevDsrHandler+0x280>
			31fc: R_MIPS_26	.text
    3200:	92230001 	lbu	v1,1(s1)
    3204:	3c020000 	lui	v0,0x0
			3204: R_MIPS_HI16	printk
    3208:	24420000 	addiu	v0,v0,0
			3208: R_MIPS_LO16	printk
    320c:	0040f809 	jalr	v0
    3210:	24840000 	addiu	a0,a0,0
			3210: R_MIPS_LO16	$LC10
    3214:	08000b7a 	j	2de8 <DevDsrHandler+0x248>
			3214: R_MIPS_26	.text
    3218:	92230011 	lbu	v1,17(s1)
    321c:	3c040000 	lui	a0,0x0
			321c: R_MIPS_HI16	$LC4
    3220:	3c020000 	lui	v0,0x0
			3220: R_MIPS_HI16	printk
    3224:	24840000 	addiu	a0,a0,0
			3224: R_MIPS_LO16	$LC4
    3228:	24420000 	addiu	v0,v0,0
			3228: R_MIPS_LO16	printk
    322c:	0040f809 	jalr	v0
    3230:	02202821 	move	a1,s1
    3234:	08000af8 	j	2be0 <DevDsrHandler+0x40>
			3234: R_MIPS_26	.text
    3238:	8e620000 	lw	v0,0(s3)
			3238: R_MIPS_LO16	debughtc
    323c:	3c040000 	lui	a0,0x0
			323c: R_MIPS_HI16	$LC13
    3240:	3c020000 	lui	v0,0x0
			3240: R_MIPS_HI16	printk
    3244:	24420000 	addiu	v0,v0,0
			3244: R_MIPS_LO16	printk
    3248:	0040f809 	jalr	v0
    324c:	24840000 	addiu	a0,a0,0
			324c: R_MIPS_LO16	$LC13
    3250:	08000bda 	j	2f68 <DevDsrHandler+0x3c8>
			3250: R_MIPS_26	.text
    3254:	8ec30000 	lw	v1,0(s6)
			3254: R_MIPS_LO16	debughtc
    3258:	02202021 	move	a0,s1
    325c:	24420000 	addiu	v0,v0,0
			325c: R_MIPS_LO16	DevDumpRegisters
    3260:	0040f809 	jalr	v0
    3264:	26250010 	addiu	a1,s1,16
    3268:	92220010 	lbu	v0,16(s1)
    326c:	92230000 	lbu	v1,0(s1)
    3270:	8e240024 	lw	a0,36(s1)
    3274:	1480fecb 	bnez	a0,2da4 <DevDsrHandler+0x204>
    3278:	00629024 	and	s2,v1,v0
    327c:	32420001 	andi	v0,s2,0x1
    3280:	1040fec9 	beqz	v0,2da8 <DevDsrHandler+0x208>
    3284:	00000000 	nop
    3288:	92220005 	lbu	v0,5(s1)
    328c:	30420001 	andi	v0,v0,0x1
    3290:	1040fec5 	beqz	v0,2da8 <DevDsrHandler+0x208>
    3294:	325200fe 	andi	s2,s2,0xfe
    3298:	8e220008 	lw	v0,8(s1)
    329c:	1440fec2 	bnez	v0,2da8 <DevDsrHandler+0x208>
    32a0:	afa2001c 	sw	v0,28(sp)
    32a4:	3c020000 	lui	v0,0x0
			32a4: R_MIPS_HI16	debughtc
    32a8:	8c430000 	lw	v1,0(v0)
			32a8: R_MIPS_LO16	debughtc
    32ac:	30630080 	andi	v1,v1,0x80
    32b0:	1060febd 	beqz	v1,2da8 <DevDsrHandler+0x208>
    32b4:	3c040000 	lui	a0,0x0
			32b4: R_MIPS_HI16	$LC7
    32b8:	3c020000 	lui	v0,0x0
			32b8: R_MIPS_HI16	printk
    32bc:	24420000 	addiu	v0,v0,0
			32bc: R_MIPS_LO16	printk
    32c0:	0040f809 	jalr	v0
    32c4:	24840000 	addiu	a0,a0,0
			32c4: R_MIPS_LO16	$LC7
    32c8:	1640feb9 	bnez	s2,2db0 <DevDsrHandler+0x210>
    32cc:	8fa5001c 	lw	a1,28(sp)
    32d0:	08000bac 	j	2eb0 <DevDsrHandler+0x310>
			32d0: R_MIPS_26	.text
    32d4:	00000000 	nop
    32d8:	3c040000 	lui	a0,0x0
			32d8: R_MIPS_HI16	$LC21
    32dc:	3c020000 	lui	v0,0x0
			32dc: R_MIPS_HI16	printk
    32e0:	24840000 	addiu	a0,a0,0
			32e0: R_MIPS_LO16	$LC21
    32e4:	24420000 	addiu	v0,v0,0
			32e4: R_MIPS_LO16	printk
    32e8:	0040f809 	jalr	v0
    32ec:	02002821 	move	a1,s0
    32f0:	32020001 	andi	v0,s0,0x1
    32f4:	1040ff5a 	beqz	v0,3060 <DevDsrHandler+0x4c0>
    32f8:	3c020000 	lui	v0,0x0
			32f8: R_MIPS_HI16	.text
    32fc:	24422ab0 	addiu	v0,v0,10928
			32fc: R_MIPS_LO16	.text
    3300:	0040f809 	jalr	v0
    3304:	02202021 	move	a0,s1
    3308:	08000b07 	j	2c1c <DevDsrHandler+0x7c>
			3308: R_MIPS_26	.text
    330c:	00408021 	move	s0,v0
    3310:	3c020000 	lui	v0,0x0
			3310: R_MIPS_HI16	printk
    3314:	24420000 	addiu	v0,v0,0
			3314: R_MIPS_LO16	printk
    3318:	0040f809 	jalr	v0
    331c:	24840000 	addiu	a0,a0,0
			331c: R_MIPS_LO16	$LC19
    3320:	92230013 	lbu	v1,19(s1)
    3324:	92220003 	lbu	v0,3(s1)
    3328:	00438024 	and	s0,v0,v1
    332c:	1600ff47 	bnez	s0,304c <DevDsrHandler+0x4ac>
    3330:	8e620000 	lw	v0,0(s3)
			3330: R_MIPS_LO16	debughtc
    3334:	08000c54 	j	3150 <DevDsrHandler+0x5b0>
			3334: R_MIPS_26	.text
    3338:	3c030000 	lui	v1,0x0
			3338: R_MIPS_HI16	debughtc
    333c:	3c050000 	lui	a1,0x0
			333c: R_MIPS_HI16	$LC2
    3340:	3c070000 	lui	a3,0x0
			3340: R_MIPS_HI16	$LC11
    3344:	3c020000 	lui	v0,0x0
			3344: R_MIPS_HI16	printk
    3348:	24840000 	addiu	a0,a0,0
			3348: R_MIPS_LO16	$LC1
    334c:	24a50000 	addiu	a1,a1,0
			334c: R_MIPS_LO16	$LC2
    3350:	24e70000 	addiu	a3,a3,0
			3350: R_MIPS_LO16	$LC11
    3354:	24420000 	addiu	v0,v0,0
			3354: R_MIPS_LO16	printk
    3358:	0040f809 	jalr	v0
    335c:	240600a9 	li	a2,169
    3360:	08000b84 	j	2e10 <DevDsrHandler+0x270>
			3360: R_MIPS_26	.text
    3364:	8e620000 	lw	v0,0(s3)
			3364: R_MIPS_LO16	debughtc
    3368:	3c020000 	lui	v0,0x0
			3368: R_MIPS_HI16	printk
    336c:	24840000 	addiu	a0,a0,0
			336c: R_MIPS_LO16	$LC15
    3370:	24420000 	addiu	v0,v0,0
			3370: R_MIPS_LO16	printk
    3374:	0040f809 	jalr	v0
    3378:	02002821 	move	a1,s0
    337c:	32820004 	andi	v0,s4,0x4
    3380:	1040ff02 	beqz	v0,2f8c <DevDsrHandler+0x3ec>
    3384:	8e620000 	lw	v0,0(s3)
			3384: R_MIPS_LO16	debughtc
    3388:	08000c64 	j	3190 <DevDsrHandler+0x5f0>
			3388: R_MIPS_26	.text
    338c:	30420010 	andi	v0,v0,0x10
    3390:	3c020000 	lui	v0,0x0
			3390: R_MIPS_HI16	printk
    3394:	24420000 	addiu	v0,v0,0
			3394: R_MIPS_LO16	printk
    3398:	0040f809 	jalr	v0
    339c:	24840000 	addiu	a0,a0,0
			339c: R_MIPS_LO16	$LC17
    33a0:	08000c70 	j	31c0 <DevDsrHandler+0x620>
			33a0: R_MIPS_26	.text
    33a4:	8e2202d4 	lw	v0,724(s1)
    33a8:	3c020000 	lui	v0,0x0
			33a8: R_MIPS_HI16	printk
    33ac:	24420000 	addiu	v0,v0,0
			33ac: R_MIPS_LO16	printk
    33b0:	0040f809 	jalr	v0
    33b4:	24840000 	addiu	a0,a0,0
			33b4: R_MIPS_LO16	$LC23
    33b8:	08000b19 	j	2c64 <DevDsrHandler+0xc4>
			33b8: R_MIPS_26	.text
    33bc:	3c020000 	lui	v0,0x0
			33bc: R_MIPS_HI16	HIFAckInterrupt
    33c0:	3c020000 	lui	v0,0x0
			33c0: R_MIPS_HI16	printk
    33c4:	24420000 	addiu	v0,v0,0
			33c4: R_MIPS_LO16	printk
    33c8:	0040f809 	jalr	v0
    33cc:	24840000 	addiu	a0,a0,0
			33cc: R_MIPS_LO16	$LC18
    33d0:	08000bed 	j	2fb4 <DevDsrHandler+0x414>
			33d0: R_MIPS_26	.text
    33d4:	8e2202d4 	lw	v0,724(s1)

000033d8 <DevCheckPendingRecvMsgsAsync>:
    33d8:	27bdffd8 	addiu	sp,sp,-40
    33dc:	afb1001c 	sw	s1,28(sp)
    33e0:	afb00018 	sw	s0,24(sp)
    33e4:	afbf0020 	sw	ra,32(sp)
    33e8:	3c110000 	lui	s1,0x0
			33e8: R_MIPS_HI16	debughtc
    33ec:	8e220000 	lw	v0,0(s1)
			33ec: R_MIPS_LO16	debughtc
    33f0:	30420010 	andi	v0,v0,0x10
    33f4:	14400034 	bnez	v0,34c8 <DevCheckPendingRecvMsgsAsync+0xf0>
    33f8:	00808021 	move	s0,a0
    33fc:	8e0202dc 	lw	v0,732(s0)
    3400:	14400016 	bnez	v0,345c <DevCheckPendingRecvMsgsAsync+0x84>
    3404:	3c020000 	lui	v0,0x0
			3404: R_MIPS_HI16	AR6KAllocIOPacket
    3408:	00008021 	move	s0,zero
    340c:	8e220000 	lw	v0,0(s1)
			340c: R_MIPS_LO16	debughtc
    3410:	30420010 	andi	v0,v0,0x10
    3414:	14400007 	bnez	v0,3434 <DevCheckPendingRecvMsgsAsync+0x5c>
    3418:	3c020000 	lui	v0,0x0
			3418: R_MIPS_HI16	printk
    341c:	02001021 	move	v0,s0
    3420:	8fbf0020 	lw	ra,32(sp)
    3424:	8fb1001c 	lw	s1,28(sp)
    3428:	8fb00018 	lw	s0,24(sp)
    342c:	03e00008 	jr	ra
    3430:	27bd0028 	addiu	sp,sp,40
    3434:	3c040000 	lui	a0,0x0
			3434: R_MIPS_HI16	$LC28
    3438:	24420000 	addiu	v0,v0,0
			3438: R_MIPS_LO16	printk
    343c:	0040f809 	jalr	v0
    3440:	24840000 	addiu	a0,a0,0
			3440: R_MIPS_LO16	$LC28
    3444:	02001021 	move	v0,s0
    3448:	8fbf0020 	lw	ra,32(sp)
    344c:	8fb1001c 	lw	s1,28(sp)
    3450:	8fb00018 	lw	s0,24(sp)
    3454:	03e00008 	jr	ra
    3458:	27bd0028 	addiu	sp,sp,40
    345c:	24420000 	addiu	v0,v0,0
			345c: R_MIPS_LO16	AR6KAllocIOPacket
    3460:	0040f809 	jalr	v0
    3464:	02002021 	move	a0,s0
    3468:	1040001f 	beqz	v0,34e8 <DevCheckPendingRecvMsgsAsync+0x110>
    346c:	00401821 	move	v1,v0
    3470:	3c020000 	lui	v0,0x0
			3470: R_MIPS_HI16	.text
    3474:	24423558 	addiu	v0,v0,13656
			3474: R_MIPS_LO16	.text
    3478:	ac620028 	sw	v0,40(v1)
    347c:	ac70002c 	sw	s0,44(v1)
    3480:	8e020024 	lw	v0,36(s0)
    3484:	1040001e 	beqz	v0,3500 <DevCheckPendingRecvMsgsAsync+0x128>
    3488:	24050400 	li	a1,1024
    348c:	8e040014 	lw	a0,20(s0)
    3490:	8c650010 	lw	a1,16(v1)
    3494:	0040f809 	jalr	v0
    3498:	00603021 	move	a2,v1
    349c:	00408021 	move	s0,v0
    34a0:	8e220000 	lw	v0,0(s1)
			34a0: R_MIPS_LO16	debughtc
    34a4:	30420010 	andi	v0,v0,0x10
    34a8:	1040ffdc 	beqz	v0,341c <DevCheckPendingRecvMsgsAsync+0x44>
    34ac:	3c020000 	lui	v0,0x0
			34ac: R_MIPS_HI16	printk
    34b0:	3c040000 	lui	a0,0x0
			34b0: R_MIPS_HI16	$LC27
    34b4:	24420000 	addiu	v0,v0,0
			34b4: R_MIPS_LO16	printk
    34b8:	0040f809 	jalr	v0
    34bc:	24840000 	addiu	a0,a0,0
			34bc: R_MIPS_LO16	$LC27
    34c0:	08000d04 	j	3410 <DevCheckPendingRecvMsgsAsync+0x38>
			34c0: R_MIPS_26	.text
    34c4:	8e220000 	lw	v0,0(s1)
			34c4: R_MIPS_LO16	debughtc
    34c8:	3c040000 	lui	a0,0x0
			34c8: R_MIPS_HI16	$LC25
    34cc:	3c020000 	lui	v0,0x0
			34cc: R_MIPS_HI16	printk
    34d0:	24840000 	addiu	a0,a0,0
			34d0: R_MIPS_LO16	$LC25
    34d4:	24420000 	addiu	v0,v0,0
			34d4: R_MIPS_LO16	printk
    34d8:	0040f809 	jalr	v0
    34dc:	02002821 	move	a1,s0
    34e0:	08000d00 	j	3400 <DevCheckPendingRecvMsgsAsync+0x28>
			34e0: R_MIPS_26	.text
    34e4:	8e0202dc 	lw	v0,732(s0)
    34e8:	8e220000 	lw	v0,0(s1)
			34e8: R_MIPS_LO16	debughtc
    34ec:	30420080 	andi	v0,v0,0x80
    34f0:	1440000e 	bnez	v0,352c <DevCheckPendingRecvMsgsAsync+0x154>
    34f4:	3c050000 	lui	a1,0x0
			34f4: R_MIPS_HI16	$LC2
    34f8:	08000d03 	j	340c <DevCheckPendingRecvMsgsAsync+0x34>
			34f8: R_MIPS_26	.text
    34fc:	24100002 	li	s0,2
    3500:	24020269 	li	v0,617
    3504:	8e040014 	lw	a0,20(s0)
    3508:	8c660010 	lw	a2,16(v1)
    350c:	afa20010 	sw	v0,16(sp)
    3510:	3c020000 	lui	v0,0x0
			3510: R_MIPS_HI16	HIFReadWrite
    3514:	24070010 	li	a3,16
    3518:	24420000 	addiu	v0,v0,0
			3518: R_MIPS_LO16	HIFReadWrite
    351c:	0040f809 	jalr	v0
    3520:	afa30014 	sw	v1,20(sp)
    3524:	08000d28 	j	34a0 <DevCheckPendingRecvMsgsAsync+0xc8>
			3524: R_MIPS_26	.text
    3528:	00408021 	move	s0,v0
    352c:	3c040000 	lui	a0,0x0
			352c: R_MIPS_HI16	$LC1
    3530:	3c070000 	lui	a3,0x0
			3530: R_MIPS_HI16	$LC26
    3534:	3c020000 	lui	v0,0x0
			3534: R_MIPS_HI16	printk
    3538:	24840000 	addiu	a0,a0,0
			3538: R_MIPS_LO16	$LC1
    353c:	24a50000 	addiu	a1,a1,0
			353c: R_MIPS_LO16	$LC2
    3540:	24e70000 	addiu	a3,a3,0
			3540: R_MIPS_LO16	$LC26
    3544:	24420000 	addiu	v0,v0,0
			3544: R_MIPS_LO16	printk
    3548:	0040f809 	jalr	v0
    354c:	2406019f 	li	a2,415
    3550:	08000d03 	j	340c <DevCheckPendingRecvMsgsAsync+0x34>
			3550: R_MIPS_26	.text
    3554:	24100002 	li	s0,2

00003558 <DevGetEventAsyncHandler>:
    3558:	27bdffd0 	addiu	sp,sp,-48
    355c:	afb1001c 	sw	s1,28(sp)
    3560:	3c110000 	lui	s1,0x0
			3560: R_MIPS_HI16	debughtc
    3564:	8e220000 	lw	v0,0(s1)
			3564: R_MIPS_LO16	debughtc
    3568:	afb30024 	sw	s3,36(sp)
    356c:	30420010 	andi	v0,v0,0x10
    3570:	afb20020 	sw	s2,32(sp)
    3574:	afbf0028 	sw	ra,40(sp)
    3578:	afb00018 	sw	s0,24(sp)
    357c:	00809021 	move	s2,a0
    3580:	00a09821 	move	s3,a1
    3584:	1440005c 	bnez	v0,36f8 <DevGetEventAsyncHandler+0x1a0>
    3588:	afa00010 	sw	zero,16(sp)
    358c:	8e650020 	lw	a1,32(s3)
    3590:	10a00019 	beqz	a1,35f8 <DevGetEventAsyncHandler+0xa0>
    3594:	8e220000 	lw	v0,0(s1)
			3594: R_MIPS_LO16	debughtc
    3598:	30420080 	andi	v0,v0,0x80
    359c:	1440005e 	bnez	v0,3718 <DevGetEventAsyncHandler+0x1c0>
    35a0:	3c040000 	lui	a0,0x0
			35a0: R_MIPS_HI16	$LC30
    35a4:	3c020000 	lui	v0,0x0
			35a4: R_MIPS_HI16	AR6KFreeIOPacket
    35a8:	02402021 	move	a0,s2
    35ac:	24420000 	addiu	v0,v0,0
			35ac: R_MIPS_LO16	AR6KFreeIOPacket
    35b0:	0040f809 	jalr	v0
    35b4:	02602821 	move	a1,s3
    35b8:	8e230000 	lw	v1,0(s1)
			35b8: R_MIPS_LO16	debughtc
    35bc:	30630010 	andi	v1,v1,0x10
    35c0:	10600007 	beqz	v1,35e0 <DevGetEventAsyncHandler+0x88>
    35c4:	8fbf0028 	lw	ra,40(sp)
    35c8:	3c040000 	lui	a0,0x0
			35c8: R_MIPS_HI16	$LC35
    35cc:	3c020000 	lui	v0,0x0
			35cc: R_MIPS_HI16	printk
    35d0:	24420000 	addiu	v0,v0,0
			35d0: R_MIPS_LO16	printk
    35d4:	0040f809 	jalr	v0
    35d8:	24840000 	addiu	a0,a0,0
			35d8: R_MIPS_LO16	$LC35
    35dc:	8fbf0028 	lw	ra,40(sp)
    35e0:	8fb30024 	lw	s3,36(sp)
    35e4:	8fb20020 	lw	s2,32(sp)
    35e8:	8fb1001c 	lw	s1,28(sp)
    35ec:	8fb00018 	lw	s0,24(sp)
    35f0:	03e00008 	jr	ra
    35f4:	27bd0030 	addiu	sp,sp,48
    35f8:	8e420024 	lw	v0,36(s2)
    35fc:	10400018 	beqz	v0,3660 <DevGetEventAsyncHandler+0x108>
    3600:	00000000 	nop
    3604:	8e700010 	lw	s0,16(s3)
    3608:	8e030000 	lw	v1,0(s0)
    360c:	30620002 	andi	v0,v1,0x2
    3610:	10400006 	beqz	v0,362c <DevGetEventAsyncHandler+0xd4>
    3614:	30620001 	andi	v0,v1,0x1
    3618:	8e020004 	lw	v0,4(s0)
    361c:	10400044 	beqz	v0,3730 <DevGetEventAsyncHandler+0x1d8>
    3620:	afa20010 	sw	v0,16(sp)
    3624:	8e030000 	lw	v1,0(s0)
    3628:	30620001 	andi	v0,v1,0x1
    362c:	10400026 	beqz	v0,36c8 <DevGetEventAsyncHandler+0x170>
    3630:	8fa50010 	lw	a1,16(sp)
    3634:	24050001 	li	a1,1
    3638:	8e220000 	lw	v0,0(s1)
			3638: R_MIPS_LO16	debughtc
    363c:	30420010 	andi	v0,v0,0x10
    3640:	14400045 	bnez	v0,3758 <DevGetEventAsyncHandler+0x200>
    3644:	8fa60010 	lw	a2,16(sp)
    3648:	3c020000 	lui	v0,0x0
			3648: R_MIPS_HI16	HIFAckInterrupt
    364c:	24420000 	addiu	v0,v0,0
			364c: R_MIPS_LO16	HIFAckInterrupt
    3650:	0040f809 	jalr	v0
    3654:	8e440014 	lw	a0,20(s2)
    3658:	08000d6a 	j	35a8 <DevGetEventAsyncHandler+0x50>
			3658: R_MIPS_26	.text
    365c:	3c020000 	lui	v0,0x0
			365c: R_MIPS_HI16	AR6KFreeIOPacket
    3660:	8e650010 	lw	a1,16(s3)
    3664:	92420010 	lbu	v0,16(s2)
    3668:	90a30000 	lbu	v1,0(a1)
    366c:	00628024 	and	s0,v1,v0
    3670:	32040001 	andi	a0,s0,0x1
    3674:	10800011 	beqz	a0,36bc <DevGetEventAsyncHandler+0x164>
    3678:	00000000 	nop
    367c:	90a20005 	lbu	v0,5(a1)
    3680:	30420001 	andi	v0,v0,0x1
    3684:	1040000d 	beqz	v0,36bc <DevGetEventAsyncHandler+0x164>
    3688:	321000fe 	andi	s0,s0,0xfe
    368c:	88a2000b 	lwl	v0,11(a1)
    3690:	98a20008 	lwr	v0,8(a1)
    3694:	14400009 	bnez	v0,36bc <DevGetEventAsyncHandler+0x164>
    3698:	afa20010 	sw	v0,16(sp)
    369c:	8e220000 	lw	v0,0(s1)
			369c: R_MIPS_LO16	debughtc
    36a0:	30420080 	andi	v0,v0,0x80
    36a4:	10400005 	beqz	v0,36bc <DevGetEventAsyncHandler+0x164>
    36a8:	3c020000 	lui	v0,0x0
			36a8: R_MIPS_HI16	printk
    36ac:	3c040000 	lui	a0,0x0
			36ac: R_MIPS_HI16	$LC32
    36b0:	24420000 	addiu	v0,v0,0
			36b0: R_MIPS_LO16	printk
    36b4:	0040f809 	jalr	v0
    36b8:	24840000 	addiu	a0,a0,0
			36b8: R_MIPS_LO16	$LC32
    36bc:	1600ffde 	bnez	s0,3638 <DevGetEventAsyncHandler+0xe0>
    36c0:	24050001 	li	a1,1
    36c4:	8fa50010 	lw	a1,16(sp)
    36c8:	10a0ffdc 	beqz	a1,363c <DevGetEventAsyncHandler+0xe4>
    36cc:	8e220000 	lw	v0,0(s1)
			36cc: R_MIPS_LO16	debughtc
    36d0:	30420010 	andi	v0,v0,0x10
    36d4:	14400027 	bnez	v0,3774 <DevGetEventAsyncHandler+0x21c>
    36d8:	3c040000 	lui	a0,0x0
			36d8: R_MIPS_HI16	$LC34
    36dc:	8e4202d8 	lw	v0,728(s2)
    36e0:	8e440028 	lw	a0,40(s2)
    36e4:	27a50010 	addiu	a1,sp,16
    36e8:	0040f809 	jalr	v0
    36ec:	00003021 	move	a2,zero
    36f0:	08000d6a 	j	35a8 <DevGetEventAsyncHandler+0x50>
			36f0: R_MIPS_26	.text
    36f4:	3c020000 	lui	v0,0x0
			36f4: R_MIPS_HI16	AR6KFreeIOPacket
    36f8:	3c040000 	lui	a0,0x0
			36f8: R_MIPS_HI16	$LC29
    36fc:	3c020000 	lui	v0,0x0
			36fc: R_MIPS_HI16	printk
    3700:	24840000 	addiu	a0,a0,0
			3700: R_MIPS_LO16	$LC29
    3704:	24420000 	addiu	v0,v0,0
			3704: R_MIPS_LO16	printk
    3708:	0040f809 	jalr	v0
    370c:	02402821 	move	a1,s2
    3710:	08000d64 	j	3590 <DevGetEventAsyncHandler+0x38>
			3710: R_MIPS_26	.text
    3714:	8e650020 	lw	a1,32(s3)
    3718:	3c020000 	lui	v0,0x0
			3718: R_MIPS_HI16	printk
    371c:	24420000 	addiu	v0,v0,0
			371c: R_MIPS_LO16	printk
    3720:	0040f809 	jalr	v0
    3724:	24840000 	addiu	a0,a0,0
			3724: R_MIPS_LO16	$LC30
    3728:	08000d6a 	j	35a8 <DevGetEventAsyncHandler+0x50>
			3728: R_MIPS_26	.text
    372c:	3c020000 	lui	v0,0x0
			372c: R_MIPS_HI16	AR6KFreeIOPacket
    3730:	8e220000 	lw	v0,0(s1)
			3730: R_MIPS_LO16	debughtc
    3734:	30420080 	andi	v0,v0,0x80
    3738:	1040ffba 	beqz	v0,3624 <DevGetEventAsyncHandler+0xcc>
    373c:	3c040000 	lui	a0,0x0
			373c: R_MIPS_HI16	$LC31
    3740:	3c020000 	lui	v0,0x0
			3740: R_MIPS_HI16	printk
    3744:	24420000 	addiu	v0,v0,0
			3744: R_MIPS_LO16	printk
    3748:	0040f809 	jalr	v0
    374c:	24840000 	addiu	a0,a0,0
			374c: R_MIPS_LO16	$LC31
    3750:	08000d8a 	j	3628 <DevGetEventAsyncHandler+0xd0>
			3750: R_MIPS_26	.text
    3754:	8e030000 	lw	v1,0(s0)
    3758:	3c040000 	lui	a0,0x0
			3758: R_MIPS_HI16	$LC33
    375c:	3c020000 	lui	v0,0x0
			375c: R_MIPS_HI16	printk
    3760:	24420000 	addiu	v0,v0,0
			3760: R_MIPS_LO16	printk
    3764:	0040f809 	jalr	v0
    3768:	24840000 	addiu	a0,a0,0
			3768: R_MIPS_LO16	$LC33
    376c:	08000d93 	j	364c <DevGetEventAsyncHandler+0xf4>
			376c: R_MIPS_26	.text
    3770:	3c020000 	lui	v0,0x0
			3770: R_MIPS_HI16	HIFAckInterrupt
    3774:	3c020000 	lui	v0,0x0
			3774: R_MIPS_HI16	printk
    3778:	24420000 	addiu	v0,v0,0
			3778: R_MIPS_LO16	printk
    377c:	0040f809 	jalr	v0
    3780:	24840000 	addiu	a0,a0,0
			3780: R_MIPS_LO16	$LC34
    3784:	08000db8 	j	36e0 <DevGetEventAsyncHandler+0x188>
			3784: R_MIPS_26	.text
    3788:	8e4202d8 	lw	v0,728(s2)

0000378c <DevPollMboxMsgRecv>:
    378c:	27bdffb0 	addiu	sp,sp,-80
    3790:	afb40038 	sw	s4,56(sp)
    3794:	3c140000 	lui	s4,0x0
			3794: R_MIPS_HI16	debughtc
    3798:	8e820000 	lw	v0,0(s4)
			3798: R_MIPS_LO16	debughtc
    379c:	afb20030 	sw	s2,48(sp)
    37a0:	30420002 	andi	v0,v0,0x2
    37a4:	afbf004c 	sw	ra,76(sp)
    37a8:	afbe0048 	sw	s8,72(sp)
    37ac:	afb70044 	sw	s7,68(sp)
    37b0:	afb60040 	sw	s6,64(sp)
    37b4:	afb5003c 	sw	s5,60(sp)
    37b8:	afb30034 	sw	s3,52(sp)
    37bc:	afb1002c 	sw	s1,44(sp)
    37c0:	afb00028 	sw	s0,40(sp)
    37c4:	00809021 	move	s2,a0
    37c8:	1440006e 	bnez	v0,3984 <DevPollMboxMsgRecv+0x1f8>
    37cc:	afa50054 	sw	a1,84(sp)
    37d0:	3c021999 	lui	v0,0x1999
    37d4:	34559aa8 	ori	s5,v0,0x9aa8
    37d8:	3c030000 	lui	v1,0x0
			37d8: R_MIPS_HI16	printk
    37dc:	3c020000 	lui	v0,0x0
			37dc: R_MIPS_HI16	HIFReadWrite
    37e0:	24770000 	addiu	s7,v1,0
			37e0: R_MIPS_LO16	printk
    37e4:	245e0000 	addiu	s8,v0,0
			37e4: R_MIPS_LO16	HIFReadWrite
    37e8:	2411000a 	li	s1,10
    37ec:	02a0b021 	move	s6,s5
    37f0:	3c130000 	lui	s3,0x0
			37f0: R_MIPS_HI16	cpu_data
    37f4:	8e420024 	lw	v0,36(s2)
    37f8:	1040002d 	beqz	v0,38b0 <DevPollMboxMsgRecv+0x124>
    37fc:	00000000 	nop
    3800:	8e440014 	lw	a0,20(s2)
    3804:	27a50018 	addiu	a1,sp,24
    3808:	0040f809 	jalr	v0
    380c:	00003021 	move	a2,zero
    3810:	14400067 	bnez	v0,39b0 <DevPollMboxMsgRecv+0x224>
    3814:	00408021 	move	s0,v0
    3818:	8fa20018 	lw	v0,24(sp)
    381c:	30420002 	andi	v0,v0,0x2
    3820:	1440006b 	bnez	v0,39d0 <DevPollMboxMsgRecv+0x244>
    3824:	8e630000 	lw	v1,0(s3)
			3824: R_MIPS_LO16	cpu_data
    3828:	24050009 	li	a1,9
    382c:	02c02021 	move	a0,s6
    3830:	2406ffff 	li	a2,-1
    3834:	00830019 	multu	a0,v1
    3838:	00001010 	mfhi	v0
    383c:	00000000 	nop
    3840:	1440ffff 	bnez	v0,3840 <DevPollMboxMsgRecv+0xb4>
    3844:	2442ffff 	addiu	v0,v0,-1
    3848:	24a5ffff 	addiu	a1,a1,-1
    384c:	14a6fff9 	bne	a1,a2,3834 <DevPollMboxMsgRecv+0xa8>
    3850:	00000000 	nop
    3854:	2631ffff 	addiu	s1,s1,-1
    3858:	1220002b 	beqz	s1,3908 <DevPollMboxMsgRecv+0x17c>
    385c:	8e630000 	lw	v1,0(s3)
			385c: R_MIPS_LO16	cpu_data
    3860:	24050009 	li	a1,9
    3864:	02a02021 	move	a0,s5
    3868:	2406ffff 	li	a2,-1
    386c:	00830019 	multu	a0,v1
    3870:	00001010 	mfhi	v0
    3874:	00000000 	nop
    3878:	1440ffff 	bnez	v0,3878 <DevPollMboxMsgRecv+0xec>
    387c:	2442ffff 	addiu	v0,v0,-1
    3880:	24a5ffff 	addiu	a1,a1,-1
    3884:	14a6fff9 	bne	a1,a2,386c <DevPollMboxMsgRecv+0xe0>
    3888:	8e820000 	lw	v0,0(s4)
			3888: R_MIPS_LO16	debughtc
    388c:	30420002 	andi	v0,v0,0x2
    3890:	1040ffd8 	beqz	v0,37f4 <DevPollMboxMsgRecv+0x68>
    3894:	3c040000 	lui	a0,0x0
			3894: R_MIPS_HI16	$LC40
    3898:	24840000 	addiu	a0,a0,0
			3898: R_MIPS_LO16	$LC40
    389c:	02e0f809 	jalr	s7
    38a0:	02202821 	move	a1,s1
    38a4:	8e420024 	lw	v0,36(s2)
    38a8:	1440ffd5 	bnez	v0,3800 <DevPollMboxMsgRecv+0x74>
    38ac:	00000000 	nop
    38b0:	8e440014 	lw	a0,20(s2)
    38b4:	24020259 	li	v0,601
    38b8:	24050400 	li	a1,1024
    38bc:	02403021 	move	a2,s2
    38c0:	24070010 	li	a3,16
    38c4:	afa20010 	sw	v0,16(sp)
    38c8:	03c0f809 	jalr	s8
    38cc:	afa00014 	sw	zero,20(sp)
    38d0:	14400043 	bnez	v0,39e0 <DevPollMboxMsgRecv+0x254>
    38d4:	00408021 	move	s0,v0
    38d8:	92420000 	lbu	v0,0(s2)
    38dc:	30420001 	andi	v0,v0,0x1
    38e0:	1040ffdc 	beqz	v0,3854 <DevPollMboxMsgRecv+0xc8>
    38e4:	00000000 	nop
    38e8:	92420005 	lbu	v0,5(s2)
    38ec:	30420001 	andi	v0,v0,0x1
    38f0:	1040ffd9 	beqz	v0,3858 <DevPollMboxMsgRecv+0xcc>
    38f4:	2631ffff 	addiu	s1,s1,-1
    38f8:	8e420008 	lw	v0,8(s2)
    38fc:	8fa30054 	lw	v1,84(sp)
    3900:	08000e4b 	j	392c <DevPollMboxMsgRecv+0x1a0>
			3900: R_MIPS_26	.text
    3904:	ac620000 	sw	v0,0(v1)
    3908:	8e820000 	lw	v0,0(s4)
			3908: R_MIPS_LO16	debughtc
    390c:	30420080 	andi	v0,v0,0x80
    3910:	14400023 	bnez	v0,39a0 <DevPollMboxMsgRecv+0x214>
    3914:	3c040000 	lui	a0,0x0
			3914: R_MIPS_HI16	$LC39
    3918:	92420003 	lbu	v0,3(s2)
    391c:	30420001 	andi	v0,v0,0x1
    3920:	14400037 	bnez	v0,3a00 <DevPollMboxMsgRecv+0x274>
    3924:	3c020000 	lui	v0,0x0
			3924: R_MIPS_HI16	.text
    3928:	2410ffff 	li	s0,-1
    392c:	8e820000 	lw	v0,0(s4)
			392c: R_MIPS_LO16	debughtc
    3930:	30420002 	andi	v0,v0,0x2
    3934:	10400007 	beqz	v0,3954 <DevPollMboxMsgRecv+0x1c8>
    3938:	02001021 	move	v0,s0
    393c:	3c040000 	lui	a0,0x0
			393c: R_MIPS_HI16	$LC41
    3940:	3c020000 	lui	v0,0x0
			3940: R_MIPS_HI16	printk
    3944:	24420000 	addiu	v0,v0,0
			3944: R_MIPS_LO16	printk
    3948:	0040f809 	jalr	v0
    394c:	24840000 	addiu	a0,a0,0
			394c: R_MIPS_LO16	$LC41
    3950:	02001021 	move	v0,s0
    3954:	8fbf004c 	lw	ra,76(sp)
    3958:	8fbe0048 	lw	s8,72(sp)
    395c:	8fb70044 	lw	s7,68(sp)
    3960:	8fb60040 	lw	s6,64(sp)
    3964:	8fb5003c 	lw	s5,60(sp)
    3968:	8fb40038 	lw	s4,56(sp)
    396c:	8fb30034 	lw	s3,52(sp)
    3970:	8fb20030 	lw	s2,48(sp)
    3974:	8fb1002c 	lw	s1,44(sp)
    3978:	8fb00028 	lw	s0,40(sp)
    397c:	03e00008 	jr	ra
    3980:	27bd0050 	addiu	sp,sp,80
    3984:	3c040000 	lui	a0,0x0
			3984: R_MIPS_HI16	$LC36
    3988:	3c020000 	lui	v0,0x0
			3988: R_MIPS_HI16	printk
    398c:	24420000 	addiu	v0,v0,0
			398c: R_MIPS_LO16	printk
    3990:	0040f809 	jalr	v0
    3994:	24840000 	addiu	a0,a0,0
			3994: R_MIPS_LO16	$LC36
    3998:	08000df5 	j	37d4 <DevPollMboxMsgRecv+0x48>
			3998: R_MIPS_26	.text
    399c:	3c021999 	lui	v0,0x1999
    39a0:	02e0f809 	jalr	s7
    39a4:	24840000 	addiu	a0,a0,0
			39a4: R_MIPS_LO16	$LC39
    39a8:	08000e47 	j	391c <DevPollMboxMsgRecv+0x190>
			39a8: R_MIPS_26	.text
    39ac:	92420003 	lbu	v0,3(s2)
    39b0:	8e820000 	lw	v0,0(s4)
			39b0: R_MIPS_LO16	debughtc
    39b4:	30420080 	andi	v0,v0,0x80
    39b8:	1040ffdc 	beqz	v0,392c <DevPollMboxMsgRecv+0x1a0>
    39bc:	3c040000 	lui	a0,0x0
			39bc: R_MIPS_HI16	$LC37
    39c0:	02e0f809 	jalr	s7
    39c4:	24840000 	addiu	a0,a0,0
			39c4: R_MIPS_LO16	$LC37
    39c8:	08000e4c 	j	3930 <DevPollMboxMsgRecv+0x1a4>
			39c8: R_MIPS_26	.text
    39cc:	8e820000 	lw	v0,0(s4)
			39cc: R_MIPS_LO16	debughtc
    39d0:	8fa2001c 	lw	v0,28(sp)
    39d4:	8fa30054 	lw	v1,84(sp)
    39d8:	08000e4b 	j	392c <DevPollMboxMsgRecv+0x1a0>
			39d8: R_MIPS_26	.text
    39dc:	ac620000 	sw	v0,0(v1)
    39e0:	8e820000 	lw	v0,0(s4)
			39e0: R_MIPS_LO16	debughtc
    39e4:	30420080 	andi	v0,v0,0x80
    39e8:	1040ffd0 	beqz	v0,392c <DevPollMboxMsgRecv+0x1a0>
    39ec:	3c040000 	lui	a0,0x0
			39ec: R_MIPS_HI16	$LC38
    39f0:	02e0f809 	jalr	s7
    39f4:	24840000 	addiu	a0,a0,0
			39f4: R_MIPS_LO16	$LC38
    39f8:	08000e4c 	j	3930 <DevPollMboxMsgRecv+0x1a4>
			39f8: R_MIPS_26	.text
    39fc:	8e820000 	lw	v0,0(s4)
			39fc: R_MIPS_LO16	debughtc
    3a00:	24422ab0 	addiu	v0,v0,10928
			3a00: R_MIPS_LO16	.text
    3a04:	0040f809 	jalr	v0
    3a08:	02402021 	move	a0,s2
    3a0c:	08000e4b 	j	392c <DevPollMboxMsgRecv+0x1a0>
			3a0c: R_MIPS_26	.text
    3a10:	2410ffff 	li	s0,-1
	...

00003a20 <DumpCreditDist>:
    3a20:	27bdffe0 	addiu	sp,sp,-32
    3a24:	afb10014 	sw	s1,20(sp)
    3a28:	afb00010 	sw	s0,16(sp)
    3a2c:	afbf001c 	sw	ra,28(sp)
    3a30:	afb20018 	sw	s2,24(sp)
    3a34:	3c110000 	lui	s1,0x0
			3a34: R_MIPS_HI16	debughtc
    3a38:	96220000 	lhu	v0,0(s1)
			3a38: R_MIPS_LO16	debughtc
    3a3c:	14400007 	bnez	v0,3a5c <DumpCreditDist+0x3c>
    3a40:	00808021 	move	s0,a0
    3a44:	8fbf001c 	lw	ra,28(sp)
    3a48:	8fb20018 	lw	s2,24(sp)
    3a4c:	8fb10014 	lw	s1,20(sp)
    3a50:	8fb00010 	lw	s0,16(sp)
    3a54:	03e00008 	jr	ra
    3a58:	27bd0020 	addiu	sp,sp,32
    3a5c:	8c85000c 	lw	a1,12(a0)
    3a60:	94860008 	lhu	a2,8(a0)
    3a64:	3c020000 	lui	v0,0x0
			3a64: R_MIPS_HI16	printk
    3a68:	3c040000 	lui	a0,0x0
			3a68: R_MIPS_HI16	$LC0
    3a6c:	24520000 	addiu	s2,v0,0
			3a6c: R_MIPS_LO16	printk
    3a70:	0240f809 	jalr	s2
    3a74:	24840000 	addiu	a0,a0,0
			3a74: R_MIPS_LO16	$LC0
    3a78:	96230000 	lhu	v1,0(s1)
			3a78: R_MIPS_LO16	debughtc
    3a7c:	1060fff2 	beqz	v1,3a48 <DumpCreditDist+0x28>
    3a80:	8fbf001c 	lw	ra,28(sp)
    3a84:	8e060000 	lw	a2,0(s0)
    3a88:	8e070004 	lw	a3,4(s0)
    3a8c:	3c040000 	lui	a0,0x0
			3a8c: R_MIPS_HI16	$LC1
    3a90:	24840000 	addiu	a0,a0,0
			3a90: R_MIPS_LO16	$LC1
    3a94:	0240f809 	jalr	s2
    3a98:	02002821 	move	a1,s0
    3a9c:	96230000 	lhu	v1,0(s1)
			3a9c: R_MIPS_LO16	debughtc
    3aa0:	1060ffe9 	beqz	v1,3a48 <DumpCreditDist+0x28>
    3aa4:	8fbf001c 	lw	ra,28(sp)
    3aa8:	8e050010 	lw	a1,16(s0)
    3aac:	3c040000 	lui	a0,0x0
			3aac: R_MIPS_HI16	$LC2
    3ab0:	0240f809 	jalr	s2
    3ab4:	24840000 	addiu	a0,a0,0
			3ab4: R_MIPS_LO16	$LC2
    3ab8:	96230000 	lhu	v1,0(s1)
			3ab8: R_MIPS_LO16	debughtc
    3abc:	1060ffe2 	beqz	v1,3a48 <DumpCreditDist+0x28>
    3ac0:	8fbf001c 	lw	ra,28(sp)
    3ac4:	8e050014 	lw	a1,20(s0)
    3ac8:	3c040000 	lui	a0,0x0
			3ac8: R_MIPS_HI16	$LC3
    3acc:	0240f809 	jalr	s2
    3ad0:	24840000 	addiu	a0,a0,0
			3ad0: R_MIPS_LO16	$LC3
    3ad4:	96230000 	lhu	v1,0(s1)
			3ad4: R_MIPS_LO16	debughtc
    3ad8:	1060ffdb 	beqz	v1,3a48 <DumpCreditDist+0x28>
    3adc:	8fbf001c 	lw	ra,28(sp)
    3ae0:	8e050018 	lw	a1,24(s0)
    3ae4:	3c040000 	lui	a0,0x0
			3ae4: R_MIPS_HI16	$LC4
    3ae8:	0240f809 	jalr	s2
    3aec:	24840000 	addiu	a0,a0,0
			3aec: R_MIPS_LO16	$LC4
    3af0:	96230000 	lhu	v1,0(s1)
			3af0: R_MIPS_LO16	debughtc
    3af4:	1060ffd4 	beqz	v1,3a48 <DumpCreditDist+0x28>
    3af8:	8fbf001c 	lw	ra,28(sp)
    3afc:	8e050020 	lw	a1,32(s0)
    3b00:	3c040000 	lui	a0,0x0
			3b00: R_MIPS_HI16	$LC5
    3b04:	0240f809 	jalr	s2
    3b08:	24840000 	addiu	a0,a0,0
			3b08: R_MIPS_LO16	$LC5
    3b0c:	96230000 	lhu	v1,0(s1)
			3b0c: R_MIPS_LO16	debughtc
    3b10:	1060ffcd 	beqz	v1,3a48 <DumpCreditDist+0x28>
    3b14:	8fbf001c 	lw	ra,28(sp)
    3b18:	8e05001c 	lw	a1,28(s0)
    3b1c:	3c040000 	lui	a0,0x0
			3b1c: R_MIPS_HI16	$LC6
    3b20:	0240f809 	jalr	s2
    3b24:	24840000 	addiu	a0,a0,0
			3b24: R_MIPS_LO16	$LC6
    3b28:	96230000 	lhu	v1,0(s1)
			3b28: R_MIPS_LO16	debughtc
    3b2c:	1060ffc6 	beqz	v1,3a48 <DumpCreditDist+0x28>
    3b30:	8fbf001c 	lw	ra,28(sp)
    3b34:	8e050028 	lw	a1,40(s0)
    3b38:	3c040000 	lui	a0,0x0
			3b38: R_MIPS_HI16	$LC7
    3b3c:	0240f809 	jalr	s2
    3b40:	24840000 	addiu	a0,a0,0
			3b40: R_MIPS_LO16	$LC7
    3b44:	96230000 	lhu	v1,0(s1)
			3b44: R_MIPS_LO16	debughtc
    3b48:	1060ffbf 	beqz	v1,3a48 <DumpCreditDist+0x28>
    3b4c:	8fbf001c 	lw	ra,28(sp)
    3b50:	8e05002c 	lw	a1,44(s0)
    3b54:	3c040000 	lui	a0,0x0
			3b54: R_MIPS_HI16	$LC8
    3b58:	0240f809 	jalr	s2
    3b5c:	24840000 	addiu	a0,a0,0
			3b5c: R_MIPS_LO16	$LC8
    3b60:	96230000 	lhu	v1,0(s1)
			3b60: R_MIPS_LO16	debughtc
    3b64:	1060ffb8 	beqz	v1,3a48 <DumpCreditDist+0x28>
    3b68:	8fbf001c 	lw	ra,28(sp)
    3b6c:	8e050030 	lw	a1,48(s0)
    3b70:	3c040000 	lui	a0,0x0
			3b70: R_MIPS_HI16	$LC9
    3b74:	0240f809 	jalr	s2
    3b78:	24840000 	addiu	a0,a0,0
			3b78: R_MIPS_LO16	$LC9
    3b7c:	96230000 	lhu	v1,0(s1)
			3b7c: R_MIPS_LO16	debughtc
    3b80:	1060ffb1 	beqz	v1,3a48 <DumpCreditDist+0x28>
    3b84:	8fbf001c 	lw	ra,28(sp)
    3b88:	8e050024 	lw	a1,36(s0)
    3b8c:	3c040000 	lui	a0,0x0
			3b8c: R_MIPS_HI16	$LC10
    3b90:	0240f809 	jalr	s2
    3b94:	24840000 	addiu	a0,a0,0
			3b94: R_MIPS_LO16	$LC10
    3b98:	96230000 	lhu	v1,0(s1)
			3b98: R_MIPS_LO16	debughtc
    3b9c:	1060ffaa 	beqz	v1,3a48 <DumpCreditDist+0x28>
    3ba0:	8fbf001c 	lw	ra,28(sp)
    3ba4:	8e020034 	lw	v0,52(s0)
    3ba8:	3c040000 	lui	a0,0x0
			3ba8: R_MIPS_HI16	$LC11
    3bac:	8c45006c 	lw	a1,108(v0)
    3bb0:	0240f809 	jalr	s2
    3bb4:	24840000 	addiu	a0,a0,0
			3bb4: R_MIPS_LO16	$LC11
    3bb8:	96230000 	lhu	v1,0(s1)
			3bb8: R_MIPS_LO16	debughtc
    3bbc:	1060ffa1 	beqz	v1,3a44 <DumpCreditDist+0x24>
    3bc0:	0240c821 	move	t9,s2
    3bc4:	3c040000 	lui	a0,0x0
			3bc4: R_MIPS_HI16	$LC12
    3bc8:	8fbf001c 	lw	ra,28(sp)
    3bcc:	8fb20018 	lw	s2,24(sp)
    3bd0:	8fb10014 	lw	s1,20(sp)
    3bd4:	8fb00010 	lw	s0,16(sp)
    3bd8:	24840000 	addiu	a0,a0,0
			3bd8: R_MIPS_LO16	$LC12
    3bdc:	03200008 	jr	t9
    3be0:	27bd0020 	addiu	sp,sp,32

00003be4 <DumpCreditDistStates>:
    3be4:	27bdffd8 	addiu	sp,sp,-40
    3be8:	afb20020 	sw	s2,32(sp)
    3bec:	afbf0024 	sw	ra,36(sp)
    3bf0:	afb1001c 	sw	s1,28(sp)
    3bf4:	afb00018 	sw	s0,24(sp)
    3bf8:	8c9005f8 	lw	s0,1528(a0)
    3bfc:	12000008 	beqz	s0,3c20 <DumpCreditDistStates+0x3c>
    3c00:	00809021 	move	s2,a0
    3c04:	3c020000 	lui	v0,0x0
			3c04: R_MIPS_HI16	DumpCreditDist
    3c08:	24510000 	addiu	s1,v0,0
			3c08: R_MIPS_LO16	DumpCreditDist
    3c0c:	0220f809 	jalr	s1
    3c10:	02002021 	move	a0,s0
    3c14:	8e100000 	lw	s0,0(s0)
    3c18:	1600fffc 	bnez	s0,3c0c <DumpCreditDistStates+0x28>
    3c1c:	00000000 	nop
    3c20:	8e59060c 	lw	t9,1548(s2)
    3c24:	13200021 	beqz	t9,3cac <DumpCreditDistStates+0xc8>
    3c28:	3c030000 	lui	v1,0x0
			3c28: R_MIPS_HI16	debughtc
    3c2c:	8c620000 	lw	v0,0(v1)
			3c2c: R_MIPS_LO16	debughtc
    3c30:	30420001 	andi	v0,v0,0x1
    3c34:	14400009 	bnez	v0,3c5c <DumpCreditDistStates+0x78>
    3c38:	8fbf0024 	lw	ra,36(sp)
    3c3c:	8e440614 	lw	a0,1556(s2)
    3c40:	8fb20020 	lw	s2,32(sp)
    3c44:	8fb1001c 	lw	s1,28(sp)
    3c48:	8fb00018 	lw	s0,24(sp)
    3c4c:	00002821 	move	a1,zero
    3c50:	24060003 	li	a2,3
    3c54:	03200008 	jr	t9
    3c58:	27bd0028 	addiu	sp,sp,40
    3c5c:	8e470614 	lw	a3,1556(s2)
    3c60:	3c040000 	lui	a0,0x0
			3c60: R_MIPS_HI16	$LC13
    3c64:	3c050000 	lui	a1,0x0
			3c64: R_MIPS_HI16	$LC14
    3c68:	3c020000 	lui	v0,0x0
			3c68: R_MIPS_HI16	printk
    3c6c:	03203021 	move	a2,t9
    3c70:	24840000 	addiu	a0,a0,0
			3c70: R_MIPS_LO16	$LC13
    3c74:	24a50000 	addiu	a1,a1,0
			3c74: R_MIPS_LO16	$LC14
    3c78:	24420000 	addiu	v0,v0,0
			3c78: R_MIPS_LO16	printk
    3c7c:	0040f809 	jalr	v0
    3c80:	afa00010 	sw	zero,16(sp)
    3c84:	8e59060c 	lw	t9,1548(s2)
    3c88:	8e440614 	lw	a0,1556(s2)
    3c8c:	8fbf0024 	lw	ra,36(sp)
    3c90:	8fb20020 	lw	s2,32(sp)
    3c94:	8fb1001c 	lw	s1,28(sp)
    3c98:	8fb00018 	lw	s0,24(sp)
    3c9c:	00002821 	move	a1,zero
    3ca0:	24060003 	li	a2,3
    3ca4:	03200008 	jr	t9
    3ca8:	27bd0028 	addiu	sp,sp,40
    3cac:	8fbf0024 	lw	ra,36(sp)
    3cb0:	8fb20020 	lw	s2,32(sp)
    3cb4:	8fb1001c 	lw	s1,28(sp)
    3cb8:	8fb00018 	lw	s0,24(sp)
    3cbc:	03e00008 	jr	ra
    3cc0:	27bd0028 	addiu	sp,sp,40

00003cc4 <HTCSendPktCompletionHandler>:
    3cc4:	27bdffe0 	addiu	sp,sp,-32
    3cc8:	afb10014 	sw	s1,20(sp)
    3ccc:	afb00010 	sw	s0,16(sp)
    3cd0:	afbf0018 	sw	ra,24(sp)
    3cd4:	8ca6001c 	lw	a2,28(a1)
    3cd8:	00a08021 	move	s0,a1
    3cdc:	000618c0 	sll	v1,a2,0x3
    3ce0:	000611c0 	sll	v0,a2,0x7
    3ce4:	8ca50020 	lw	a1,32(a1)
    3ce8:	00431023 	subu	v0,v0,v1
    3cec:	10a00007 	beqz	a1,3d0c <HTCSendPktCompletionHandler+0x48>
    3cf0:	00828821 	addu	s1,a0,v0
    3cf4:	3c020000 	lui	v0,0x0
			3cf4: R_MIPS_HI16	debughtc
    3cf8:	8c430000 	lw	v1,0(v0)
			3cf8: R_MIPS_LO16	debughtc
    3cfc:	3c040000 	lui	a0,0x0
			3cfc: R_MIPS_HI16	$LC15
    3d00:	30630080 	andi	v1,v1,0x80
    3d04:	1460000d 	bnez	v1,3d3c <HTCSendPktCompletionHandler+0x78>
    3d08:	24840000 	addiu	a0,a0,0
			3d08: R_MIPS_LO16	$LC15
    3d0c:	8e020010 	lw	v0,16(s0)
    3d10:	ae000028 	sw	zero,40(s0)
    3d14:	24420006 	addiu	v0,v0,6
    3d18:	ae020010 	sw	v0,16(s0)
    3d1c:	8e240050 	lw	a0,80(s1)
    3d20:	8e390054 	lw	t9,84(s1)
    3d24:	02002821 	move	a1,s0
    3d28:	8fbf0018 	lw	ra,24(sp)
    3d2c:	8fb10014 	lw	s1,20(sp)
    3d30:	8fb00010 	lw	s0,16(sp)
    3d34:	03200008 	jr	t9
    3d38:	27bd0020 	addiu	sp,sp,32
    3d3c:	3c020000 	lui	v0,0x0
			3d3c: R_MIPS_HI16	printk
    3d40:	24420000 	addiu	v0,v0,0
			3d40: R_MIPS_LO16	printk
    3d44:	0040f809 	jalr	v0
    3d48:	00000000 	nop
    3d4c:	8e020010 	lw	v0,16(s0)
    3d50:	ae000028 	sw	zero,40(s0)
    3d54:	24420006 	addiu	v0,v0,6
    3d58:	ae020010 	sw	v0,16(s0)
    3d5c:	8e240050 	lw	a0,80(s1)
    3d60:	8e390054 	lw	t9,84(s1)
    3d64:	02002821 	move	a1,s0
    3d68:	8fbf0018 	lw	ra,24(sp)
    3d6c:	8fb10014 	lw	s1,20(sp)
    3d70:	8fb00010 	lw	s0,16(sp)
    3d74:	03200008 	jr	t9
    3d78:	27bd0020 	addiu	sp,sp,32

00003d7c <HTCFlushEndpointTX>:
    3d7c:	27bdffc8 	addiu	sp,sp,-56
    3d80:	afb20028 	sw	s2,40(sp)
    3d84:	3c020000 	lui	v0,0x0
			3d84: R_MIPS_HI16	local_bh_disable
    3d88:	27b20018 	addiu	s2,sp,24
    3d8c:	afb10024 	sw	s1,36(sp)
    3d90:	afb00020 	sw	s0,32(sp)
    3d94:	afbf0034 	sw	ra,52(sp)
    3d98:	afb40030 	sw	s4,48(sp)
    3d9c:	afb3002c 	sw	s3,44(sp)
    3da0:	afb20018 	sw	s2,24(sp)
    3da4:	afb2001c 	sw	s2,28(sp)
    3da8:	24420000 	addiu	v0,v0,0
			3da8: R_MIPS_LO16	local_bh_disable
    3dac:	00a08821 	move	s1,a1
    3db0:	0040f809 	jalr	v0
    3db4:	30d0ffff 	andi	s0,a2,0xffff
    3db8:	8f820014 	lw	v0,20(gp)
    3dbc:	24420001 	addiu	v0,v0,1
    3dc0:	af820014 	sw	v0,20(gp)
    3dc4:	8e260008 	lw	a2,8(s1)
    3dc8:	26270004 	addiu	a3,s1,4
    3dcc:	10c70017 	beq	a2,a3,3e2c <HTCFlushEndpointTX+0xb0>
    3dd0:	00000000 	nop
    3dd4:	00c02821 	move	a1,a2
    3dd8:	12000004 	beqz	s0,3dec <HTCFlushEndpointTX+0x70>
    3ddc:	8cc60004 	lw	a2,4(a2)
    3de0:	94a20024 	lhu	v0,36(a1)
    3de4:	1450fff9 	bne	v0,s0,3dcc <HTCFlushEndpointTX+0x50>
    3de8:	00000000 	nop
    3dec:	8ca20000 	lw	v0,0(a1)
    3df0:	8ca40004 	lw	a0,4(a1)
    3df4:	ac820000 	sw	v0,0(a0)
    3df8:	8ca30000 	lw	v1,0(a1)
    3dfc:	aca50000 	sw	a1,0(a1)
    3e00:	8fa20018 	lw	v0,24(sp)
    3e04:	ac640004 	sw	a0,4(v1)
    3e08:	aca20000 	sw	v0,0(a1)
    3e0c:	8fa30018 	lw	v1,24(sp)
    3e10:	acb20004 	sw	s2,4(a1)
    3e14:	ac650004 	sw	a1,4(v1)
    3e18:	8e22006c 	lw	v0,108(s1)
    3e1c:	afa50018 	sw	a1,24(sp)
    3e20:	2442ffff 	addiu	v0,v0,-1
    3e24:	14c7ffeb 	bne	a2,a3,3dd4 <HTCFlushEndpointTX+0x58>
    3e28:	ae22006c 	sw	v0,108(s1)
    3e2c:	8f830014 	lw	v1,20(gp)
    3e30:	3c040000 	lui	a0,0x0
			3e30: R_MIPS_HI16	local_bh_enable
    3e34:	2463ffff 	addiu	v1,v1,-1
    3e38:	24840000 	addiu	a0,a0,0
			3e38: R_MIPS_LO16	local_bh_enable
    3e3c:	0080f809 	jalr	a0
    3e40:	af830014 	sw	v1,20(gp)
    3e44:	8fb0001c 	lw	s0,28(sp)
    3e48:	12500028 	beq	s2,s0,3eec <HTCFlushEndpointTX+0x170>
    3e4c:	3c020000 	lui	v0,0x0
			3e4c: R_MIPS_HI16	printk
    3e50:	24540000 	addiu	s4,v0,0
			3e50: R_MIPS_LO16	printk
    3e54:	08000f9f 	j	3e7c <HTCFlushEndpointTX+0x100>
			3e54: R_MIPS_26	.text
    3e58:	3c130000 	lui	s3,0x0
			3e58: R_MIPS_HI16	debughtc
    3e5c:	ae000028 	sw	zero,40(s0)
    3e60:	8e220054 	lw	v0,84(s1)
    3e64:	8e240050 	lw	a0,80(s1)
    3e68:	0040f809 	jalr	v0
    3e6c:	02002821 	move	a1,s0
    3e70:	8fb0001c 	lw	s0,28(sp)
    3e74:	1250001e 	beq	s2,s0,3ef0 <HTCFlushEndpointTX+0x174>
    3e78:	8fbf0034 	lw	ra,52(sp)
    3e7c:	8e040004 	lw	a0,4(s0)
    3e80:	8e020000 	lw	v0,0(s0)
    3e84:	02002821 	move	a1,s0
    3e88:	ac820000 	sw	v0,0(a0)
    3e8c:	8e030000 	lw	v1,0(s0)
    3e90:	24020010 	li	v0,16
    3e94:	ac640004 	sw	a0,4(v1)
    3e98:	ae100000 	sw	s0,0(s0)
    3e9c:	ae020020 	sw	v0,32(s0)
    3ea0:	ae100004 	sw	s0,4(s0)
    3ea4:	8e620000 	lw	v0,0(s3)
			3ea4: R_MIPS_LO16	debughtc
    3ea8:	3c040000 	lui	a0,0x0
			3ea8: R_MIPS_HI16	$LC16
    3eac:	30420020 	andi	v0,v0,0x20
    3eb0:	1040ffea 	beqz	v0,3e5c <HTCFlushEndpointTX+0xe0>
    3eb4:	24840000 	addiu	a0,a0,0
			3eb4: R_MIPS_LO16	$LC16
    3eb8:	8e060018 	lw	a2,24(s0)
    3ebc:	8e07001c 	lw	a3,28(s0)
    3ec0:	96020024 	lhu	v0,36(s0)
    3ec4:	0280f809 	jalr	s4
    3ec8:	afa20010 	sw	v0,16(sp)
    3ecc:	ae000028 	sw	zero,40(s0)
    3ed0:	8e220054 	lw	v0,84(s1)
    3ed4:	8e240050 	lw	a0,80(s1)
    3ed8:	0040f809 	jalr	v0
    3edc:	02002821 	move	a1,s0
    3ee0:	8fb0001c 	lw	s0,28(sp)
    3ee4:	1650ffe5 	bne	s2,s0,3e7c <HTCFlushEndpointTX+0x100>
    3ee8:	00000000 	nop
    3eec:	8fbf0034 	lw	ra,52(sp)
    3ef0:	8fb40030 	lw	s4,48(sp)
    3ef4:	8fb3002c 	lw	s3,44(sp)
    3ef8:	8fb20028 	lw	s2,40(sp)
    3efc:	8fb10024 	lw	s1,36(sp)
    3f00:	8fb00020 	lw	s0,32(sp)
    3f04:	03e00008 	jr	ra
    3f08:	27bd0038 	addiu	sp,sp,56

00003f0c <HTCFlushEndpoint>:
    3f0c:	000511c0 	sll	v0,a1,0x7
    3f10:	000528c0 	sll	a1,a1,0x3
    3f14:	00451023 	subu	v0,v0,a1
    3f18:	00821821 	addu	v1,a0,v0
    3f1c:	94620000 	lhu	v0,0(v1)
    3f20:	00602821 	move	a1,v1
    3f24:	14400012 	bnez	v0,3f70 <HTCFlushEndpoint+0x64>
    3f28:	30c6ffff 	andi	a2,a2,0xffff
    3f2c:	3c020000 	lui	v0,0x0
			3f2c: R_MIPS_HI16	debughtc
    3f30:	8c430000 	lw	v1,0(v0)
			3f30: R_MIPS_LO16	debughtc
    3f34:	3c040000 	lui	a0,0x0
			3f34: R_MIPS_HI16	$LC17
    3f38:	3c050000 	lui	a1,0x0
			3f38: R_MIPS_HI16	$LC18
    3f3c:	3c070000 	lui	a3,0x0
			3f3c: R_MIPS_HI16	$LC19
    3f40:	30630080 	andi	v1,v1,0x80
    3f44:	24840000 	addiu	a0,a0,0
			3f44: R_MIPS_LO16	$LC17
    3f48:	24a50000 	addiu	a1,a1,0
			3f48: R_MIPS_LO16	$LC18
    3f4c:	24e70000 	addiu	a3,a3,0
			3f4c: R_MIPS_LO16	$LC19
    3f50:	14600003 	bnez	v1,3f60 <HTCFlushEndpoint+0x54>
    3f54:	2406023e 	li	a2,574
    3f58:	03e00008 	jr	ra
    3f5c:	00000000 	nop
    3f60:	3c190000 	lui	t9,0x0
			3f60: R_MIPS_HI16	printk
    3f64:	27390000 	addiu	t9,t9,0
			3f64: R_MIPS_LO16	printk
    3f68:	03200008 	jr	t9
    3f6c:	00000000 	nop
    3f70:	3c190000 	lui	t9,0x0
			3f70: R_MIPS_HI16	.text
    3f74:	27393d7c 	addiu	t9,t9,15740
			3f74: R_MIPS_LO16	.text
    3f78:	03200008 	jr	t9
    3f7c:	00000000 	nop

00003f80 <HTCFlushSendPkts>:
    3f80:	27bdffd8 	addiu	sp,sp,-40
    3f84:	3c020000 	lui	v0,0x0
			3f84: R_MIPS_HI16	DumpCreditDistStates
    3f88:	afb40020 	sw	s4,32(sp)
    3f8c:	afb3001c 	sw	s3,28(sp)
    3f90:	afb20018 	sw	s2,24(sp)
    3f94:	afb10014 	sw	s1,20(sp)
    3f98:	afb00010 	sw	s0,16(sp)
    3f9c:	afbf0024 	sw	ra,36(sp)
    3fa0:	24420000 	addiu	v0,v0,0
			3fa0: R_MIPS_LO16	DumpCreditDistStates
    3fa4:	0040f809 	jalr	v0
    3fa8:	00809821 	move	s3,a0
    3fac:	3c030000 	lui	v1,0x0
			3fac: R_MIPS_HI16	.text
    3fb0:	24743d7c 	addiu	s4,v1,15740
			3fb0: R_MIPS_LO16	.text
    3fb4:	00008821 	move	s1,zero
    3fb8:	24120009 	li	s2,9
    3fbc:	02608021 	move	s0,s3
    3fc0:	96020000 	lhu	v0,0(s0)
    3fc4:	02002821 	move	a1,s0
    3fc8:	26310001 	addiu	s1,s1,1
    3fcc:	26100078 	addiu	s0,s0,120
    3fd0:	02602021 	move	a0,s3
    3fd4:	1440000a 	bnez	v0,4000 <HTCFlushSendPkts+0x80>
    3fd8:	00003021 	move	a2,zero
    3fdc:	1632fff8 	bne	s1,s2,3fc0 <HTCFlushSendPkts+0x40>
    3fe0:	8fbf0024 	lw	ra,36(sp)
    3fe4:	8fb40020 	lw	s4,32(sp)
    3fe8:	8fb3001c 	lw	s3,28(sp)
    3fec:	8fb20018 	lw	s2,24(sp)
    3ff0:	8fb10014 	lw	s1,20(sp)
    3ff4:	8fb00010 	lw	s0,16(sp)
    3ff8:	03e00008 	jr	ra
    3ffc:	27bd0028 	addiu	sp,sp,40
    4000:	0280f809 	jalr	s4
    4004:	00000000 	nop
    4008:	1632ffed 	bne	s1,s2,3fc0 <HTCFlushSendPkts+0x40>
    400c:	8fbf0024 	lw	ra,36(sp)
    4010:	08000ffa 	j	3fe8 <HTCFlushSendPkts+0x68>
			4010: R_MIPS_26	.text
    4014:	8fb40020 	lw	s4,32(sp)

00004018 <HTCIssueSend>:
    4018:	27bdffc8 	addiu	sp,sp,-56
    401c:	afb40028 	sw	s4,40(sp)
    4020:	afb20020 	sw	s2,32(sp)
    4024:	afb1001c 	sw	s1,28(sp)
    4028:	afb00018 	sw	s0,24(sp)
    402c:	afbf0030 	sw	ra,48(sp)
    4030:	afb5002c 	sw	s5,44(sp)
    4034:	afb30024 	sw	s3,36(sp)
    4038:	8ca70010 	lw	a3,16(a1)
    403c:	00a08021 	move	s0,a1
    4040:	8ca50018 	lw	a1,24(a1)
    4044:	24e3fffa 	addiu	v1,a3,-6
    4048:	ae030010 	sw	v1,16(s0)
    404c:	a0650002 	sb	a1,2(v1)
    4050:	96020018 	lhu	v0,24(s0)
    4054:	a0660001 	sb	a2,1(v1)
    4058:	00021202 	srl	v0,v0,0x8
    405c:	a0620003 	sb	v0,3(v1)
    4060:	8e05001c 	lw	a1,28(s0)
    4064:	3c120000 	lui	s2,0x0
			4064: R_MIPS_HI16	debughtc
    4068:	a0e5fffa 	sb	a1,-6(a3)
    406c:	8e030028 	lw	v1,40(s0)
    4070:	8e420000 	lw	v0,0(s2)
			4070: R_MIPS_LO16	debughtc
    4074:	2c650001 	sltiu	a1,v1,1
    4078:	30420001 	andi	v0,v0,0x1
    407c:	00808821 	move	s1,a0
    4080:	1040003b 	beqz	v0,4170 <HTCIssueSend+0x158>
    4084:	00a0a021 	move	s4,a1
    4088:	1280004f 	beqz	s4,41c8 <HTCIssueSend+0x1b0>
    408c:	8e050018 	lw	a1,24(s0)
    4090:	3c020000 	lui	v0,0x0
			4090: R_MIPS_HI16	$LC20
    4094:	24460000 	addiu	a2,v0,0
			4094: R_MIPS_LO16	$LC20
    4098:	3c150000 	lui	s5,0x0
			4098: R_MIPS_HI16	printk
    409c:	3c040000 	lui	a0,0x0
			409c: R_MIPS_HI16	$LC22
    40a0:	24840000 	addiu	a0,a0,0
			40a0: R_MIPS_LO16	$LC22
    40a4:	26a20000 	addiu	v0,s5,0
			40a4: R_MIPS_LO16	printk
    40a8:	0040f809 	jalr	v0
    40ac:	24a50006 	addiu	a1,a1,6
    40b0:	26310620 	addiu	s1,s1,1568
    40b4:	8e030018 	lw	v1,24(s0)
    40b8:	8e440000 	lw	a0,0(s2)
			40b8: R_MIPS_LO16	debughtc
    40bc:	8e22001c 	lw	v0,28(s1)
    40c0:	24630006 	addiu	v1,v1,6
    40c4:	8e050028 	lw	a1,40(s0)
    40c8:	00621821 	addu	v1,v1,v0
    40cc:	30840001 	andi	a0,a0,0x1
    40d0:	00021027 	nor	v0,zero,v0
    40d4:	00629824 	and	s3,v1,v0
    40d8:	1080002d 	beqz	a0,4190 <HTCIssueSend+0x178>
    40dc:	2cb20001 	sltiu	s2,a1,1
    40e0:	1240003c 	beqz	s2,41d4 <HTCIssueSend+0x1bc>
    40e4:	8e260020 	lw	a2,32(s1)
    40e8:	3c020000 	lui	v0,0x0
			40e8: R_MIPS_HI16	$LC20
    40ec:	24470000 	addiu	a3,v0,0
			40ec: R_MIPS_LO16	$LC20
    40f0:	3c040000 	lui	a0,0x0
			40f0: R_MIPS_HI16	$LC23
    40f4:	24840000 	addiu	a0,a0,0
			40f4: R_MIPS_LO16	$LC23
    40f8:	26a20000 	addiu	v0,s5,0
			40f8: R_MIPS_LO16	printk
    40fc:	0040f809 	jalr	v0
    4100:	02602821 	move	a1,s3
    4104:	8e250020 	lw	a1,32(s1)
    4108:	8e240014 	lw	a0,20(s1)
    410c:	16400024 	bnez	s2,41a0 <HTCIssueSend+0x188>
    4110:	8e060010 	lw	a2,16(s0)
    4114:	240202aa 	li	v0,682
    4118:	afa20010 	sw	v0,16(sp)
    411c:	3c020000 	lui	v0,0x0
			411c: R_MIPS_HI16	HIFReadWrite
    4120:	02603821 	move	a3,s3
    4124:	24420000 	addiu	v0,v0,0
			4124: R_MIPS_LO16	HIFReadWrite
    4128:	0040f809 	jalr	v0
    412c:	afb00014 	sw	s0,20(sp)
    4130:	00401821 	move	v1,v0
    4134:	12800005 	beqz	s4,414c <HTCIssueSend+0x134>
    4138:	8fbf0030 	lw	ra,48(sp)
    413c:	8e020010 	lw	v0,16(s0)
    4140:	24420006 	addiu	v0,v0,6
    4144:	ae020010 	sw	v0,16(s0)
    4148:	8fbf0030 	lw	ra,48(sp)
    414c:	8fb5002c 	lw	s5,44(sp)
    4150:	8fb40028 	lw	s4,40(sp)
    4154:	8fb30024 	lw	s3,36(sp)
    4158:	8fb20020 	lw	s2,32(sp)
    415c:	8fb1001c 	lw	s1,28(sp)
    4160:	8fb00018 	lw	s0,24(sp)
    4164:	00601021 	move	v0,v1
    4168:	03e00008 	jr	ra
    416c:	27bd0038 	addiu	sp,sp,56
    4170:	24910620 	addiu	s1,a0,1568
    4174:	8e030018 	lw	v1,24(s0)
    4178:	8e22001c 	lw	v0,28(s1)
    417c:	24630006 	addiu	v1,v1,6
    4180:	00431821 	addu	v1,v0,v1
    4184:	00021027 	nor	v0,zero,v0
    4188:	00629824 	and	s3,v1,v0
    418c:	00a09021 	move	s2,a1
    4190:	8e250020 	lw	a1,32(s1)
    4194:	8e240014 	lw	a0,20(s1)
    4198:	1240ffde 	beqz	s2,4114 <HTCIssueSend+0xfc>
    419c:	8e060010 	lw	a2,16(s0)
    41a0:	2402029a 	li	v0,666
    41a4:	afa20010 	sw	v0,16(sp)
    41a8:	3c020000 	lui	v0,0x0
			41a8: R_MIPS_HI16	HIFReadWrite
    41ac:	02603821 	move	a3,s3
    41b0:	24420000 	addiu	v0,v0,0
			41b0: R_MIPS_LO16	HIFReadWrite
    41b4:	0040f809 	jalr	v0
    41b8:	afa00014 	sw	zero,20(sp)
    41bc:	00401821 	move	v1,v0
    41c0:	0800104d 	j	4134 <HTCIssueSend+0x11c>
			41c0: R_MIPS_26	.text
    41c4:	ae020020 	sw	v0,32(s0)
    41c8:	3c020000 	lui	v0,0x0
			41c8: R_MIPS_HI16	$LC21
    41cc:	08001026 	j	4098 <HTCIssueSend+0x80>
			41cc: R_MIPS_26	.text
    41d0:	24460000 	addiu	a2,v0,0
			41d0: R_MIPS_LO16	$LC21
    41d4:	3c020000 	lui	v0,0x0
			41d4: R_MIPS_HI16	$LC21
    41d8:	0800103c 	j	40f0 <HTCIssueSend+0xd8>
			41d8: R_MIPS_26	.text
    41dc:	24470000 	addiu	a3,v0,0
			41dc: R_MIPS_LO16	$LC21

000041e0 <HTCTrySend>:
    41e0:	27bdffc0 	addiu	sp,sp,-64
    41e4:	afbe0038 	sw	s8,56(sp)
    41e8:	afb70034 	sw	s7,52(sp)
    41ec:	afb5002c 	sw	s5,44(sp)
    41f0:	afb20020 	sw	s2,32(sp)
    41f4:	afbf003c 	sw	ra,60(sp)
    41f8:	afb60030 	sw	s6,48(sp)
    41fc:	afb40028 	sw	s4,40(sp)
    4200:	afb30024 	sw	s3,36(sp)
    4204:	afb1001c 	sw	s1,28(sp)
    4208:	afb00018 	sw	s0,24(sp)
    420c:	3c170000 	lui	s7,0x0
			420c: R_MIPS_HI16	debughtc
    4210:	8ee20000 	lw	v0,0(s7)
			4210: R_MIPS_LO16	debughtc
    4214:	0080a821 	move	s5,a0
    4218:	30420001 	andi	v0,v0,0x1
    421c:	00a09021 	move	s2,a1
    4220:	1440005d 	bnez	v0,4398 <HTCTrySend+0x1b8>
    4224:	00c0f021 	move	s8,a2
    4228:	13c00008 	beqz	s8,424c <HTCTrySend+0x6c>
    422c:	3c030000 	lui	v1,0x0
			422c: R_MIPS_HI16	local_bh_disable
    4230:	8e46006c 	lw	a2,108(s2)
    4234:	8e470068 	lw	a3,104(s2)
    4238:	24c20001 	addiu	v0,a2,1
    423c:	0047102a 	slt	v0,v0,a3
    4240:	10400031 	beqz	v0,4308 <HTCTrySend+0x128>
    4244:	8ee20000 	lw	v0,0(s7)
			4244: R_MIPS_LO16	debughtc
    4248:	3c030000 	lui	v1,0x0
			4248: R_MIPS_HI16	local_bh_disable
    424c:	24620000 	addiu	v0,v1,0
			424c: R_MIPS_LO16	local_bh_disable
    4250:	0040f809 	jalr	v0
    4254:	00000000 	nop
    4258:	8f820014 	lw	v0,20(gp)
    425c:	24420001 	addiu	v0,v0,1
    4260:	af820014 	sw	v0,20(gp)
    4264:	13c0000a 	beqz	s8,4290 <HTCTrySend+0xb0>
    4268:	26540004 	addiu	s4,s2,4
    426c:	8e420004 	lw	v0,4(s2)
    4270:	afc20000 	sw	v0,0(s8)
    4274:	8e430004 	lw	v1,4(s2)
    4278:	afd40004 	sw	s4,4(s8)
    427c:	ac7e0004 	sw	s8,4(v1)
    4280:	8e42006c 	lw	v0,108(s2)
    4284:	ae5e0004 	sw	s8,4(s2)
    4288:	24420001 	addiu	v0,v0,1
    428c:	ae42006c 	sw	v0,108(s2)
    4290:	8e440074 	lw	a0,116(s2)
    4294:	24820001 	addiu	v0,a0,1
    4298:	28430002 	slti	v1,v0,2
    429c:	1460004c 	bnez	v1,43d0 <HTCTrySend+0x1f0>
    42a0:	ae420074 	sw	v0,116(s2)
    42a4:	ae440074 	sw	a0,116(s2)
    42a8:	8f820014 	lw	v0,20(gp)
    42ac:	3c030000 	lui	v1,0x0
			42ac: R_MIPS_HI16	local_bh_enable
    42b0:	2442ffff 	addiu	v0,v0,-1
    42b4:	24630000 	addiu	v1,v1,0
			42b4: R_MIPS_LO16	local_bh_enable
    42b8:	0060f809 	jalr	v1
    42bc:	af820014 	sw	v0,20(gp)
    42c0:	8ee20000 	lw	v0,0(s7)
			42c0: R_MIPS_LO16	debughtc
    42c4:	30420001 	andi	v0,v0,0x1
    42c8:	1440003b 	bnez	v0,43b8 <HTCTrySend+0x1d8>
    42cc:	3c040000 	lui	a0,0x0
			42cc: R_MIPS_HI16	$LC27
    42d0:	00008021 	move	s0,zero
    42d4:	02001021 	move	v0,s0
    42d8:	8fbf003c 	lw	ra,60(sp)
    42dc:	8fbe0038 	lw	s8,56(sp)
    42e0:	8fb70034 	lw	s7,52(sp)
    42e4:	8fb60030 	lw	s6,48(sp)
    42e8:	8fb5002c 	lw	s5,44(sp)
    42ec:	8fb40028 	lw	s4,40(sp)
    42f0:	8fb30024 	lw	s3,36(sp)
    42f4:	8fb20020 	lw	s2,32(sp)
    42f8:	8fb1001c 	lw	s1,28(sp)
    42fc:	8fb00018 	lw	s0,24(sp)
    4300:	03e00008 	jr	ra
    4304:	27bd0040 	addiu	sp,sp,64
    4308:	30420001 	andi	v0,v0,0x1
    430c:	14400103 	bnez	v0,471c <HTCTrySend+0x53c>
    4310:	3c040000 	lui	a0,0x0
			4310: R_MIPS_HI16	$LC25
    4314:	3c020000 	lui	v0,0x0
			4314: R_MIPS_HI16	stack_force_interrupt
    4318:	24420000 	addiu	v0,v0,0
			4318: R_MIPS_LO16	stack_force_interrupt
    431c:	0040f809 	jalr	v0
    4320:	00000000 	nop
    4324:	8e430060 	lw	v1,96(s2)
    4328:	1060ffc7 	beqz	v1,4248 <HTCTrySend+0x68>
    432c:	8ee20000 	lw	v0,0(s7)
			432c: R_MIPS_LO16	debughtc
    4330:	30420001 	andi	v0,v0,0x1
    4334:	14400100 	bnez	v0,4738 <HTCTrySend+0x558>
    4338:	3c040000 	lui	a0,0x0
			4338: R_MIPS_HI16	$LC26
    433c:	8e440050 	lw	a0,80(s2)
    4340:	0060f809 	jalr	v1
    4344:	03c02821 	move	a1,s8
    4348:	24030001 	li	v1,1
    434c:	1443ffbe 	bne	v0,v1,4248 <HTCTrySend+0x68>
    4350:	8ee20000 	lw	v0,0(s7)
			4350: R_MIPS_LO16	debughtc
    4354:	30420001 	andi	v0,v0,0x1
    4358:	144000dd 	bnez	v0,46d0 <HTCTrySend+0x4f0>
    435c:	3c040000 	lui	a0,0x0
			435c: R_MIPS_HI16	$LC27
    4360:	24100001 	li	s0,1
    4364:	02001021 	move	v0,s0
    4368:	8fbf003c 	lw	ra,60(sp)
    436c:	8fbe0038 	lw	s8,56(sp)
    4370:	8fb70034 	lw	s7,52(sp)
    4374:	8fb60030 	lw	s6,48(sp)
    4378:	8fb5002c 	lw	s5,44(sp)
    437c:	8fb40028 	lw	s4,40(sp)
    4380:	8fb30024 	lw	s3,36(sp)
    4384:	8fb20020 	lw	s2,32(sp)
    4388:	8fb1001c 	lw	s1,28(sp)
    438c:	8fb00018 	lw	s0,24(sp)
    4390:	03e00008 	jr	ra
    4394:	27bd0040 	addiu	sp,sp,64
    4398:	3c040000 	lui	a0,0x0
			4398: R_MIPS_HI16	$LC24
    439c:	3c020000 	lui	v0,0x0
			439c: R_MIPS_HI16	printk
    43a0:	24840000 	addiu	a0,a0,0
			43a0: R_MIPS_LO16	$LC24
    43a4:	24420000 	addiu	v0,v0,0
			43a4: R_MIPS_LO16	printk
    43a8:	0040f809 	jalr	v0
    43ac:	00c02821 	move	a1,a2
    43b0:	0800108a 	j	4228 <HTCTrySend+0x48>
			43b0: R_MIPS_26	.text
    43b4:	00000000 	nop
    43b8:	3c020000 	lui	v0,0x0
			43b8: R_MIPS_HI16	printk
    43bc:	24420000 	addiu	v0,v0,0
			43bc: R_MIPS_LO16	printk
    43c0:	0040f809 	jalr	v0
    43c4:	24840000 	addiu	a0,a0,0
			43c4: R_MIPS_LO16	$LC27
    43c8:	080010b5 	j	42d4 <HTCTrySend+0xf4>
			43c8: R_MIPS_26	.text
    43cc:	00008021 	move	s0,zero
    43d0:	8e420004 	lw	v0,4(s2)
    43d4:	26540004 	addiu	s4,s2,4
    43d8:	10540067 	beq	v0,s4,4578 <HTCTrySend+0x398>
    43dc:	00000000 	nop
    43e0:	8ea20908 	lw	v0,2312(s5)
    43e4:	30420002 	andi	v0,v0,0x2
    43e8:	144000bf 	bnez	v0,46e8 <HTCTrySend+0x508>
    43ec:	8ee50000 	lw	a1,0(s7)
			43ec: R_MIPS_LO16	debughtc
    43f0:	8e530008 	lw	s3,8(s2)
    43f4:	30a20001 	andi	v0,a1,0x1
    43f8:	14400094 	bnez	v0,464c <HTCTrySend+0x46c>
    43fc:	3c160000 	lui	s6,0x0
			43fc: R_MIPS_HI16	debughtc
    4400:	8e620018 	lw	v0,24(s3)
    4404:	8ea3061c 	lw	v1,1564(s5)
    4408:	24420006 	addiu	v0,v0,6
    440c:	0043001b 	divu	zero,v0,v1
    4410:	006001f4 	teq	v1,zero,0x7
    4414:	30a50001 	andi	a1,a1,0x1
    4418:	00008012 	mflo	s0
    441c:	00002010 	mfhi	a0
    4420:	26020001 	addiu	v0,s0,1
    4424:	14a00080 	bnez	a1,4628 <HTCTrySend+0x448>
    4428:	0044800b 	movn	s0,v0,a0
    442c:	8e440034 	lw	a0,52(s2)
    4430:	0090102a 	slt	v0,a0,s0
    4434:	10400012 	beqz	v0,4480 <HTCTrySend+0x2a0>
    4438:	00000000 	nop
    443c:	8e62001c 	lw	v0,28(s3)
    4440:	10400050 	beqz	v0,4584 <HTCTrySend+0x3a4>
    4444:	02041823 	subu	v1,s0,a0
    4448:	ae43003c 	sw	v1,60(s2)
    444c:	8ec20000 	lw	v0,0(s6)
			444c: R_MIPS_LO16	debughtc
    4450:	30420001 	andi	v0,v0,0x1
    4454:	14400092 	bnez	v0,46a0 <HTCTrySend+0x4c0>
    4458:	26510014 	addiu	s1,s2,20
    445c:	8ea2060c 	lw	v0,1548(s5)
    4460:	8ea40614 	lw	a0,1556(s5)
    4464:	02202821 	move	a1,s1
    4468:	0040f809 	jalr	v0
    446c:	24060002 	li	a2,2
    4470:	8e440034 	lw	a0,52(s2)
    4474:	0090102a 	slt	v0,a0,s0
    4478:	144000b5 	bnez	v0,4750 <HTCTrySend+0x570>
    447c:	ae40003c 	sw	zero,60(s2)
    4480:	8e450044 	lw	a1,68(s2)
    4484:	00901823 	subu	v1,a0,s0
    4488:	0065102a 	slt	v0,v1,a1
    448c:	10400061 	beqz	v0,4614 <HTCTrySend+0x434>
    4490:	ae430034 	sw	v1,52(s2)
    4494:	00a31823 	subu	v1,a1,v1
    4498:	ae43003c 	sw	v1,60(s2)
    449c:	8ee20000 	lw	v0,0(s7)
			449c: R_MIPS_LO16	debughtc
    44a0:	30420001 	andi	v0,v0,0x1
    44a4:	14400072 	bnez	v0,4670 <HTCTrySend+0x490>
    44a8:	26510014 	addiu	s1,s2,20
    44ac:	8ea2060c 	lw	v0,1548(s5)
    44b0:	8ea40614 	lw	a0,1556(s5)
    44b4:	02202821 	move	a1,s1
    44b8:	0040f809 	jalr	v0
    44bc:	24060002 	li	a2,2
    44c0:	8e430034 	lw	v1,52(s2)
    44c4:	8e420044 	lw	v0,68(s2)
    44c8:	0062182a 	slt	v1,v1,v0
    44cc:	10600051 	beqz	v1,4614 <HTCTrySend+0x434>
    44d0:	ae40003c 	sw	zero,60(s2)
    44d4:	3c030000 	lui	v1,0x0
			44d4: R_MIPS_HI16	debughtc
    44d8:	8c620000 	lw	v0,0(v1)
			44d8: R_MIPS_LO16	debughtc
    44dc:	30420001 	andi	v0,v0,0x1
    44e0:	14400046 	bnez	v0,45fc <HTCTrySend+0x41c>
    44e4:	3c040000 	lui	a0,0x0
			44e4: R_MIPS_HI16	$LC32
    44e8:	8e850004 	lw	a1,4(s4)
    44ec:	1285004c 	beq	s4,a1,4620 <HTCTrySend+0x440>
    44f0:	24110001 	li	s1,1
    44f4:	8ca20004 	lw	v0,4(a1)
    44f8:	8ca30000 	lw	v1,0(a1)
    44fc:	00a08021 	move	s0,a1
    4500:	ac430000 	sw	v1,0(v0)
    4504:	8ca40000 	lw	a0,0(a1)
    4508:	aca50000 	sw	a1,0(a1)
    450c:	ac820004 	sw	v0,4(a0)
    4510:	aca50004 	sw	a1,4(a1)
    4514:	8e42006c 	lw	v0,108(s2)
    4518:	2442ffff 	addiu	v0,v0,-1
    451c:	ae42006c 	sw	v0,108(s2)
    4520:	8f820014 	lw	v0,20(gp)
    4524:	3c050000 	lui	a1,0x0
			4524: R_MIPS_HI16	local_bh_enable
    4528:	2442ffff 	addiu	v0,v0,-1
    452c:	24a40000 	addiu	a0,a1,0
			452c: R_MIPS_LO16	local_bh_enable
    4530:	0080f809 	jalr	a0
    4534:	af820014 	sw	v0,20(gp)
    4538:	3c020000 	lui	v0,0x0
			4538: R_MIPS_HI16	HTCIssueSend
    453c:	02a02021 	move	a0,s5
    4540:	02002821 	move	a1,s0
    4544:	24420000 	addiu	v0,v0,0
			4544: R_MIPS_LO16	HTCIssueSend
    4548:	0040f809 	jalr	v0
    454c:	02203021 	move	a2,s1
    4550:	3c020000 	lui	v0,0x0
			4550: R_MIPS_HI16	local_bh_disable
    4554:	24430000 	addiu	v1,v0,0
			4554: R_MIPS_LO16	local_bh_disable
    4558:	0060f809 	jalr	v1
    455c:	00000000 	nop
    4560:	8f820014 	lw	v0,20(gp)
    4564:	24420001 	addiu	v0,v0,1
    4568:	af820014 	sw	v0,20(gp)
    456c:	8e420004 	lw	v0,4(s2)
    4570:	1454ff9b 	bne	v0,s4,43e0 <HTCTrySend+0x200>
    4574:	00000000 	nop
    4578:	8e420008 	lw	v0,8(s2)
    457c:	1682ff98 	bne	s4,v0,43e0 <HTCTrySend+0x200>
    4580:	00000000 	nop
    4584:	00008021 	move	s0,zero
    4588:	ae400074 	sw	zero,116(s2)
    458c:	8f820014 	lw	v0,20(gp)
    4590:	3c050000 	lui	a1,0x0
			4590: R_MIPS_HI16	local_bh_enable
    4594:	2442ffff 	addiu	v0,v0,-1
    4598:	24a40000 	addiu	a0,a1,0
			4598: R_MIPS_LO16	local_bh_enable
    459c:	0080f809 	jalr	a0
    45a0:	af820014 	sw	v0,20(gp)
    45a4:	8ee20000 	lw	v0,0(s7)
			45a4: R_MIPS_LO16	debughtc
    45a8:	30420001 	andi	v0,v0,0x1
    45ac:	1040ff4a 	beqz	v0,42d8 <HTCTrySend+0xf8>
    45b0:	02001021 	move	v0,s0
    45b4:	3c040000 	lui	a0,0x0
			45b4: R_MIPS_HI16	$LC27
    45b8:	3c020000 	lui	v0,0x0
			45b8: R_MIPS_HI16	printk
    45bc:	24420000 	addiu	v0,v0,0
			45bc: R_MIPS_LO16	printk
    45c0:	0040f809 	jalr	v0
    45c4:	24840000 	addiu	a0,a0,0
			45c4: R_MIPS_LO16	$LC27
    45c8:	02001021 	move	v0,s0
    45cc:	8fbf003c 	lw	ra,60(sp)
    45d0:	8fbe0038 	lw	s8,56(sp)
    45d4:	8fb70034 	lw	s7,52(sp)
    45d8:	8fb60030 	lw	s6,48(sp)
    45dc:	8fb5002c 	lw	s5,44(sp)
    45e0:	8fb40028 	lw	s4,40(sp)
    45e4:	8fb30024 	lw	s3,36(sp)
    45e8:	8fb20020 	lw	s2,32(sp)
    45ec:	8fb1001c 	lw	s1,28(sp)
    45f0:	8fb00018 	lw	s0,24(sp)
    45f4:	03e00008 	jr	ra
    45f8:	27bd0040 	addiu	sp,sp,64
    45fc:	3c050000 	lui	a1,0x0
			45fc: R_MIPS_HI16	printk
    4600:	24a50000 	addiu	a1,a1,0
			4600: R_MIPS_LO16	printk
    4604:	00a0f809 	jalr	a1
    4608:	24840000 	addiu	a0,a0,0
			4608: R_MIPS_LO16	$LC32
    460c:	0800113b 	j	44ec <HTCTrySend+0x30c>
			460c: R_MIPS_26	.text
    4610:	8e850004 	lw	a1,4(s4)
    4614:	8e850004 	lw	a1,4(s4)
    4618:	1685ffb6 	bne	s4,a1,44f4 <HTCTrySend+0x314>
    461c:	00008821 	move	s1,zero
    4620:	08001145 	j	4514 <HTCTrySend+0x334>
			4620: R_MIPS_26	.text
    4624:	00008021 	move	s0,zero
    4628:	8e460034 	lw	a2,52(s2)
    462c:	3c040000 	lui	a0,0x0
			462c: R_MIPS_HI16	$LC29
    4630:	3c030000 	lui	v1,0x0
			4630: R_MIPS_HI16	printk
    4634:	24840000 	addiu	a0,a0,0
			4634: R_MIPS_LO16	$LC29
    4638:	24630000 	addiu	v1,v1,0
			4638: R_MIPS_LO16	printk
    463c:	0060f809 	jalr	v1
    4640:	02002821 	move	a1,s0
    4644:	0800110c 	j	4430 <HTCTrySend+0x250>
			4644: R_MIPS_26	.text
    4648:	8e440034 	lw	a0,52(s2)
    464c:	8e46006c 	lw	a2,108(s2)
    4650:	3c040000 	lui	a0,0x0
			4650: R_MIPS_HI16	$LC28
    4654:	3c030000 	lui	v1,0x0
			4654: R_MIPS_HI16	printk
    4658:	02602821 	move	a1,s3
    465c:	24630000 	addiu	v1,v1,0
			465c: R_MIPS_LO16	printk
    4660:	0060f809 	jalr	v1
    4664:	24840000 	addiu	a0,a0,0
			4664: R_MIPS_LO16	$LC28
    4668:	08001100 	j	4400 <HTCTrySend+0x220>
			4668: R_MIPS_26	.text
    466c:	8ec50000 	lw	a1,0(s6)
			466c: R_MIPS_LO16	debughtc
    4670:	8ea6060c 	lw	a2,1548(s5)
    4674:	8ea70614 	lw	a3,1556(s5)
    4678:	3c040000 	lui	a0,0x0
			4678: R_MIPS_HI16	$LC13
    467c:	3c050000 	lui	a1,0x0
			467c: R_MIPS_HI16	$LC30
    4680:	3c030000 	lui	v1,0x0
			4680: R_MIPS_HI16	printk
    4684:	24840000 	addiu	a0,a0,0
			4684: R_MIPS_LO16	$LC13
    4688:	24a50000 	addiu	a1,a1,0
			4688: R_MIPS_LO16	$LC30
    468c:	24630000 	addiu	v1,v1,0
			468c: R_MIPS_LO16	printk
    4690:	0060f809 	jalr	v1
    4694:	afb10010 	sw	s1,16(sp)
    4698:	0800112c 	j	44b0 <HTCTrySend+0x2d0>
			4698: R_MIPS_26	.text
    469c:	8ea2060c 	lw	v0,1548(s5)
    46a0:	8ea6060c 	lw	a2,1548(s5)
    46a4:	8ea70614 	lw	a3,1556(s5)
    46a8:	3c040000 	lui	a0,0x0
			46a8: R_MIPS_HI16	$LC13
    46ac:	3c050000 	lui	a1,0x0
			46ac: R_MIPS_HI16	$LC30
    46b0:	3c030000 	lui	v1,0x0
			46b0: R_MIPS_HI16	printk
    46b4:	24840000 	addiu	a0,a0,0
			46b4: R_MIPS_LO16	$LC13
    46b8:	24a50000 	addiu	a1,a1,0
			46b8: R_MIPS_LO16	$LC30
    46bc:	24630000 	addiu	v1,v1,0
			46bc: R_MIPS_LO16	printk
    46c0:	0060f809 	jalr	v1
    46c4:	afb10010 	sw	s1,16(sp)
    46c8:	08001118 	j	4460 <HTCTrySend+0x280>
			46c8: R_MIPS_26	.text
    46cc:	8ea2060c 	lw	v0,1548(s5)
    46d0:	3c020000 	lui	v0,0x0
			46d0: R_MIPS_HI16	printk
    46d4:	24420000 	addiu	v0,v0,0
			46d4: R_MIPS_LO16	printk
    46d8:	0040f809 	jalr	v0
    46dc:	24840000 	addiu	a0,a0,0
			46dc: R_MIPS_LO16	$LC27
    46e0:	080010d9 	j	4364 <HTCTrySend+0x184>
			46e0: R_MIPS_26	.text
    46e4:	24100001 	li	s0,1
    46e8:	13c0ffa6 	beqz	s8,4584 <HTCTrySend+0x3a4>
    46ec:	24100001 	li	s0,1
    46f0:	8fc40004 	lw	a0,4(s8)
    46f4:	8fc20000 	lw	v0,0(s8)
    46f8:	ac820000 	sw	v0,0(a0)
    46fc:	8fc30000 	lw	v1,0(s8)
    4700:	afde0000 	sw	s8,0(s8)
    4704:	ac640004 	sw	a0,4(v1)
    4708:	afde0004 	sw	s8,4(s8)
    470c:	8e42006c 	lw	v0,108(s2)
    4710:	2442ffff 	addiu	v0,v0,-1
    4714:	08001162 	j	4588 <HTCTrySend+0x3a8>
			4714: R_MIPS_26	.text
    4718:	ae42006c 	sw	v0,108(s2)
    471c:	8fc5001c 	lw	a1,28(s8)
    4720:	3c020000 	lui	v0,0x0
			4720: R_MIPS_HI16	printk
    4724:	24420000 	addiu	v0,v0,0
			4724: R_MIPS_LO16	printk
    4728:	0040f809 	jalr	v0
    472c:	24840000 	addiu	a0,a0,0
			472c: R_MIPS_LO16	$LC25
    4730:	080010c6 	j	4318 <HTCTrySend+0x138>
			4730: R_MIPS_26	.text
    4734:	3c020000 	lui	v0,0x0
			4734: R_MIPS_HI16	stack_force_interrupt
    4738:	3c020000 	lui	v0,0x0
			4738: R_MIPS_HI16	printk
    473c:	24420000 	addiu	v0,v0,0
			473c: R_MIPS_LO16	printk
    4740:	0040f809 	jalr	v0
    4744:	24840000 	addiu	a0,a0,0
			4744: R_MIPS_LO16	$LC26
    4748:	080010cf 	j	433c <HTCTrySend+0x15c>
			4748: R_MIPS_26	.text
    474c:	8e430060 	lw	v1,96(s2)
    4750:	8ec20000 	lw	v0,0(s6)
			4750: R_MIPS_LO16	debughtc
    4754:	30420001 	andi	v0,v0,0x1
    4758:	1040ff8a 	beqz	v0,4584 <HTCTrySend+0x3a4>
    475c:	3c040000 	lui	a0,0x0
			475c: R_MIPS_HI16	$LC31
    4760:	8e65001c 	lw	a1,28(s3)
    4764:	3c030000 	lui	v1,0x0
			4764: R_MIPS_HI16	printk
    4768:	24630000 	addiu	v1,v1,0
			4768: R_MIPS_LO16	printk
    476c:	0060f809 	jalr	v1
    4770:	24840000 	addiu	a0,a0,0
			4770: R_MIPS_LO16	$LC31
    4774:	08001162 	j	4588 <HTCTrySend+0x3a8>
			4774: R_MIPS_26	.text
    4778:	00008021 	move	s0,zero

0000477c <HTCIndicateActivityChange>:
    477c:	000511c0 	sll	v0,a1,0x7
    4780:	000528c0 	sll	a1,a1,0x3
    4784:	27bdffc8 	addiu	sp,sp,-56
    4788:	00451023 	subu	v0,v0,a1
    478c:	afb20020 	sw	s2,32(sp)
    4790:	afb1001c 	sw	s1,28(sp)
    4794:	afb00018 	sw	s0,24(sp)
    4798:	afbf0034 	sw	ra,52(sp)
    479c:	afb60030 	sw	s6,48(sp)
    47a0:	afb5002c 	sw	s5,44(sp)
    47a4:	afb40028 	sw	s4,40(sp)
    47a8:	afb30024 	sw	s3,36(sp)
    47ac:	00828021 	addu	s0,a0,v0
    47b0:	96030000 	lhu	v1,0(s0)
    47b4:	00809021 	move	s2,a0
    47b8:	14600022 	bnez	v1,4844 <HTCIndicateActivityChange+0xc8>
    47bc:	00c08821 	move	s1,a2
    47c0:	3c030000 	lui	v1,0x0
			47c0: R_MIPS_HI16	debughtc
    47c4:	8c620000 	lw	v0,0(v1)
			47c4: R_MIPS_LO16	debughtc
    47c8:	30420080 	andi	v0,v0,0x80
    47cc:	1440000b 	bnez	v0,47fc <HTCIndicateActivityChange+0x80>
    47d0:	3c040000 	lui	a0,0x0
			47d0: R_MIPS_HI16	$LC17
    47d4:	8fbf0034 	lw	ra,52(sp)
    47d8:	8fb60030 	lw	s6,48(sp)
    47dc:	8fb5002c 	lw	s5,44(sp)
    47e0:	8fb40028 	lw	s4,40(sp)
    47e4:	8fb30024 	lw	s3,36(sp)
    47e8:	8fb20020 	lw	s2,32(sp)
    47ec:	8fb1001c 	lw	s1,28(sp)
    47f0:	8fb00018 	lw	s0,24(sp)
    47f4:	03e00008 	jr	ra
    47f8:	27bd0038 	addiu	sp,sp,56
    47fc:	3c050000 	lui	a1,0x0
			47fc: R_MIPS_HI16	$LC18
    4800:	3c070000 	lui	a3,0x0
			4800: R_MIPS_HI16	$LC19
    4804:	3c190000 	lui	t9,0x0
			4804: R_MIPS_HI16	printk
    4808:	8fbf0034 	lw	ra,52(sp)
    480c:	8fb60030 	lw	s6,48(sp)
    4810:	8fb5002c 	lw	s5,44(sp)
    4814:	8fb40028 	lw	s4,40(sp)
    4818:	8fb30024 	lw	s3,36(sp)
    481c:	8fb20020 	lw	s2,32(sp)
    4820:	8fb1001c 	lw	s1,28(sp)
    4824:	8fb00018 	lw	s0,24(sp)
    4828:	24840000 	addiu	a0,a0,0
			4828: R_MIPS_LO16	$LC17
    482c:	24a50000 	addiu	a1,a1,0
			482c: R_MIPS_LO16	$LC18
    4830:	24e70000 	addiu	a3,a3,0
			4830: R_MIPS_LO16	$LC19
    4834:	24060250 	li	a2,592
    4838:	27390000 	addiu	t9,t9,0
			4838: R_MIPS_LO16	printk
    483c:	03200008 	jr	t9
    4840:	27bd0038 	addiu	sp,sp,56
    4844:	3c020000 	lui	v0,0x0
			4844: R_MIPS_HI16	local_bh_disable
    4848:	24420000 	addiu	v0,v0,0
			4848: R_MIPS_LO16	local_bh_disable
    484c:	0040f809 	jalr	v0
    4850:	00000000 	nop
    4854:	8f820014 	lw	v0,20(gp)
    4858:	24420001 	addiu	v0,v0,1
    485c:	1220003d 	beqz	s1,4954 <HTCIndicateActivityChange+0x1d8>
    4860:	af820014 	sw	v0,20(gp)
    4864:	8e030024 	lw	v1,36(s0)
    4868:	0460003d 	bltz	v1,4960 <HTCIndicateActivityChange+0x1e4>
    486c:	3c028000 	lui	v0,0x8000
    4870:	00621025 	or	v0,v1,v0
    4874:	ae020024 	sw	v0,36(s0)
    4878:	8e02006c 	lw	v0,108(s0)
    487c:	3c030000 	lui	v1,0x0
			487c: R_MIPS_HI16	debughtc
    4880:	ae02004c 	sw	v0,76(s0)
    4884:	8c620000 	lw	v0,0(v1)
			4884: R_MIPS_LO16	debughtc
    4888:	30420001 	andi	v0,v0,0x1
    488c:	1440004b 	bnez	v0,49bc <HTCIndicateActivityChange+0x240>
    4890:	3c040000 	lui	a0,0x0
			4890: R_MIPS_HI16	$LC13
    4894:	8e4205f8 	lw	v0,1528(s2)
    4898:	8e43060c 	lw	v1,1548(s2)
    489c:	8c450000 	lw	a1,0(v0)
    48a0:	8e440614 	lw	a0,1556(s2)
    48a4:	0060f809 	jalr	v1
    48a8:	24060001 	li	a2,1
    48ac:	24100001 	li	s0,1
    48b0:	8f830014 	lw	v1,20(gp)
    48b4:	3c040000 	lui	a0,0x0
			48b4: R_MIPS_HI16	local_bh_enable
    48b8:	2463ffff 	addiu	v1,v1,-1
    48bc:	24840000 	addiu	a0,a0,0
			48bc: R_MIPS_LO16	local_bh_enable
    48c0:	0080f809 	jalr	a0
    48c4:	af830014 	sw	v1,20(gp)
    48c8:	1200ffc3 	beqz	s0,47d8 <HTCIndicateActivityChange+0x5c>
    48cc:	8fbf0034 	lw	ra,52(sp)
    48d0:	1620ffc1 	bnez	s1,47d8 <HTCIndicateActivityChange+0x5c>
    48d4:	3c130000 	lui	s3,0x0
			48d4: R_MIPS_HI16	debughtc
    48d8:	8e620000 	lw	v0,0(s3)
			48d8: R_MIPS_LO16	debughtc
    48dc:	30420001 	andi	v0,v0,0x1
    48e0:	14400043 	bnez	v0,49f0 <HTCIndicateActivityChange+0x274>
    48e4:	3c040000 	lui	a0,0x0
			48e4: R_MIPS_HI16	$LC34
    48e8:	8e5105f8 	lw	s1,1528(s2)
    48ec:	1220001e 	beqz	s1,4968 <HTCIndicateActivityChange+0x1ec>
    48f0:	3c020000 	lui	v0,0x0
			48f0: R_MIPS_HI16	printk
    48f4:	3c030000 	lui	v1,0x0
			48f4: R_MIPS_HI16	.text
    48f8:	24560000 	addiu	s6,v0,0
			48f8: R_MIPS_LO16	printk
    48fc:	247541e0 	addiu	s5,v1,16864
			48fc: R_MIPS_LO16	.text
    4900:	08001249 	j	4924 <HTCIndicateActivityChange+0x1a8>
			4900: R_MIPS_26	.text
    4904:	3c140000 	lui	s4,0x0
			4904: R_MIPS_HI16	$LC35
    4908:	02002821 	move	a1,s0
    490c:	02402021 	move	a0,s2
    4910:	02a0f809 	jalr	s5
    4914:	00003021 	move	a2,zero
    4918:	8e310000 	lw	s1,0(s1)
    491c:	12200013 	beqz	s1,496c <HTCIndicateActivityChange+0x1f0>
    4920:	8e620000 	lw	v0,0(s3)
			4920: R_MIPS_LO16	debughtc
    4924:	8e300034 	lw	s0,52(s1)
    4928:	8e07006c 	lw	a3,108(s0)
    492c:	18e0fffa 	blez	a3,4918 <HTCIndicateActivityChange+0x19c>
    4930:	8e620000 	lw	v0,0(s3)
			4930: R_MIPS_LO16	debughtc
    4934:	30420001 	andi	v0,v0,0x1
    4938:	1040fff3 	beqz	v0,4908 <HTCIndicateActivityChange+0x18c>
    493c:	26840000 	addiu	a0,s4,0
			493c: R_MIPS_LO16	$LC35
    4940:	8e25000c 	lw	a1,12(s1)
    4944:	02c0f809 	jalr	s6
    4948:	8e060034 	lw	a2,52(s0)
    494c:	08001243 	j	490c <HTCIndicateActivityChange+0x190>
			494c: R_MIPS_26	.text
    4950:	02002821 	move	a1,s0
    4954:	8e030024 	lw	v1,36(s0)
    4958:	04600014 	bltz	v1,49ac <HTCIndicateActivityChange+0x230>
    495c:	3c027fff 	lui	v0,0x7fff
    4960:	0800122c 	j	48b0 <HTCIndicateActivityChange+0x134>
			4960: R_MIPS_26	.text
    4964:	00008021 	move	s0,zero
    4968:	8e620000 	lw	v0,0(s3)
			4968: R_MIPS_LO16	debughtc
    496c:	30420001 	andi	v0,v0,0x1
    4970:	1040ff99 	beqz	v0,47d8 <HTCIndicateActivityChange+0x5c>
    4974:	8fbf0034 	lw	ra,52(sp)
    4978:	3c040000 	lui	a0,0x0
			4978: R_MIPS_HI16	$LC36
    497c:	3c190000 	lui	t9,0x0
			497c: R_MIPS_HI16	printk
    4980:	8fb60030 	lw	s6,48(sp)
    4984:	8fb5002c 	lw	s5,44(sp)
    4988:	8fb40028 	lw	s4,40(sp)
    498c:	8fb30024 	lw	s3,36(sp)
    4990:	8fb20020 	lw	s2,32(sp)
    4994:	8fb1001c 	lw	s1,28(sp)
    4998:	8fb00018 	lw	s0,24(sp)
    499c:	24840000 	addiu	a0,a0,0
			499c: R_MIPS_LO16	$LC36
    49a0:	27390000 	addiu	t9,t9,0
			49a0: R_MIPS_LO16	printk
    49a4:	03200008 	jr	t9
    49a8:	27bd0038 	addiu	sp,sp,56
    49ac:	3442ffff 	ori	v0,v0,0xffff
    49b0:	00621024 	and	v0,v1,v0
    49b4:	0800121e 	j	4878 <HTCIndicateActivityChange+0xfc>
			49b4: R_MIPS_26	.text
    49b8:	ae020024 	sw	v0,36(s0)
    49bc:	8e4205f8 	lw	v0,1528(s2)
    49c0:	8e46060c 	lw	a2,1548(s2)
    49c4:	8c430000 	lw	v1,0(v0)
    49c8:	8e470614 	lw	a3,1556(s2)
    49cc:	3c050000 	lui	a1,0x0
			49cc: R_MIPS_HI16	$LC33
    49d0:	3c020000 	lui	v0,0x0
			49d0: R_MIPS_HI16	printk
    49d4:	24840000 	addiu	a0,a0,0
			49d4: R_MIPS_LO16	$LC13
    49d8:	24a50000 	addiu	a1,a1,0
			49d8: R_MIPS_LO16	$LC33
    49dc:	24420000 	addiu	v0,v0,0
			49dc: R_MIPS_LO16	printk
    49e0:	0040f809 	jalr	v0
    49e4:	afa30010 	sw	v1,16(sp)
    49e8:	08001226 	j	4898 <HTCIndicateActivityChange+0x11c>
			49e8: R_MIPS_26	.text
    49ec:	8e4205f8 	lw	v0,1528(s2)
    49f0:	3c020000 	lui	v0,0x0
			49f0: R_MIPS_HI16	printk
    49f4:	24420000 	addiu	v0,v0,0
			49f4: R_MIPS_LO16	printk
    49f8:	0040f809 	jalr	v0
    49fc:	24840000 	addiu	a0,a0,0
			49fc: R_MIPS_LO16	$LC34
    4a00:	0800123b 	j	48ec <HTCIndicateActivityChange+0x170>
			4a00: R_MIPS_26	.text
    4a04:	8e5105f8 	lw	s1,1528(s2)

00004a08 <HTCSendPkt>:
    4a08:	27bdffd8 	addiu	sp,sp,-40
    4a0c:	afb40020 	sw	s4,32(sp)
    4a10:	3c140000 	lui	s4,0x0
			4a10: R_MIPS_HI16	debughtc
    4a14:	8e820000 	lw	v0,0(s4)
			4a14: R_MIPS_LO16	debughtc
    4a18:	afb3001c 	sw	s3,28(sp)
    4a1c:	30420001 	andi	v0,v0,0x1
    4a20:	afb20018 	sw	s2,24(sp)
    4a24:	afbf0024 	sw	ra,36(sp)
    4a28:	afb10014 	sw	s1,20(sp)
    4a2c:	afb00010 	sw	s0,16(sp)
    4a30:	00809821 	move	s3,a0
    4a34:	1440002b 	bnez	v0,4ae4 <HTCSendPkt+0xdc>
    4a38:	00a09021 	move	s2,a1
    4a3c:	8e50001c 	lw	s0,28(s2)
    4a40:	2a020009 	slti	v0,s0,9
    4a44:	14400005 	bnez	v0,4a5c <HTCSendPkt+0x54>
    4a48:	001018c0 	sll	v1,s0,0x3
    4a4c:	8e820000 	lw	v0,0(s4)
			4a4c: R_MIPS_LO16	debughtc
    4a50:	30420080 	andi	v0,v0,0x80
    4a54:	1440003d 	bnez	v0,4b4c <HTCSendPkt+0x144>
    4a58:	3c040000 	lui	a0,0x0
			4a58: R_MIPS_HI16	$LC17
    4a5c:	001011c0 	sll	v0,s0,0x7
    4a60:	00431023 	subu	v0,v0,v1
    4a64:	3c030000 	lui	v1,0x0
			4a64: R_MIPS_HI16	.text
    4a68:	24633cc4 	addiu	v1,v1,15556
			4a68: R_MIPS_LO16	.text
    4a6c:	02628821 	addu	s1,s3,v0
    4a70:	3c020000 	lui	v0,0x0
			4a70: R_MIPS_HI16	.text
    4a74:	ae430028 	sw	v1,40(s2)
    4a78:	ae53002c 	sw	s3,44(s2)
    4a7c:	02602021 	move	a0,s3
    4a80:	02202821 	move	a1,s1
    4a84:	244241e0 	addiu	v0,v0,16864
			4a84: R_MIPS_LO16	.text
    4a88:	0040f809 	jalr	v0
    4a8c:	02403021 	move	a2,s2
    4a90:	24030001 	li	v1,1
    4a94:	1043001d 	beq	v0,v1,4b0c <HTCSendPkt+0x104>
    4a98:	8e820000 	lw	v0,0(s4)
			4a98: R_MIPS_LO16	debughtc
    4a9c:	00008021 	move	s0,zero
    4aa0:	30420001 	andi	v0,v0,0x1
    4aa4:	10400007 	beqz	v0,4ac4 <HTCSendPkt+0xbc>
    4aa8:	02001021 	move	v0,s0
    4aac:	3c040000 	lui	a0,0x0
			4aac: R_MIPS_HI16	$LC40
    4ab0:	3c020000 	lui	v0,0x0
			4ab0: R_MIPS_HI16	printk
    4ab4:	24420000 	addiu	v0,v0,0
			4ab4: R_MIPS_LO16	printk
    4ab8:	0040f809 	jalr	v0
    4abc:	24840000 	addiu	a0,a0,0
			4abc: R_MIPS_LO16	$LC40
    4ac0:	02001021 	move	v0,s0
    4ac4:	8fbf0024 	lw	ra,36(sp)
    4ac8:	8fb40020 	lw	s4,32(sp)
    4acc:	8fb3001c 	lw	s3,28(sp)
    4ad0:	8fb20018 	lw	s2,24(sp)
    4ad4:	8fb10014 	lw	s1,20(sp)
    4ad8:	8fb00010 	lw	s0,16(sp)
    4adc:	03e00008 	jr	ra
    4ae0:	27bd0028 	addiu	sp,sp,40
    4ae4:	8ca5001c 	lw	a1,28(a1)
    4ae8:	8e460010 	lw	a2,16(s2)
    4aec:	8e470018 	lw	a3,24(s2)
    4af0:	3c040000 	lui	a0,0x0
			4af0: R_MIPS_HI16	$LC37
    4af4:	3c020000 	lui	v0,0x0
			4af4: R_MIPS_HI16	printk
    4af8:	24420000 	addiu	v0,v0,0
			4af8: R_MIPS_LO16	printk
    4afc:	0040f809 	jalr	v0
    4b00:	24840000 	addiu	a0,a0,0
			4b00: R_MIPS_LO16	$LC37
    4b04:	08001290 	j	4a40 <HTCSendPkt+0x38>
			4b04: R_MIPS_26	.text
    4b08:	8e50001c 	lw	s0,28(s2)
    4b0c:	30420001 	andi	v0,v0,0x1
    4b10:	1440001b 	bnez	v0,4b80 <HTCSendPkt+0x178>
    4b14:	3c040000 	lui	a0,0x0
			4b14: R_MIPS_HI16	$LC39
    4b18:	8e620908 	lw	v0,2312(s3)
    4b1c:	30420002 	andi	v0,v0,0x2
    4b20:	10400015 	beqz	v0,4b78 <HTCSendPkt+0x170>
    4b24:	00000000 	nop
    4b28:	24100010 	li	s0,16
    4b2c:	ae500020 	sw	s0,32(s2)
    4b30:	ae400028 	sw	zero,40(s2)
    4b34:	8e240050 	lw	a0,80(s1)
    4b38:	8e220054 	lw	v0,84(s1)
    4b3c:	0040f809 	jalr	v0
    4b40:	02402821 	move	a1,s2
    4b44:	080012a8 	j	4aa0 <HTCSendPkt+0x98>
			4b44: R_MIPS_26	.text
    4b48:	8e820000 	lw	v0,0(s4)
			4b48: R_MIPS_LO16	debughtc
    4b4c:	3c050000 	lui	a1,0x0
			4b4c: R_MIPS_HI16	$LC18
    4b50:	3c070000 	lui	a3,0x0
			4b50: R_MIPS_HI16	$LC38
    4b54:	3c020000 	lui	v0,0x0
			4b54: R_MIPS_HI16	printk
    4b58:	24840000 	addiu	a0,a0,0
			4b58: R_MIPS_LO16	$LC17
    4b5c:	24a50000 	addiu	a1,a1,0
			4b5c: R_MIPS_LO16	$LC18
    4b60:	24e70000 	addiu	a3,a3,0
			4b60: R_MIPS_LO16	$LC38
    4b64:	24420000 	addiu	v0,v0,0
			4b64: R_MIPS_LO16	printk
    4b68:	0040f809 	jalr	v0
    4b6c:	2406013e 	li	a2,318
    4b70:	08001297 	j	4a5c <HTCSendPkt+0x54>
			4b70: R_MIPS_26	.text
    4b74:	001018c0 	sll	v1,s0,0x3
    4b78:	080012cb 	j	4b2c <HTCSendPkt+0x124>
			4b78: R_MIPS_26	.text
    4b7c:	24100016 	li	s0,22
    4b80:	3c020000 	lui	v0,0x0
			4b80: R_MIPS_HI16	printk
    4b84:	24840000 	addiu	a0,a0,0
			4b84: R_MIPS_LO16	$LC39
    4b88:	24420000 	addiu	v0,v0,0
			4b88: R_MIPS_LO16	printk
    4b8c:	0040f809 	jalr	v0
    4b90:	02002821 	move	a1,s0
    4b94:	080012c7 	j	4b1c <HTCSendPkt+0x114>
			4b94: R_MIPS_26	.text
    4b98:	8e620908 	lw	v0,2312(s3)

00004b9c <HTCProcessCreditRpt>:
    4b9c:	27bdffc0 	addiu	sp,sp,-64
    4ba0:	afb5002c 	sw	s5,44(sp)
    4ba4:	afb40028 	sw	s4,40(sp)
    4ba8:	afb30024 	sw	s3,36(sp)
    4bac:	afb1001c 	sw	s1,28(sp)
    4bb0:	afbf0038 	sw	ra,56(sp)
    4bb4:	afb70034 	sw	s7,52(sp)
    4bb8:	afb60030 	sw	s6,48(sp)
    4bbc:	afb20020 	sw	s2,32(sp)
    4bc0:	afb00018 	sw	s0,24(sp)
    4bc4:	3c150000 	lui	s5,0x0
			4bc4: R_MIPS_HI16	debughtc
    4bc8:	8ea20000 	lw	v0,0(s5)
			4bc8: R_MIPS_LO16	debughtc
    4bcc:	0080a021 	move	s4,a0
    4bd0:	30420001 	andi	v0,v0,0x1
    4bd4:	00a08821 	move	s1,a1
    4bd8:	1440009e 	bnez	v0,4e54 <HTCProcessCreditRpt+0x2b8>
    4bdc:	00c09821 	move	s3,a2
    4be0:	3c020000 	lui	v0,0x0
			4be0: R_MIPS_HI16	local_bh_disable
    4be4:	24420000 	addiu	v0,v0,0
			4be4: R_MIPS_LO16	local_bh_disable
    4be8:	0040f809 	jalr	v0
    4bec:	00000000 	nop
    4bf0:	8f820014 	lw	v0,20(gp)
    4bf4:	24420001 	addiu	v0,v0,1
    4bf8:	af820014 	sw	v0,20(gp)
    4bfc:	1a6000c2 	blez	s3,4f08 <HTCProcessCreditRpt+0x36c>
    4c00:	0000b021 	move	s6,zero
    4c04:	92270000 	lbu	a3,0(s1)
    4c08:	2ce20009 	sltiu	v0,a3,9
    4c0c:	1040001d 	beqz	v0,4c84 <HTCProcessCreditRpt+0xe8>
    4c10:	0000b821 	move	s7,zero
    4c14:	00009021 	move	s2,zero
    4c18:	8ea60000 	lw	a2,0(s5)
			4c18: R_MIPS_LO16	debughtc
    4c1c:	000718c0 	sll	v1,a3,0x3
    4c20:	000711c0 	sll	v0,a3,0x7
    4c24:	00431023 	subu	v0,v0,v1
    4c28:	3c040000 	lui	a0,0x0
			4c28: R_MIPS_HI16	$LC42
    4c2c:	30c60001 	andi	a2,a2,0x1
    4c30:	00e02821 	move	a1,a3
    4c34:	24840000 	addiu	a0,a0,0
			4c34: R_MIPS_LO16	$LC42
    4c38:	14c0004d 	bnez	a2,4d70 <HTCProcessCreditRpt+0x1d4>
    4c3c:	02828021 	addu	s0,s4,v0
    4c40:	14e00052 	bnez	a3,4d8c <HTCProcessCreditRpt+0x1f0>
    4c44:	00000000 	nop
    4c48:	92230001 	lbu	v1,1(s1)
    4c4c:	8e020034 	lw	v0,52(s0)
    4c50:	00431021 	addu	v0,v0,v1
    4c54:	ae020034 	sw	v0,52(s0)
    4c58:	8e02006c 	lw	v0,108(s0)
    4c5c:	26520001 	addiu	s2,s2,1
    4c60:	ae02004c 	sw	v0,76(s0)
    4c64:	92230001 	lbu	v1,1(s1)
    4c68:	26310002 	addiu	s1,s1,2
    4c6c:	12720009 	beq	s3,s2,4c94 <HTCProcessCreditRpt+0xf8>
    4c70:	02c3b021 	addu	s6,s6,v1
    4c74:	92270000 	lbu	a3,0(s1)
    4c78:	2ce20009 	sltiu	v0,a3,9
    4c7c:	1440ffe7 	bnez	v0,4c1c <HTCProcessCreditRpt+0x80>
    4c80:	8ea60000 	lw	a2,0(s5)
			4c80: R_MIPS_LO16	debughtc
    4c84:	8ea20000 	lw	v0,0(s5)
			4c84: R_MIPS_LO16	debughtc
    4c88:	30420080 	andi	v0,v0,0x80
    4c8c:	1440008f 	bnez	v0,4ecc <HTCProcessCreditRpt+0x330>
    4c90:	3c020000 	lui	v0,0x0
			4c90: R_MIPS_HI16	printk
    4c94:	8ea20000 	lw	v0,0(s5)
			4c94: R_MIPS_LO16	debughtc
    4c98:	30420001 	andi	v0,v0,0x1
    4c9c:	14400065 	bnez	v0,4e34 <HTCProcessCreditRpt+0x298>
    4ca0:	00000000 	nop
    4ca4:	12e0000b 	beqz	s7,4cd4 <HTCProcessCreditRpt+0x138>
    4ca8:	3c030000 	lui	v1,0x0
			4ca8: R_MIPS_HI16	debughtc
    4cac:	8c620000 	lw	v0,0(v1)
			4cac: R_MIPS_LO16	debughtc
    4cb0:	30420001 	andi	v0,v0,0x1
    4cb4:	14400078 	bnez	v0,4e98 <HTCProcessCreditRpt+0x2fc>
    4cb8:	3c040000 	lui	a0,0x0
			4cb8: R_MIPS_HI16	$LC13
    4cbc:	8e8205f8 	lw	v0,1528(s4)
    4cc0:	8e83060c 	lw	v1,1548(s4)
    4cc4:	8c450000 	lw	a1,0(v0)
    4cc8:	8e840614 	lw	a0,1556(s4)
    4ccc:	0060f809 	jalr	v1
    4cd0:	00003021 	move	a2,zero
    4cd4:	8f830014 	lw	v1,20(gp)
    4cd8:	3c040000 	lui	a0,0x0
			4cd8: R_MIPS_HI16	local_bh_enable
    4cdc:	2463ffff 	addiu	v1,v1,-1
    4ce0:	24840000 	addiu	a0,a0,0
			4ce0: R_MIPS_LO16	local_bh_enable
    4ce4:	0080f809 	jalr	a0
    4ce8:	af830014 	sw	v1,20(gp)
    4cec:	12c00040 	beqz	s6,4df0 <HTCProcessCreditRpt+0x254>
    4cf0:	8ea20000 	lw	v0,0(s5)
			4cf0: R_MIPS_LO16	debughtc
    4cf4:	30420001 	andi	v0,v0,0x1
    4cf8:	1440005e 	bnez	v0,4e74 <HTCProcessCreditRpt+0x2d8>
    4cfc:	3c040000 	lui	a0,0x0
			4cfc: R_MIPS_HI16	$LC34
    4d00:	8e9105f8 	lw	s1,1528(s4)
    4d04:	12200027 	beqz	s1,4da4 <HTCProcessCreditRpt+0x208>
    4d08:	8ea20000 	lw	v0,0(s5)
			4d08: R_MIPS_LO16	debughtc
    4d0c:	3c020000 	lui	v0,0x0
			4d0c: R_MIPS_HI16	printk
    4d10:	3c030000 	lui	v1,0x0
			4d10: R_MIPS_HI16	.text
    4d14:	24560000 	addiu	s6,v0,0
			4d14: R_MIPS_LO16	printk
    4d18:	247341e0 	addiu	s3,v1,16864
			4d18: R_MIPS_LO16	.text
    4d1c:	08001350 	j	4d40 <HTCProcessCreditRpt+0x1a4>
			4d1c: R_MIPS_26	.text
    4d20:	3c120000 	lui	s2,0x0
			4d20: R_MIPS_HI16	$LC35
    4d24:	02002821 	move	a1,s0
    4d28:	02802021 	move	a0,s4
    4d2c:	0260f809 	jalr	s3
    4d30:	00003021 	move	a2,zero
    4d34:	8e310000 	lw	s1,0(s1)
    4d38:	1220001a 	beqz	s1,4da4 <HTCProcessCreditRpt+0x208>
    4d3c:	8ea20000 	lw	v0,0(s5)
			4d3c: R_MIPS_LO16	debughtc
    4d40:	8e300034 	lw	s0,52(s1)
    4d44:	8e07006c 	lw	a3,108(s0)
    4d48:	18e0fffa 	blez	a3,4d34 <HTCProcessCreditRpt+0x198>
    4d4c:	8ea20000 	lw	v0,0(s5)
			4d4c: R_MIPS_LO16	debughtc
    4d50:	30420001 	andi	v0,v0,0x1
    4d54:	1040fff3 	beqz	v0,4d24 <HTCProcessCreditRpt+0x188>
    4d58:	26440000 	addiu	a0,s2,0
			4d58: R_MIPS_LO16	$LC35
    4d5c:	8e25000c 	lw	a1,12(s1)
    4d60:	02c0f809 	jalr	s6
    4d64:	8e060034 	lw	a2,52(s0)
    4d68:	0800134a 	j	4d28 <HTCProcessCreditRpt+0x18c>
			4d68: R_MIPS_26	.text
    4d6c:	02002821 	move	a1,s0
    4d70:	3c020000 	lui	v0,0x0
			4d70: R_MIPS_HI16	printk
    4d74:	24420000 	addiu	v0,v0,0
			4d74: R_MIPS_LO16	printk
    4d78:	0040f809 	jalr	v0
    4d7c:	92260001 	lbu	a2,1(s1)
    4d80:	92270000 	lbu	a3,0(s1)
    4d84:	10e0ffb0 	beqz	a3,4c48 <HTCProcessCreditRpt+0xac>
    4d88:	00000000 	nop
    4d8c:	92230001 	lbu	v1,1(s1)
    4d90:	8e020038 	lw	v0,56(s0)
    4d94:	24170001 	li	s7,1
    4d98:	00431021 	addu	v0,v0,v1
    4d9c:	08001316 	j	4c58 <HTCProcessCreditRpt+0xbc>
			4d9c: R_MIPS_26	.text
    4da0:	ae020038 	sw	v0,56(s0)
    4da4:	30420001 	andi	v0,v0,0x1
    4da8:	1440000c 	bnez	v0,4ddc <HTCProcessCreditRpt+0x240>
    4dac:	3c040000 	lui	a0,0x0
			4dac: R_MIPS_HI16	$LC36
    4db0:	8fbf0038 	lw	ra,56(sp)
    4db4:	8fb70034 	lw	s7,52(sp)
    4db8:	8fb60030 	lw	s6,48(sp)
    4dbc:	8fb5002c 	lw	s5,44(sp)
    4dc0:	8fb40028 	lw	s4,40(sp)
    4dc4:	8fb30024 	lw	s3,36(sp)
    4dc8:	8fb20020 	lw	s2,32(sp)
    4dcc:	8fb1001c 	lw	s1,28(sp)
    4dd0:	8fb00018 	lw	s0,24(sp)
    4dd4:	03e00008 	jr	ra
    4dd8:	27bd0040 	addiu	sp,sp,64
    4ddc:	3c020000 	lui	v0,0x0
			4ddc: R_MIPS_HI16	printk
    4de0:	24420000 	addiu	v0,v0,0
			4de0: R_MIPS_LO16	printk
    4de4:	0040f809 	jalr	v0
    4de8:	24840000 	addiu	a0,a0,0
			4de8: R_MIPS_LO16	$LC36
    4dec:	8ea20000 	lw	v0,0(s5)
			4dec: R_MIPS_LO16	debughtc
    4df0:	30420001 	andi	v0,v0,0x1
    4df4:	1040ffef 	beqz	v0,4db4 <HTCProcessCreditRpt+0x218>
    4df8:	8fbf0038 	lw	ra,56(sp)
    4dfc:	3c040000 	lui	a0,0x0
			4dfc: R_MIPS_HI16	$LC45
    4e00:	3c190000 	lui	t9,0x0
			4e00: R_MIPS_HI16	printk
    4e04:	8fb70034 	lw	s7,52(sp)
    4e08:	8fb60030 	lw	s6,48(sp)
    4e0c:	8fb5002c 	lw	s5,44(sp)
    4e10:	8fb40028 	lw	s4,40(sp)
    4e14:	8fb30024 	lw	s3,36(sp)
    4e18:	8fb20020 	lw	s2,32(sp)
    4e1c:	8fb1001c 	lw	s1,28(sp)
    4e20:	8fb00018 	lw	s0,24(sp)
    4e24:	24840000 	addiu	a0,a0,0
			4e24: R_MIPS_LO16	$LC45
    4e28:	27390000 	addiu	t9,t9,0
			4e28: R_MIPS_LO16	printk
    4e2c:	03200008 	jr	t9
    4e30:	27bd0040 	addiu	sp,sp,64
    4e34:	3c040000 	lui	a0,0x0
			4e34: R_MIPS_HI16	$LC43
    4e38:	3c020000 	lui	v0,0x0
			4e38: R_MIPS_HI16	printk
    4e3c:	24840000 	addiu	a0,a0,0
			4e3c: R_MIPS_LO16	$LC43
    4e40:	24420000 	addiu	v0,v0,0
			4e40: R_MIPS_LO16	printk
    4e44:	0040f809 	jalr	v0
    4e48:	02c02821 	move	a1,s6
    4e4c:	08001329 	j	4ca4 <HTCProcessCreditRpt+0x108>
			4e4c: R_MIPS_26	.text
    4e50:	00000000 	nop
    4e54:	3c040000 	lui	a0,0x0
			4e54: R_MIPS_HI16	$LC41
    4e58:	3c020000 	lui	v0,0x0
			4e58: R_MIPS_HI16	printk
    4e5c:	24840000 	addiu	a0,a0,0
			4e5c: R_MIPS_LO16	$LC41
    4e60:	24420000 	addiu	v0,v0,0
			4e60: R_MIPS_LO16	printk
    4e64:	0040f809 	jalr	v0
    4e68:	00c02821 	move	a1,a2
    4e6c:	080012f9 	j	4be4 <HTCProcessCreditRpt+0x48>
			4e6c: R_MIPS_26	.text
    4e70:	3c020000 	lui	v0,0x0
			4e70: R_MIPS_HI16	local_bh_disable
    4e74:	3c020000 	lui	v0,0x0
			4e74: R_MIPS_HI16	printk
    4e78:	24420000 	addiu	v0,v0,0
			4e78: R_MIPS_LO16	printk
    4e7c:	0040f809 	jalr	v0
    4e80:	24840000 	addiu	a0,a0,0
			4e80: R_MIPS_LO16	$LC34
    4e84:	8e9105f8 	lw	s1,1528(s4)
    4e88:	1620ffa0 	bnez	s1,4d0c <HTCProcessCreditRpt+0x170>
    4e8c:	8ea20000 	lw	v0,0(s5)
			4e8c: R_MIPS_LO16	debughtc
    4e90:	0800136a 	j	4da8 <HTCProcessCreditRpt+0x20c>
			4e90: R_MIPS_26	.text
    4e94:	30420001 	andi	v0,v0,0x1
    4e98:	8e8205f8 	lw	v0,1528(s4)
    4e9c:	8e86060c 	lw	a2,1548(s4)
    4ea0:	8c430000 	lw	v1,0(v0)
    4ea4:	8e870614 	lw	a3,1556(s4)
    4ea8:	3c050000 	lui	a1,0x0
			4ea8: R_MIPS_HI16	$LC44
    4eac:	3c020000 	lui	v0,0x0
			4eac: R_MIPS_HI16	printk
    4eb0:	24840000 	addiu	a0,a0,0
			4eb0: R_MIPS_LO16	$LC13
    4eb4:	24a50000 	addiu	a1,a1,0
			4eb4: R_MIPS_LO16	$LC44
    4eb8:	24420000 	addiu	v0,v0,0
			4eb8: R_MIPS_LO16	printk
    4ebc:	0040f809 	jalr	v0
    4ec0:	afa30010 	sw	v1,16(sp)
    4ec4:	08001330 	j	4cc0 <HTCProcessCreditRpt+0x124>
			4ec4: R_MIPS_26	.text
    4ec8:	8e8205f8 	lw	v0,1528(s4)
    4ecc:	3c040000 	lui	a0,0x0
			4ecc: R_MIPS_HI16	$LC17
    4ed0:	3c050000 	lui	a1,0x0
			4ed0: R_MIPS_HI16	$LC18
    4ed4:	3c070000 	lui	a3,0x0
			4ed4: R_MIPS_HI16	$LC19
    4ed8:	24840000 	addiu	a0,a0,0
			4ed8: R_MIPS_LO16	$LC17
    4edc:	24a50000 	addiu	a1,a1,0
			4edc: R_MIPS_LO16	$LC18
    4ee0:	24e70000 	addiu	a3,a3,0
			4ee0: R_MIPS_LO16	$LC19
    4ee4:	24420000 	addiu	v0,v0,0
			4ee4: R_MIPS_LO16	printk
    4ee8:	0040f809 	jalr	v0
    4eec:	2406018f 	li	a2,399
    4ef0:	8ea20000 	lw	v0,0(s5)
			4ef0: R_MIPS_LO16	debughtc
    4ef4:	30420001 	andi	v0,v0,0x1
    4ef8:	1040ff6a 	beqz	v0,4ca4 <HTCProcessCreditRpt+0x108>
    4efc:	00000000 	nop
    4f00:	0800138e 	j	4e38 <HTCProcessCreditRpt+0x29c>
			4f00: R_MIPS_26	.text
    4f04:	3c040000 	lui	a0,0x0
			4f04: R_MIPS_HI16	$LC43
    4f08:	08001325 	j	4c94 <HTCProcessCreditRpt+0xf8>
			4f08: R_MIPS_26	.text
    4f0c:	0000b821 	move	s7,zero

00004f10 <HTCDisableRecv>:
    4f10:	8c820908 	lw	v0,2312(a0)
    4f14:	00002821 	move	a1,zero
    4f18:	30420002 	andi	v0,v0,0x2
    4f1c:	10400003 	beqz	v0,4f2c <HTCDisableRecv+0x1c>
    4f20:	24840620 	addiu	a0,a0,1568
    4f24:	03e00008 	jr	ra
    4f28:	00000000 	nop
    4f2c:	3c190000 	lui	t9,0x0
			4f2c: R_MIPS_HI16	DevStopRecv
    4f30:	27390000 	addiu	t9,t9,0
			4f30: R_MIPS_LO16	DevStopRecv
    4f34:	03200008 	jr	t9
    4f38:	00000000 	nop

00004f3c <HTCEnableRecv>:
    4f3c:	8c820908 	lw	v0,2312(a0)
    4f40:	00002821 	move	a1,zero
    4f44:	30420002 	andi	v0,v0,0x2
    4f48:	10400003 	beqz	v0,4f58 <HTCEnableRecv+0x1c>
    4f4c:	24840620 	addiu	a0,a0,1568
    4f50:	03e00008 	jr	ra
    4f54:	00000000 	nop
    4f58:	3c190000 	lui	t9,0x0
			4f58: R_MIPS_HI16	DevEnableRecv
    4f5c:	27390000 	addiu	t9,t9,0
			4f5c: R_MIPS_LO16	DevEnableRecv
    4f60:	03200008 	jr	t9
    4f64:	00000000 	nop

00004f68 <HTCFlushRecvBuffers>:
    4f68:	27bdffc8 	addiu	sp,sp,-56
    4f6c:	3c020000 	lui	v0,0x0
			4f6c: R_MIPS_HI16	local_bh_disable
    4f70:	afb60028 	sw	s6,40(sp)
    4f74:	3c030000 	lui	v1,0x0
			4f74: R_MIPS_HI16	local_bh_enable
    4f78:	24560000 	addiu	s6,v0,0
			4f78: R_MIPS_LO16	local_bh_disable
    4f7c:	3c020000 	lui	v0,0x0
			4f7c: R_MIPS_HI16	printk
    4f80:	afb7002c 	sw	s7,44(sp)
    4f84:	afb50024 	sw	s5,36(sp)
    4f88:	afb3001c 	sw	s3,28(sp)
    4f8c:	afb10014 	sw	s1,20(sp)
    4f90:	24750000 	addiu	s5,v1,0
			4f90: R_MIPS_LO16	local_bh_enable
    4f94:	24570000 	addiu	s7,v0,0
			4f94: R_MIPS_LO16	printk
    4f98:	00808821 	move	s1,a0
    4f9c:	00009821 	move	s3,zero
    4fa0:	afbf0030 	sw	ra,48(sp)
    4fa4:	afb40020 	sw	s4,32(sp)
    4fa8:	afb20018 	sw	s2,24(sp)
    4fac:	080013f0 	j	4fc0 <HTCFlushRecvBuffers+0x58>
			4fac: R_MIPS_26	.text
    4fb0:	afb00010 	sw	s0,16(sp)
    4fb4:	26730001 	addiu	s3,s3,1
    4fb8:	12620046 	beq	s3,v0,50d4 <HTCFlushRecvBuffers+0x16c>
    4fbc:	26310078 	addiu	s1,s1,120
    4fc0:	96220000 	lhu	v0,0(s1)
    4fc4:	1040fffb 	beqz	v0,4fb4 <HTCFlushRecvBuffers+0x4c>
    4fc8:	24020009 	li	v0,9
    4fcc:	02c0f809 	jalr	s6
    4fd0:	00000000 	nop
    4fd4:	8f820014 	lw	v0,20(gp)
    4fd8:	24420001 	addiu	v0,v0,1
    4fdc:	af820014 	sw	v0,20(gp)
    4fe0:	8e300010 	lw	s0,16(s1)
    4fe4:	2632000c 	addiu	s2,s1,12
    4fe8:	12500032 	beq	s2,s0,50b4 <HTCFlushRecvBuffers+0x14c>
    4fec:	00000000 	nop
    4ff0:	0800140a 	j	5028 <HTCFlushRecvBuffers+0xc0>
			4ff0: R_MIPS_26	.text
    4ff4:	3c140000 	lui	s4,0x0
			4ff4: R_MIPS_HI16	debughtc
    4ff8:	8e220058 	lw	v0,88(s1)
    4ffc:	8e240050 	lw	a0,80(s1)
    5000:	0040f809 	jalr	v0
    5004:	02002821 	move	a1,s0
    5008:	02c0f809 	jalr	s6
    500c:	00000000 	nop
    5010:	8f820014 	lw	v0,20(gp)
    5014:	24420001 	addiu	v0,v0,1
    5018:	af820014 	sw	v0,20(gp)
    501c:	8e500004 	lw	s0,4(s2)
    5020:	12500024 	beq	s2,s0,50b4 <HTCFlushRecvBuffers+0x14c>
    5024:	00000000 	nop
    5028:	8e040004 	lw	a0,4(s0)
    502c:	8e020000 	lw	v0,0(s0)
    5030:	ac820000 	sw	v0,0(a0)
    5034:	8e030000 	lw	v1,0(s0)
    5038:	ae100000 	sw	s0,0(s0)
    503c:	ac640004 	sw	a0,4(v1)
    5040:	ae100004 	sw	s0,4(s0)
    5044:	8f820014 	lw	v0,20(gp)
    5048:	2442ffff 	addiu	v0,v0,-1
    504c:	02a0f809 	jalr	s5
    5050:	af820014 	sw	v0,20(gp)
    5054:	24020010 	li	v0,16
    5058:	ae020020 	sw	v0,32(s0)
    505c:	ae000018 	sw	zero,24(s0)
    5060:	8e820000 	lw	v0,0(s4)
			5060: R_MIPS_LO16	debughtc
    5064:	30420002 	andi	v0,v0,0x2
    5068:	1040ffe3 	beqz	v0,4ff8 <HTCFlushRecvBuffers+0x90>
    506c:	3c040000 	lui	a0,0x0
			506c: R_MIPS_HI16	$LC0
    5070:	8e060014 	lw	a2,20(s0)
    5074:	8e07001c 	lw	a3,28(s0)
    5078:	02002821 	move	a1,s0
    507c:	02e0f809 	jalr	s7
    5080:	24840000 	addiu	a0,a0,0
			5080: R_MIPS_LO16	$LC0
    5084:	8e220058 	lw	v0,88(s1)
    5088:	8e240050 	lw	a0,80(s1)
    508c:	0040f809 	jalr	v0
    5090:	02002821 	move	a1,s0
    5094:	02c0f809 	jalr	s6
    5098:	00000000 	nop
    509c:	8f820014 	lw	v0,20(gp)
    50a0:	24420001 	addiu	v0,v0,1
    50a4:	af820014 	sw	v0,20(gp)
    50a8:	8e500004 	lw	s0,4(s2)
    50ac:	1650ffde 	bne	s2,s0,5028 <HTCFlushRecvBuffers+0xc0>
    50b0:	00000000 	nop
    50b4:	8f820014 	lw	v0,20(gp)
    50b8:	26730001 	addiu	s3,s3,1
    50bc:	2442ffff 	addiu	v0,v0,-1
    50c0:	02a0f809 	jalr	s5
    50c4:	af820014 	sw	v0,20(gp)
    50c8:	24020009 	li	v0,9
    50cc:	1662ffbc 	bne	s3,v0,4fc0 <HTCFlushRecvBuffers+0x58>
    50d0:	26310078 	addiu	s1,s1,120
    50d4:	8fbf0030 	lw	ra,48(sp)
    50d8:	8fb7002c 	lw	s7,44(sp)
    50dc:	8fb60028 	lw	s6,40(sp)
    50e0:	8fb50024 	lw	s5,36(sp)
    50e4:	8fb40020 	lw	s4,32(sp)
    50e8:	8fb3001c 	lw	s3,28(sp)
    50ec:	8fb20018 	lw	s2,24(sp)
    50f0:	8fb10014 	lw	s1,20(sp)
    50f4:	8fb00010 	lw	s0,16(sp)
    50f8:	03e00008 	jr	ra
    50fc:	27bd0038 	addiu	sp,sp,56

00005100 <HTCUnblockRecv>:
    5100:	27bdffe0 	addiu	sp,sp,-32
    5104:	3c020000 	lui	v0,0x0
			5104: R_MIPS_HI16	local_bh_disable
    5108:	afb00010 	sw	s0,16(sp)
    510c:	afbf0018 	sw	ra,24(sp)
    5110:	afb10014 	sw	s1,20(sp)
    5114:	24420000 	addiu	v0,v0,0
			5114: R_MIPS_LO16	local_bh_disable
    5118:	0040f809 	jalr	v0
    511c:	00808021 	move	s0,a0
    5120:	8f820014 	lw	v0,20(gp)
    5124:	24420001 	addiu	v0,v0,1
    5128:	af820014 	sw	v0,20(gp)
    512c:	8e050908 	lw	a1,2312(s0)
    5130:	30a20001 	andi	v0,a1,0x1
    5134:	1040000d 	beqz	v0,516c <HTCUnblockRecv+0x6c>
    5138:	00008821 	move	s1,zero
    513c:	3c020000 	lui	v0,0x0
			513c: R_MIPS_HI16	debughtc
    5140:	8c430000 	lw	v1,0(v0)
			5140: R_MIPS_LO16	debughtc
    5144:	3c040000 	lui	a0,0x0
			5144: R_MIPS_HI16	$LC1
    5148:	30630002 	andi	v1,v1,0x2
    514c:	14600020 	bnez	v1,51d0 <HTCUnblockRecv+0xd0>
    5150:	24840000 	addiu	a0,a0,0
			5150: R_MIPS_LO16	$LC1
    5154:	2402fffe 	li	v0,-2
    5158:	00a21024 	and	v0,a1,v0
    515c:	24030009 	li	v1,9
    5160:	ae020908 	sw	v0,2312(s0)
    5164:	ae03090c 	sw	v1,2316(s0)
    5168:	24110001 	li	s1,1
    516c:	8f830014 	lw	v1,20(gp)
    5170:	3c040000 	lui	a0,0x0
			5170: R_MIPS_HI16	local_bh_enable
    5174:	2463ffff 	addiu	v1,v1,-1
    5178:	24840000 	addiu	a0,a0,0
			5178: R_MIPS_LO16	local_bh_enable
    517c:	0080f809 	jalr	a0
    5180:	af830014 	sw	v1,20(gp)
    5184:	12200007 	beqz	s1,51a4 <HTCUnblockRecv+0xa4>
    5188:	8fbf0018 	lw	ra,24(sp)
    518c:	8e020908 	lw	v0,2312(s0)
    5190:	26040620 	addiu	a0,s0,1568
    5194:	30420002 	andi	v0,v0,0x2
    5198:	10400006 	beqz	v0,51b4 <HTCUnblockRecv+0xb4>
    519c:	24050001 	li	a1,1
    51a0:	8fbf0018 	lw	ra,24(sp)
    51a4:	8fb10014 	lw	s1,20(sp)
    51a8:	8fb00010 	lw	s0,16(sp)
    51ac:	03e00008 	jr	ra
    51b0:	27bd0020 	addiu	sp,sp,32
    51b4:	3c190000 	lui	t9,0x0
			51b4: R_MIPS_HI16	DevEnableRecv
    51b8:	8fbf0018 	lw	ra,24(sp)
    51bc:	8fb10014 	lw	s1,20(sp)
    51c0:	8fb00010 	lw	s0,16(sp)
    51c4:	27390000 	addiu	t9,t9,0
			51c4: R_MIPS_LO16	DevEnableRecv
    51c8:	03200008 	jr	t9
    51cc:	27bd0020 	addiu	sp,sp,32
    51d0:	3c020000 	lui	v0,0x0
			51d0: R_MIPS_HI16	printk
    51d4:	24420000 	addiu	v0,v0,0
			51d4: R_MIPS_LO16	printk
    51d8:	0040f809 	jalr	v0
    51dc:	8e05090c 	lw	a1,2316(s0)
    51e0:	08001455 	j	5154 <HTCUnblockRecv+0x54>
			51e0: R_MIPS_26	.text
    51e4:	8e050908 	lw	a1,2312(s0)

000051e8 <HTCAddReceivePkt>:
    51e8:	27bdffd8 	addiu	sp,sp,-40
    51ec:	afb3001c 	sw	s3,28(sp)
    51f0:	3c130000 	lui	s3,0x0
			51f0: R_MIPS_HI16	debughtc
    51f4:	8e620000 	lw	v0,0(s3)
			51f4: R_MIPS_LO16	debughtc
    51f8:	afb20018 	sw	s2,24(sp)
    51fc:	30420001 	andi	v0,v0,0x1
    5200:	afb10014 	sw	s1,20(sp)
    5204:	afbf0020 	sw	ra,32(sp)
    5208:	afb00010 	sw	s0,16(sp)
    520c:	00809021 	move	s2,a0
    5210:	1440002a 	bnez	v0,52bc <HTCAddReceivePkt+0xd4>
    5214:	00a08821 	move	s1,a1
    5218:	8e24001c 	lw	a0,28(s1)
    521c:	28820009 	slti	v0,a0,9
    5220:	14400006 	bnez	v0,523c <HTCAddReceivePkt+0x54>
    5224:	000410c0 	sll	v0,a0,0x3
    5228:	8e620000 	lw	v0,0(s3)
			5228: R_MIPS_LO16	debughtc
    522c:	30420080 	andi	v0,v0,0x80
    5230:	1440002c 	bnez	v0,52e4 <HTCAddReceivePkt+0xfc>
    5234:	3c050000 	lui	a1,0x0
			5234: R_MIPS_HI16	$LC4
    5238:	000410c0 	sll	v0,a0,0x3
    523c:	000419c0 	sll	v1,a0,0x7
    5240:	00621823 	subu	v1,v1,v0
    5244:	3c020000 	lui	v0,0x0
			5244: R_MIPS_HI16	local_bh_disable
    5248:	24420000 	addiu	v0,v0,0
			5248: R_MIPS_LO16	local_bh_disable
    524c:	0040f809 	jalr	v0
    5250:	02438021 	addu	s0,s2,v1
    5254:	8f820014 	lw	v0,20(gp)
    5258:	24420001 	addiu	v0,v0,1
    525c:	af820014 	sw	v0,20(gp)
    5260:	8e420908 	lw	v0,2312(s2)
    5264:	30420002 	andi	v0,v0,0x2
    5268:	10400029 	beqz	v0,5310 <HTCAddReceivePkt+0x128>
    526c:	24020010 	li	v0,16
    5270:	ae220020 	sw	v0,32(s1)
    5274:	8f820014 	lw	v0,20(gp)
    5278:	3c030000 	lui	v1,0x0
			5278: R_MIPS_HI16	local_bh_enable
    527c:	2442ffff 	addiu	v0,v0,-1
    5280:	24630000 	addiu	v1,v1,0
			5280: R_MIPS_LO16	local_bh_enable
    5284:	0060f809 	jalr	v1
    5288:	af820014 	sw	v0,20(gp)
    528c:	8e020058 	lw	v0,88(s0)
    5290:	8e040050 	lw	a0,80(s0)
    5294:	0040f809 	jalr	v0
    5298:	02202821 	move	a1,s1
    529c:	24020010 	li	v0,16
    52a0:	8fbf0020 	lw	ra,32(sp)
    52a4:	8fb3001c 	lw	s3,28(sp)
    52a8:	8fb20018 	lw	s2,24(sp)
    52ac:	8fb10014 	lw	s1,20(sp)
    52b0:	8fb00010 	lw	s0,16(sp)
    52b4:	03e00008 	jr	ra
    52b8:	27bd0028 	addiu	sp,sp,40
    52bc:	8ca5001c 	lw	a1,28(a1)
    52c0:	8e260010 	lw	a2,16(s1)
    52c4:	8e270014 	lw	a3,20(s1)
    52c8:	3c040000 	lui	a0,0x0
			52c8: R_MIPS_HI16	$LC2
    52cc:	3c020000 	lui	v0,0x0
			52cc: R_MIPS_HI16	printk
    52d0:	24420000 	addiu	v0,v0,0
			52d0: R_MIPS_LO16	printk
    52d4:	0040f809 	jalr	v0
    52d8:	24840000 	addiu	a0,a0,0
			52d8: R_MIPS_LO16	$LC2
    52dc:	08001487 	j	521c <HTCAddReceivePkt+0x34>
			52dc: R_MIPS_26	.text
    52e0:	8e24001c 	lw	a0,28(s1)
    52e4:	3c040000 	lui	a0,0x0
			52e4: R_MIPS_HI16	$LC3
    52e8:	3c070000 	lui	a3,0x0
			52e8: R_MIPS_HI16	$LC5
    52ec:	3c020000 	lui	v0,0x0
			52ec: R_MIPS_HI16	printk
    52f0:	24840000 	addiu	a0,a0,0
			52f0: R_MIPS_LO16	$LC3
    52f4:	24a50000 	addiu	a1,a1,0
			52f4: R_MIPS_LO16	$LC4
    52f8:	24e70000 	addiu	a3,a3,0
			52f8: R_MIPS_LO16	$LC5
    52fc:	24420000 	addiu	v0,v0,0
			52fc: R_MIPS_LO16	printk
    5300:	0040f809 	jalr	v0
    5304:	24060390 	li	a2,912
    5308:	0800148e 	j	5238 <HTCAddReceivePkt+0x50>
			5308: R_MIPS_26	.text
    530c:	8e24001c 	lw	a0,28(s1)
    5310:	8e02000c 	lw	v0,12(s0)
    5314:	2603000c 	addiu	v1,s0,12
    5318:	ae220000 	sw	v0,0(s1)
    531c:	8e04000c 	lw	a0,12(s0)
    5320:	ae230004 	sw	v1,4(s1)
    5324:	ae11000c 	sw	s1,12(s0)
    5328:	ac910004 	sw	s1,4(a0)
    532c:	8e430908 	lw	v1,2312(s2)
    5330:	30620001 	andi	v0,v1,0x1
    5334:	1440000f 	bnez	v0,5374 <HTCAddReceivePkt+0x18c>
    5338:	00008021 	move	s0,zero
    533c:	8f830014 	lw	v1,20(gp)
    5340:	3c040000 	lui	a0,0x0
			5340: R_MIPS_HI16	local_bh_enable
    5344:	2463ffff 	addiu	v1,v1,-1
    5348:	24840000 	addiu	a0,a0,0
			5348: R_MIPS_LO16	local_bh_enable
    534c:	0080f809 	jalr	a0
    5350:	af830014 	sw	v1,20(gp)
    5354:	1200ffd2 	beqz	s0,52a0 <HTCAddReceivePkt+0xb8>
    5358:	00001021 	move	v0,zero
    535c:	8e420908 	lw	v0,2312(s2)
    5360:	30420002 	andi	v0,v0,0x2
    5364:	10400012 	beqz	v0,53b0 <HTCAddReceivePkt+0x1c8>
    5368:	26440620 	addiu	a0,s2,1568
    536c:	080014a8 	j	52a0 <HTCAddReceivePkt+0xb8>
			536c: R_MIPS_26	.text
    5370:	00001021 	move	v0,zero
    5374:	8e22001c 	lw	v0,28(s1)
    5378:	8e45090c 	lw	a1,2316(s2)
    537c:	14a2ffef 	bne	a1,v0,533c <HTCAddReceivePkt+0x154>
    5380:	00000000 	nop
    5384:	8e620000 	lw	v0,0(s3)
			5384: R_MIPS_LO16	debughtc
    5388:	30420002 	andi	v0,v0,0x2
    538c:	1440000e 	bnez	v0,53c8 <HTCAddReceivePkt+0x1e0>
    5390:	3c040000 	lui	a0,0x0
			5390: R_MIPS_HI16	$LC6
    5394:	2402fffe 	li	v0,-2
    5398:	00621024 	and	v0,v1,v0
    539c:	24100001 	li	s0,1
    53a0:	24030009 	li	v1,9
    53a4:	ae420908 	sw	v0,2312(s2)
    53a8:	080014cf 	j	533c <HTCAddReceivePkt+0x154>
			53a8: R_MIPS_26	.text
    53ac:	ae43090c 	sw	v1,2316(s2)
    53b0:	3c020000 	lui	v0,0x0
			53b0: R_MIPS_HI16	DevEnableRecv
    53b4:	24420000 	addiu	v0,v0,0
			53b4: R_MIPS_LO16	DevEnableRecv
    53b8:	0040f809 	jalr	v0
    53bc:	00002821 	move	a1,zero
    53c0:	080014a8 	j	52a0 <HTCAddReceivePkt+0xb8>
			53c0: R_MIPS_26	.text
    53c4:	00001021 	move	v0,zero
    53c8:	3c020000 	lui	v0,0x0
			53c8: R_MIPS_HI16	printk
    53cc:	24420000 	addiu	v0,v0,0
			53cc: R_MIPS_LO16	printk
    53d0:	0040f809 	jalr	v0
    53d4:	24840000 	addiu	a0,a0,0
			53d4: R_MIPS_LO16	$LC6
    53d8:	080014e5 	j	5394 <HTCAddReceivePkt+0x1ac>
			53d8: R_MIPS_26	.text
    53dc:	8e430908 	lw	v1,2312(s2)

000053e0 <HTCProcessRecvHeader>:
    53e0:	27bdffb0 	addiu	sp,sp,-80
    53e4:	afb5003c 	sw	s5,60(sp)
    53e8:	3c150000 	lui	s5,0x0
			53e8: R_MIPS_HI16	debughtc
    53ec:	8ea20000 	lw	v0,0(s5)
			53ec: R_MIPS_LO16	debughtc
    53f0:	afb60040 	sw	s6,64(sp)
    53f4:	afb30034 	sw	s3,52(sp)
    53f8:	afbf004c 	sw	ra,76(sp)
    53fc:	afbe0048 	sw	s8,72(sp)
    5400:	afb70044 	sw	s7,68(sp)
    5404:	afb40038 	sw	s4,56(sp)
    5408:	afb20030 	sw	s2,48(sp)
    540c:	afb1002c 	sw	s1,44(sp)
    5410:	afb00028 	sw	s0,40(sp)
    5414:	afa40050 	sw	a0,80(sp)
    5418:	30420002 	andi	v0,v0,0x2
    541c:	00a09821 	move	s3,a1
    5420:	00c0b021 	move	s6,a2
    5424:	1440003e 	bnez	v0,5520 <HTCProcessRecvHeader+0x140>
    5428:	8cb00010 	lw	s0,16(a1)
    542c:	92020000 	lbu	v0,0(s0)
    5430:	92060003 	lbu	a2,3(s0)
    5434:	92050002 	lbu	a1,2(s0)
    5438:	a3a20010 	sb	v0,16(sp)
    543c:	92030001 	lbu	v1,1(s0)
    5440:	8e640030 	lw	a0,48(s3)
    5444:	a3a30011 	sb	v1,17(sp)
    5448:	92020002 	lbu	v0,2(s0)
    544c:	a3a20012 	sb	v0,18(sp)
    5450:	92030003 	lbu	v1,3(s0)
    5454:	a3a30013 	sb	v1,19(sp)
    5458:	8fa20010 	lw	v0,16(sp)
    545c:	10820043 	beq	a0,v0,556c <HTCProcessRecvHeader+0x18c>
    5460:	8ea20000 	lw	v0,0(s5)
			5460: R_MIPS_LO16	debughtc
    5464:	30420080 	andi	v0,v0,0x80
    5468:	14400027 	bnez	v0,5508 <HTCProcessRecvHeader+0x128>
    546c:	3c040000 	lui	a0,0x0
			546c: R_MIPS_HI16	$LC9
    5470:	3c070000 	lui	a3,0x0
			5470: R_MIPS_HI16	DebugDumpBytes
    5474:	3c060000 	lui	a2,0x0
			5474: R_MIPS_HI16	$LC10
    5478:	24e20000 	addiu	v0,a3,0
			5478: R_MIPS_LO16	DebugDumpBytes
    547c:	afa70020 	sw	a3,32(sp)
    5480:	24c60000 	addiu	a2,a2,0
			5480: R_MIPS_LO16	$LC10
    5484:	26640030 	addiu	a0,s3,48
    5488:	0040f809 	jalr	v0
    548c:	24050004 	li	a1,4
    5490:	8fa70020 	lw	a3,32(sp)
    5494:	24110013 	li	s1,19
    5498:	3c060000 	lui	a2,0x0
			5498: R_MIPS_HI16	$LC24
    549c:	96650018 	lhu	a1,24(s3)
    54a0:	02002021 	move	a0,s0
    54a4:	24e20000 	addiu	v0,a3,0
			54a4: R_MIPS_LO16	DebugDumpBytes
    54a8:	0040f809 	jalr	v0
    54ac:	24c60000 	addiu	a2,a2,0
			54ac: R_MIPS_LO16	$LC24
    54b0:	8ea20000 	lw	v0,0(s5)
			54b0: R_MIPS_LO16	debughtc
    54b4:	30420002 	andi	v0,v0,0x2
    54b8:	10400007 	beqz	v0,54d8 <HTCProcessRecvHeader+0xf8>
    54bc:	02201021 	move	v0,s1
    54c0:	3c040000 	lui	a0,0x0
			54c0: R_MIPS_HI16	$LC23
    54c4:	3c020000 	lui	v0,0x0
			54c4: R_MIPS_HI16	printk
    54c8:	24420000 	addiu	v0,v0,0
			54c8: R_MIPS_LO16	printk
    54cc:	0040f809 	jalr	v0
    54d0:	24840000 	addiu	a0,a0,0
			54d0: R_MIPS_LO16	$LC23
    54d4:	02201021 	move	v0,s1
    54d8:	8fbf004c 	lw	ra,76(sp)
    54dc:	8fbe0048 	lw	s8,72(sp)
    54e0:	8fb70044 	lw	s7,68(sp)
    54e4:	8fb60040 	lw	s6,64(sp)
    54e8:	8fb5003c 	lw	s5,60(sp)
    54ec:	8fb40038 	lw	s4,56(sp)
    54f0:	8fb30034 	lw	s3,52(sp)
    54f4:	8fb20030 	lw	s2,48(sp)
    54f8:	8fb1002c 	lw	s1,44(sp)
    54fc:	8fb00028 	lw	s0,40(sp)
    5500:	03e00008 	jr	ra
    5504:	27bd0050 	addiu	sp,sp,80
    5508:	3c020000 	lui	v0,0x0
			5508: R_MIPS_HI16	printk
    550c:	24420000 	addiu	v0,v0,0
			550c: R_MIPS_LO16	printk
    5510:	0040f809 	jalr	v0
    5514:	24840000 	addiu	a0,a0,0
			5514: R_MIPS_LO16	$LC9
    5518:	0800151d 	j	5474 <HTCProcessRecvHeader+0x94>
			5518: R_MIPS_26	.text
    551c:	3c070000 	lui	a3,0x0
			551c: R_MIPS_HI16	DebugDumpBytes
    5520:	3c040000 	lui	a0,0x0
			5520: R_MIPS_HI16	$LC7
    5524:	3c020000 	lui	v0,0x0
			5524: R_MIPS_HI16	printk
    5528:	24420000 	addiu	v0,v0,0
			5528: R_MIPS_LO16	printk
    552c:	0040f809 	jalr	v0
    5530:	24840000 	addiu	a0,a0,0
			5530: R_MIPS_LO16	$LC7
    5534:	8ea30000 	lw	v1,0(s5)
			5534: R_MIPS_LO16	debughtc
    5538:	30620002 	andi	v0,v1,0x2
    553c:	1040ffbb 	beqz	v0,542c <HTCProcessRecvHeader+0x4c>
    5540:	30620008 	andi	v0,v1,0x8
    5544:	1040ffb9 	beqz	v0,542c <HTCProcessRecvHeader+0x4c>
    5548:	3c070000 	lui	a3,0x0
			5548: R_MIPS_HI16	DebugDumpBytes
    554c:	96650018 	lhu	a1,24(s3)
    5550:	3c060000 	lui	a2,0x0
			5550: R_MIPS_HI16	$LC8
    5554:	24c60000 	addiu	a2,a2,0
			5554: R_MIPS_LO16	$LC8
    5558:	24e20000 	addiu	v0,a3,0
			5558: R_MIPS_LO16	DebugDumpBytes
    555c:	0040f809 	jalr	v0
    5560:	02002021 	move	a0,s0
    5564:	0800150c 	j	5430 <HTCProcessRecvHeader+0x50>
			5564: R_MIPS_26	.text
    5568:	92020000 	lbu	v0,0(s0)
    556c:	92020001 	lbu	v0,1(s0)
    5570:	30420002 	andi	v0,v0,0x2
    5574:	1440000d 	bnez	v0,55ac <HTCProcessRecvHeader+0x1cc>
    5578:	00061200 	sll	v0,a2,0x8
    557c:	8e650018 	lw	a1,24(s3)
    5580:	8e620010 	lw	v0,16(s3)
    5584:	24a5fffa 	addiu	a1,a1,-6
    5588:	24440006 	addiu	a0,v0,6
    558c:	ae650018 	sw	a1,24(s3)
    5590:	ae640010 	sw	a0,16(s3)
    5594:	8ea30000 	lw	v1,0(s5)
			5594: R_MIPS_LO16	debughtc
    5598:	30620002 	andi	v0,v1,0x2
    559c:	14400076 	bnez	v0,5778 <HTCProcessRecvHeader+0x398>
    55a0:	00008821 	move	s1,zero
    55a4:	08001536 	j	54d8 <HTCProcessRecvHeader+0xf8>
			55a4: R_MIPS_26	.text
    55a8:	02201021 	move	v0,s1
    55ac:	92170004 	lbu	s7,4(s0)
    55b0:	2ee30002 	sltiu	v1,s7,2
    55b4:	14600069 	bnez	v1,575c <HTCProcessRecvHeader+0x37c>
    55b8:	00452825 	or	a1,v0,a1
    55bc:	32e2ffff 	andi	v0,s7,0xffff
    55c0:	afa2001c 	sw	v0,28(sp)
    55c4:	00a2102b 	sltu	v0,a1,v0
    55c8:	14400065 	bnez	v0,5760 <HTCProcessRecvHeader+0x380>
    55cc:	8ea20000 	lw	v0,0(s5)
			55cc: R_MIPS_LO16	debughtc
    55d0:	02051021 	addu	v0,s0,a1
    55d4:	00571023 	subu	v0,v0,s7
    55d8:	8ea30000 	lw	v1,0(s5)
			55d8: R_MIPS_LO16	debughtc
    55dc:	245e0006 	addiu	s8,v0,6
    55e0:	8e62001c 	lw	v0,28(s3)
    55e4:	30630002 	andi	v1,v1,0x2
    55e8:	14600075 	bnez	v1,57c0 <HTCProcessRecvHeader+0x3e0>
    55ec:	afa20018 	sw	v0,24(sp)
    55f0:	1ae000a7 	blez	s7,5890 <HTCProcessRecvHeader+0x4b0>
    55f4:	00008821 	move	s1,zero
    55f8:	93c30001 	lbu	v1,1(s8)
    55fc:	26f4fffe 	addiu	s4,s7,-2
    5600:	0283102a 	slt	v0,s4,v1
    5604:	1440008e 	bnez	v0,5840 <HTCProcessRecvHeader+0x460>
    5608:	03c08821 	move	s1,s8
    560c:	08001595 	j	5654 <HTCProcessRecvHeader+0x274>
			560c: R_MIPS_26	.text
    5610:	27d20002 	addiu	s2,s8,2
    5614:	10a20020 	beq	a1,v0,5698 <HTCProcessRecvHeader+0x2b8>
    5618:	8ea20000 	lw	v0,0(s5)
			5618: R_MIPS_LO16	debughtc
    561c:	30420080 	andi	v0,v0,0x80
    5620:	14400060 	bnez	v0,57a4 <HTCProcessRecvHeader+0x3c4>
    5624:	3c040000 	lui	a0,0x0
			5624: R_MIPS_HI16	$LC19
    5628:	92230001 	lbu	v1,1(s1)
    562c:	02833823 	subu	a3,s4,v1
    5630:	18e000bd 	blez	a3,5928 <HTCProcessRecvHeader+0x548>
    5634:	24020001 	li	v0,1
    5638:	10e2008d 	beq	a3,v0,5870 <HTCProcessRecvHeader+0x490>
    563c:	02438821 	addu	s1,s2,v1
    5640:	92230001 	lbu	v1,1(s1)
    5644:	24f4fffe 	addiu	s4,a3,-2
    5648:	0283102a 	slt	v0,s4,v1
    564c:	1440007c 	bnez	v0,5840 <HTCProcessRecvHeader+0x460>
    5650:	26320002 	addiu	s2,s1,2
    5654:	92250000 	lbu	a1,0(s1)
    5658:	24020001 	li	v0,1
    565c:	14a2ffed 	bne	a1,v0,5614 <HTCProcessRecvHeader+0x234>
    5660:	24020002 	li	v0,2
    5664:	2c620002 	sltiu	v0,v1,2
    5668:	14400099 	bnez	v0,58d0 <HTCProcessRecvHeader+0x4f0>
    566c:	8ea20000 	lw	v0,0(s5)
			566c: R_MIPS_LO16	debughtc
    5670:	92260001 	lbu	a2,1(s1)
    5674:	8fa40050 	lw	a0,80(sp)
    5678:	8fa70018 	lw	a3,24(sp)
    567c:	3c020000 	lui	v0,0x0
			567c: R_MIPS_HI16	HTCProcessCreditRpt
    5680:	00063042 	srl	a2,a2,0x1
    5684:	24420000 	addiu	v0,v0,0
			5684: R_MIPS_LO16	HTCProcessCreditRpt
    5688:	0040f809 	jalr	v0
    568c:	02402821 	move	a1,s2
    5690:	0800158b 	j	562c <HTCProcessRecvHeader+0x24c>
			5690: R_MIPS_26	.text
    5694:	92230001 	lbu	v1,1(s1)
    5698:	2c620006 	sltiu	v0,v1,6
    569c:	10400004 	beqz	v0,56b0 <HTCProcessRecvHeader+0x2d0>
    56a0:	8ea20000 	lw	v0,0(s5)
			56a0: R_MIPS_LO16	debughtc
    56a4:	30420080 	andi	v0,v0,0x80
    56a8:	1440005a 	bnez	v0,5814 <HTCProcessRecvHeader+0x434>
    56ac:	3c040000 	lui	a0,0x0
			56ac: R_MIPS_HI16	$LC3
    56b0:	92460005 	lbu	a2,5(s2)
    56b4:	92450000 	lbu	a1,0(s2)
    56b8:	00061027 	nor	v0,zero,a2
    56bc:	304200ff 	andi	v0,v0,0xff
    56c0:	14a2001c 	bne	a1,v0,5734 <HTCProcessRecvHeader+0x354>
    56c4:	3c020000 	lui	v0,0x0
			56c4: R_MIPS_HI16	HIFgetDevice
    56c8:	12c00019 	beqz	s6,5730 <HTCProcessRecvHeader+0x350>
    56cc:	8ea20000 	lw	v0,0(s5)
			56cc: R_MIPS_LO16	debughtc
    56d0:	30420002 	andi	v0,v0,0x2
    56d4:	14400096 	bnez	v0,5930 <HTCProcessRecvHeader+0x550>
    56d8:	3c040000 	lui	a0,0x0
			56d8: R_MIPS_HI16	$LC17
    56dc:	92420001 	lbu	v0,1(s2)
    56e0:	3c040000 	lui	a0,0x0
			56e0: R_MIPS_HI16	debughtc
    56e4:	a2c20000 	sb	v0,0(s6)
    56e8:	92430002 	lbu	v1,2(s2)
    56ec:	a2c30001 	sb	v1,1(s6)
    56f0:	92420003 	lbu	v0,3(s2)
    56f4:	a2c20002 	sb	v0,2(s6)
    56f8:	92430004 	lbu	v1,4(s2)
    56fc:	a2c30003 	sb	v1,3(s6)
    5700:	8c820000 	lw	v0,0(a0)
			5700: R_MIPS_LO16	debughtc
    5704:	30420002 	andi	v0,v0,0x2
    5708:	1040ffc7 	beqz	v0,5628 <HTCProcessRecvHeader+0x248>
    570c:	3c070000 	lui	a3,0x0
			570c: R_MIPS_HI16	DebugDumpBytes
    5710:	3c060000 	lui	a2,0x0
			5710: R_MIPS_HI16	$LC18
    5714:	24c60000 	addiu	a2,a2,0
			5714: R_MIPS_LO16	$LC18
    5718:	24e20000 	addiu	v0,a3,0
			5718: R_MIPS_LO16	DebugDumpBytes
    571c:	02c02021 	move	a0,s6
    5720:	0040f809 	jalr	v0
    5724:	24050004 	li	a1,4
    5728:	0800158b 	j	562c <HTCProcessRecvHeader+0x24c>
			5728: R_MIPS_26	.text
    572c:	92230001 	lbu	v1,1(s1)
    5730:	3c020000 	lui	v0,0x0
			5730: R_MIPS_HI16	HIFgetDevice
    5734:	24420000 	addiu	v0,v0,0
			5734: R_MIPS_LO16	HIFgetDevice
    5738:	0040f809 	jalr	v0
    573c:	8fa40050 	lw	a0,80(sp)
    5740:	00402021 	move	a0,v0
    5744:	3c020000 	lui	v0,0x0
			5744: R_MIPS_HI16	HIFGetLookAhead
    5748:	24420000 	addiu	v0,v0,0
			5748: R_MIPS_LO16	HIFGetLookAhead
    574c:	0040f809 	jalr	v0
    5750:	02c02821 	move	a1,s6
    5754:	0800158b 	j	562c <HTCProcessRecvHeader+0x24c>
			5754: R_MIPS_26	.text
    5758:	92230001 	lbu	v1,1(s1)
    575c:	8ea20000 	lw	v0,0(s5)
			575c: R_MIPS_LO16	debughtc
    5760:	30420080 	andi	v0,v0,0x80
    5764:	14400068 	bnez	v0,5908 <HTCProcessRecvHeader+0x528>
    5768:	3c040000 	lui	a0,0x0
			5768: R_MIPS_HI16	$LC11
    576c:	24110013 	li	s1,19
    5770:	08001526 	j	5498 <HTCProcessRecvHeader+0xb8>
			5770: R_MIPS_26	.text
    5774:	3c070000 	lui	a3,0x0
			5774: R_MIPS_HI16	DebugDumpBytes
    5778:	10a0ff51 	beqz	a1,54c0 <HTCProcessRecvHeader+0xe0>
    577c:	30620008 	andi	v0,v1,0x8
    5780:	1040ff4f 	beqz	v0,54c0 <HTCProcessRecvHeader+0xe0>
    5784:	3c060000 	lui	a2,0x0
			5784: R_MIPS_HI16	$LC22
    5788:	3c020000 	lui	v0,0x0
			5788: R_MIPS_HI16	DebugDumpBytes
    578c:	30a5ffff 	andi	a1,a1,0xffff
    5790:	24420000 	addiu	v0,v0,0
			5790: R_MIPS_LO16	DebugDumpBytes
    5794:	0040f809 	jalr	v0
    5798:	24c60000 	addiu	a2,a2,0
			5798: R_MIPS_LO16	$LC22
    579c:	0800152c 	j	54b0 <HTCProcessRecvHeader+0xd0>
			579c: R_MIPS_26	.text
    57a0:	00008821 	move	s1,zero
    57a4:	3c020000 	lui	v0,0x0
			57a4: R_MIPS_HI16	printk
    57a8:	24840000 	addiu	a0,a0,0
			57a8: R_MIPS_LO16	$LC19
    57ac:	24420000 	addiu	v0,v0,0
			57ac: R_MIPS_LO16	printk
    57b0:	0040f809 	jalr	v0
    57b4:	00603021 	move	a2,v1
    57b8:	0800158b 	j	562c <HTCProcessRecvHeader+0x24c>
			57b8: R_MIPS_26	.text
    57bc:	92230001 	lbu	v1,1(s1)
    57c0:	3c040000 	lui	a0,0x0
			57c0: R_MIPS_HI16	$LC12
    57c4:	3c020000 	lui	v0,0x0
			57c4: R_MIPS_HI16	printk
    57c8:	24840000 	addiu	a0,a0,0
			57c8: R_MIPS_LO16	$LC12
    57cc:	24420000 	addiu	v0,v0,0
			57cc: R_MIPS_LO16	printk
    57d0:	0040f809 	jalr	v0
    57d4:	02e02821 	move	a1,s7
    57d8:	3c030000 	lui	v1,0x0
			57d8: R_MIPS_HI16	debughtc
    57dc:	8c630000 	lw	v1,0(v1)
			57dc: R_MIPS_LO16	debughtc
    57e0:	30620002 	andi	v0,v1,0x2
    57e4:	1040ff82 	beqz	v0,55f0 <HTCProcessRecvHeader+0x210>
    57e8:	30620008 	andi	v0,v1,0x8
    57ec:	1040ff80 	beqz	v0,55f0 <HTCProcessRecvHeader+0x210>
    57f0:	3c070000 	lui	a3,0x0
			57f0: R_MIPS_HI16	DebugDumpBytes
    57f4:	3c060000 	lui	a2,0x0
			57f4: R_MIPS_HI16	$LC13
    57f8:	8fa5001c 	lw	a1,28(sp)
    57fc:	24c60000 	addiu	a2,a2,0
			57fc: R_MIPS_LO16	$LC13
    5800:	24e20000 	addiu	v0,a3,0
			5800: R_MIPS_LO16	DebugDumpBytes
    5804:	0040f809 	jalr	v0
    5808:	03c02021 	move	a0,s8
    580c:	0800157c 	j	55f0 <HTCProcessRecvHeader+0x210>
			580c: R_MIPS_26	.text
    5810:	00000000 	nop
    5814:	3c050000 	lui	a1,0x0
			5814: R_MIPS_HI16	$LC4
    5818:	3c070000 	lui	a3,0x0
			5818: R_MIPS_HI16	$LC16
    581c:	3c020000 	lui	v0,0x0
			581c: R_MIPS_HI16	printk
    5820:	24840000 	addiu	a0,a0,0
			5820: R_MIPS_LO16	$LC3
    5824:	24a50000 	addiu	a1,a1,0
			5824: R_MIPS_LO16	$LC4
    5828:	24e70000 	addiu	a3,a3,0
			5828: R_MIPS_LO16	$LC16
    582c:	24420000 	addiu	v0,v0,0
			582c: R_MIPS_LO16	printk
    5830:	0040f809 	jalr	v0
    5834:	2406006f 	li	a2,111
    5838:	080015ad 	j	56b4 <HTCProcessRecvHeader+0x2d4>
			5838: R_MIPS_26	.text
    583c:	92460005 	lbu	a2,5(s2)
    5840:	8ea20000 	lw	v0,0(s5)
			5840: R_MIPS_LO16	debughtc
    5844:	30420080 	andi	v0,v0,0x80
    5848:	1040000a 	beqz	v0,5874 <HTCProcessRecvHeader+0x494>
    584c:	3c070000 	lui	a3,0x0
			584c: R_MIPS_HI16	DebugDumpBytes
    5850:	3c040000 	lui	a0,0x0
			5850: R_MIPS_HI16	$LC14
    5854:	3c020000 	lui	v0,0x0
			5854: R_MIPS_HI16	printk
    5858:	92260000 	lbu	a2,0(s1)
    585c:	24840000 	addiu	a0,a0,0
			585c: R_MIPS_LO16	$LC14
    5860:	00602821 	move	a1,v1
    5864:	24420000 	addiu	v0,v0,0
			5864: R_MIPS_LO16	printk
    5868:	0040f809 	jalr	v0
    586c:	02803821 	move	a3,s4
    5870:	3c070000 	lui	a3,0x0
			5870: R_MIPS_HI16	DebugDumpBytes
    5874:	8fa5001c 	lw	a1,28(sp)
    5878:	3c060000 	lui	a2,0x0
			5878: R_MIPS_HI16	$LC20
    587c:	03c02021 	move	a0,s8
    5880:	24e20000 	addiu	v0,a3,0
			5880: R_MIPS_LO16	DebugDumpBytes
    5884:	0040f809 	jalr	v0
    5888:	24c60000 	addiu	a2,a2,0
			5888: R_MIPS_LO16	$LC20
    588c:	24110013 	li	s1,19
    5890:	8ea20000 	lw	v0,0(s5)
			5890: R_MIPS_LO16	debughtc
    5894:	30420002 	andi	v0,v0,0x2
    5898:	14400007 	bnez	v0,58b8 <HTCProcessRecvHeader+0x4d8>
    589c:	3c040000 	lui	a0,0x0
			589c: R_MIPS_HI16	$LC21
    58a0:	1620fefd 	bnez	s1,5498 <HTCProcessRecvHeader+0xb8>
    58a4:	3c070000 	lui	a3,0x0
			58a4: R_MIPS_HI16	DebugDumpBytes
    58a8:	8e650018 	lw	a1,24(s3)
    58ac:	00b72823 	subu	a1,a1,s7
    58b0:	08001560 	j	5580 <HTCProcessRecvHeader+0x1a0>
			58b0: R_MIPS_26	.text
    58b4:	ae650018 	sw	a1,24(s3)
    58b8:	3c020000 	lui	v0,0x0
			58b8: R_MIPS_HI16	printk
    58bc:	24420000 	addiu	v0,v0,0
			58bc: R_MIPS_LO16	printk
    58c0:	0040f809 	jalr	v0
    58c4:	24840000 	addiu	a0,a0,0
			58c4: R_MIPS_LO16	$LC21
    58c8:	08001628 	j	58a0 <HTCProcessRecvHeader+0x4c0>
			58c8: R_MIPS_26	.text
    58cc:	00000000 	nop
    58d0:	30420080 	andi	v0,v0,0x80
    58d4:	1040ff66 	beqz	v0,5670 <HTCProcessRecvHeader+0x290>
    58d8:	3c040000 	lui	a0,0x0
			58d8: R_MIPS_HI16	$LC3
    58dc:	3c050000 	lui	a1,0x0
			58dc: R_MIPS_HI16	$LC4
    58e0:	3c070000 	lui	a3,0x0
			58e0: R_MIPS_HI16	$LC15
    58e4:	3c020000 	lui	v0,0x0
			58e4: R_MIPS_HI16	printk
    58e8:	24840000 	addiu	a0,a0,0
			58e8: R_MIPS_LO16	$LC3
    58ec:	24a50000 	addiu	a1,a1,0
			58ec: R_MIPS_LO16	$LC4
    58f0:	24e70000 	addiu	a3,a3,0
			58f0: R_MIPS_LO16	$LC15
    58f4:	24420000 	addiu	v0,v0,0
			58f4: R_MIPS_LO16	printk
    58f8:	0040f809 	jalr	v0
    58fc:	24060068 	li	a2,104
    5900:	0800159d 	j	5674 <HTCProcessRecvHeader+0x294>
			5900: R_MIPS_26	.text
    5904:	92260001 	lbu	a2,1(s1)
    5908:	3c020000 	lui	v0,0x0
			5908: R_MIPS_HI16	printk
    590c:	24840000 	addiu	a0,a0,0
			590c: R_MIPS_LO16	$LC11
    5910:	24420000 	addiu	v0,v0,0
			5910: R_MIPS_LO16	printk
    5914:	0040f809 	jalr	v0
    5918:	02e03021 	move	a2,s7
    591c:	24110013 	li	s1,19
    5920:	08001526 	j	5498 <HTCProcessRecvHeader+0xb8>
			5920: R_MIPS_26	.text
    5924:	3c070000 	lui	a3,0x0
			5924: R_MIPS_HI16	DebugDumpBytes
    5928:	08001624 	j	5890 <HTCProcessRecvHeader+0x4b0>
			5928: R_MIPS_26	.text
    592c:	00008821 	move	s1,zero
    5930:	3c020000 	lui	v0,0x0
			5930: R_MIPS_HI16	printk
    5934:	24420000 	addiu	v0,v0,0
			5934: R_MIPS_LO16	printk
    5938:	0040f809 	jalr	v0
    593c:	24840000 	addiu	a0,a0,0
			593c: R_MIPS_LO16	$LC17
    5940:	080015b8 	j	56e0 <HTCProcessRecvHeader+0x300>
			5940: R_MIPS_26	.text
    5944:	92420001 	lbu	v0,1(s2)

00005948 <HTCRecvMessagePendingHandler>:
    5948:	27bdffc0 	addiu	sp,sp,-64
    594c:	afbe0038 	sw	s8,56(sp)
    5950:	afb60030 	sw	s6,48(sp)
    5954:	afbf003c 	sw	ra,60(sp)
    5958:	afb70034 	sw	s7,52(sp)
    595c:	afb5002c 	sw	s5,44(sp)
    5960:	afb40028 	sw	s4,40(sp)
    5964:	afb30024 	sw	s3,36(sp)
    5968:	afb20020 	sw	s2,32(sp)
    596c:	afb1001c 	sw	s1,28(sp)
    5970:	afb00018 	sw	s0,24(sp)
    5974:	3c1e0000 	lui	s8,0x0
			5974: R_MIPS_HI16	debughtc
    5978:	8fc20000 	lw	v0,0(s8)
			5978: R_MIPS_LO16	debughtc
    597c:	0080b021 	move	s6,a0
    5980:	30420002 	andi	v0,v0,0x2
    5984:	afa50044 	sw	a1,68(sp)
    5988:	1440012d 	bnez	v0,5e40 <HTCRecvMessagePendingHandler+0x4f8>
    598c:	afa60048 	sw	a2,72(sp)
    5990:	8ec208fc 	lw	v0,2300(s6)
    5994:	0002b82b 	sltu	s7,zero,v0
    5998:	8fa20048 	lw	v0,72(sp)
    599c:	10400003 	beqz	v0,59ac <HTCRecvMessagePendingHandler+0x64>
    59a0:	8fb10044 	lw	s1,68(sp)
    59a4:	ac570000 	sw	s7,0(v0)
    59a8:	8fb10044 	lw	s1,68(sp)
    59ac:	0000a821 	move	s5,zero
    59b0:	92250000 	lbu	a1,0(s1)
    59b4:	2ca20009 	sltiu	v0,a1,9
    59b8:	1040017b 	beqz	v0,5fa8 <HTCRecvMessagePendingHandler+0x660>
    59bc:	8fc20000 	lw	v0,0(s8)
			59bc: R_MIPS_LO16	debughtc
    59c0:	92220003 	lbu	v0,3(s1)
    59c4:	92240002 	lbu	a0,2(s1)
    59c8:	00021200 	sll	v0,v0,0x8
    59cc:	00443025 	or	a2,v0,a0
    59d0:	2cc307fb 	sltiu	v1,a2,2043
    59d4:	1060017a 	beqz	v1,5fc0 <HTCRecvMessagePendingHandler+0x678>
    59d8:	000510c0 	sll	v0,a1,0x3
    59dc:	000519c0 	sll	v1,a1,0x7
    59e0:	00621823 	subu	v1,v1,v0
    59e4:	02c3a821 	addu	s5,s6,v1
    59e8:	96a20000 	lhu	v0,0(s5)
    59ec:	10400181 	beqz	v0,5ff4 <HTCRecvMessagePendingHandler+0x6ac>
    59f0:	8fc20000 	lw	v0,0(s8)
			59f0: R_MIPS_LO16	debughtc
    59f4:	8ea20064 	lw	v0,100(s5)
    59f8:	104000cb 	beqz	v0,5d28 <HTCRecvMessagePendingHandler+0x3e0>
    59fc:	00000000 	nop
    5a00:	8ea40050 	lw	a0,80(s5)
    5a04:	0040f809 	jalr	v0
    5a08:	24c60006 	addiu	a2,a2,6
    5a0c:	0040a021 	move	s4,v0
    5a10:	3c020000 	lui	v0,0x0
			5a10: R_MIPS_HI16	local_bh_disable
    5a14:	24420000 	addiu	v0,v0,0
			5a14: R_MIPS_LO16	local_bh_disable
    5a18:	0040f809 	jalr	v0
    5a1c:	00000000 	nop
    5a20:	8f820014 	lw	v0,20(gp)
    5a24:	24420001 	addiu	v0,v0,1
    5a28:	af820014 	sw	v0,20(gp)
    5a2c:	128000d2 	beqz	s4,5d78 <HTCRecvMessagePendingHandler+0x430>
    5a30:	3c130000 	lui	s3,0x0
			5a30: R_MIPS_HI16	local_bh_enable
    5a34:	8ec30908 	lw	v1,2312(s6)
    5a38:	00008021 	move	s0,zero
    5a3c:	30630002 	andi	v1,v1,0x2
    5a40:	24020010 	li	v0,16
    5a44:	0043800b 	movn	s0,v0,v1
    5a48:	8f820014 	lw	v0,20(gp)
    5a4c:	26640000 	addiu	a0,s3,0
			5a4c: R_MIPS_LO16	local_bh_enable
    5a50:	2442ffff 	addiu	v0,v0,-1
    5a54:	0080f809 	jalr	a0
    5a58:	af820014 	sw	v0,20(gp)
    5a5c:	16000131 	bnez	s0,5f24 <HTCRecvMessagePendingHandler+0x5dc>
    5a60:	24020002 	li	v0,2
    5a64:	ae800024 	sw	zero,36(s4)
    5a68:	92230000 	lbu	v1,0(s1)
    5a6c:	8e82001c 	lw	v0,28(s4)
    5a70:	10430004 	beq	v0,v1,5a84 <HTCRecvMessagePendingHandler+0x13c>
    5a74:	8fc20000 	lw	v0,0(s8)
			5a74: R_MIPS_LO16	debughtc
    5a78:	30420080 	andi	v0,v0,0x80
    5a7c:	1440009f 	bnez	v0,5cfc <HTCRecvMessagePendingHandler+0x3b4>
    5a80:	3c040000 	lui	a0,0x0
			5a80: R_MIPS_HI16	$LC3
    5a84:	92220003 	lbu	v0,3(s1)
    5a88:	92230002 	lbu	v1,2(s1)
    5a8c:	00021200 	sll	v0,v0,0x8
    5a90:	00432825 	or	a1,v0,v1
    5a94:	8e860014 	lw	a2,20(s4)
    5a98:	24a20006 	addiu	v0,a1,6
    5a9c:	00c2102b 	sltu	v0,a2,v0
    5aa0:	14400159 	bnez	v0,6008 <HTCRecvMessagePendingHandler+0x6c0>
    5aa4:	8fa20044 	lw	v0,68(sp)
    5aa8:	8c430000 	lw	v1,0(v0)
    5aac:	ae830030 	sw	v1,48(s4)
    5ab0:	92220003 	lbu	v0,3(s1)
    5ab4:	92230002 	lbu	v1,2(s1)
    5ab8:	00021200 	sll	v0,v0,0x8
    5abc:	00431025 	or	v0,v0,v1
    5ac0:	24420006 	addiu	v0,v0,6
    5ac4:	16e00075 	bnez	s7,5c9c <HTCRecvMessagePendingHandler+0x354>
    5ac8:	ae820018 	sw	v0,24(s4)
    5acc:	ae800028 	sw	zero,40(s4)
    5ad0:	26d00620 	addiu	s0,s6,1568
    5ad4:	8e02001c 	lw	v0,28(s0)
    5ad8:	8e930018 	lw	s3,24(s4)
    5adc:	00021827 	nor	v1,zero,v0
    5ae0:	02621021 	addu	v0,s3,v0
    5ae4:	00439024 	and	s2,v0,v1
    5ae8:	00d2202b 	sltu	a0,a2,s2
    5aec:	14800152 	bnez	a0,6038 <HTCRecvMessagePendingHandler+0x6f0>
    5af0:	8e830028 	lw	v1,40(s4)
    5af4:	8fc20000 	lw	v0,0(s8)
			5af4: R_MIPS_LO16	debughtc
    5af8:	30420002 	andi	v0,v0,0x2
    5afc:	1040000b 	beqz	v0,5b2c <HTCRecvMessagePendingHandler+0x1e4>
    5b00:	2c730001 	sltiu	s3,v1,1
    5b04:	12600073 	beqz	s3,5cd4 <HTCRecvMessagePendingHandler+0x38c>
    5b08:	8e060020 	lw	a2,32(s0)
    5b0c:	3c020000 	lui	v0,0x0
			5b0c: R_MIPS_HI16	$LC35
    5b10:	24470000 	addiu	a3,v0,0
			5b10: R_MIPS_LO16	$LC35
    5b14:	3c040000 	lui	a0,0x0
			5b14: R_MIPS_HI16	$LC37
    5b18:	3c020000 	lui	v0,0x0
			5b18: R_MIPS_HI16	printk
    5b1c:	24840000 	addiu	a0,a0,0
			5b1c: R_MIPS_LO16	$LC37
    5b20:	24420000 	addiu	v0,v0,0
			5b20: R_MIPS_LO16	printk
    5b24:	0040f809 	jalr	v0
    5b28:	02402821 	move	a1,s2
    5b2c:	8e050020 	lw	a1,32(s0)
    5b30:	8e040014 	lw	a0,20(s0)
    5b34:	12600045 	beqz	s3,5c4c <HTCRecvMessagePendingHandler+0x304>
    5b38:	8e860010 	lw	a2,16(s4)
    5b3c:	24020299 	li	v0,665
    5b40:	afa20010 	sw	v0,16(sp)
    5b44:	3c020000 	lui	v0,0x0
			5b44: R_MIPS_HI16	HIFReadWrite
    5b48:	02403821 	move	a3,s2
    5b4c:	24420000 	addiu	v0,v0,0
			5b4c: R_MIPS_LO16	HIFReadWrite
    5b50:	0040f809 	jalr	v0
    5b54:	afa00014 	sw	zero,20(sp)
    5b58:	00408021 	move	s0,v0
    5b5c:	ae820020 	sw	v0,32(s4)
    5b60:	160000f0 	bnez	s0,5f24 <HTCRecvMessagePendingHandler+0x5dc>
    5b64:	24020002 	li	v0,2
    5b68:	16e0001e 	bnez	s7,5be4 <HTCRecvMessagePendingHandler+0x29c>
    5b6c:	8fa20044 	lw	v0,68(sp)
    5b70:	02c02021 	move	a0,s6
    5b74:	ac400000 	sw	zero,0(v0)
    5b78:	8fa60044 	lw	a2,68(sp)
    5b7c:	3c020000 	lui	v0,0x0
			5b7c: R_MIPS_HI16	.text
    5b80:	244253e0 	addiu	v0,v0,21472
			5b80: R_MIPS_LO16	.text
    5b84:	0040f809 	jalr	v0
    5b88:	02802821 	move	a1,s4
    5b8c:	144000e4 	bnez	v0,5f20 <HTCRecvMessagePendingHandler+0x5d8>
    5b90:	00408021 	move	s0,v0
    5b94:	8fa20044 	lw	v0,68(sp)
    5b98:	10400004 	beqz	v0,5bac <HTCRecvMessagePendingHandler+0x264>
    5b9c:	93a30044 	lbu	v1,68(sp)
    5ba0:	8e82001c 	lw	v0,28(s4)
    5ba4:	1062004e 	beq	v1,v0,5ce0 <HTCRecvMessagePendingHandler+0x398>
    5ba8:	26a2000c 	addiu	v0,s5,12
    5bac:	8e860018 	lw	a2,24(s4)
    5bb0:	10c0002f 	beqz	a2,5c70 <HTCRecvMessagePendingHandler+0x328>
    5bb4:	8fc20000 	lw	v0,0(s8)
			5bb4: R_MIPS_LO16	debughtc
    5bb8:	30420002 	andi	v0,v0,0x2
    5bbc:	14400085 	bnez	v0,5dd4 <HTCRecvMessagePendingHandler+0x48c>
    5bc0:	3c040000 	lui	a0,0x0
			5bc0: R_MIPS_HI16	$LC38
    5bc4:	8ea20058 	lw	v0,88(s5)
    5bc8:	8ea40050 	lw	a0,80(s5)
    5bcc:	0040f809 	jalr	v0
    5bd0:	02802821 	move	a1,s4
    5bd4:	8fb10044 	lw	s1,68(sp)
    5bd8:	8e220000 	lw	v0,0(s1)
    5bdc:	1440ff74 	bnez	v0,59b0 <HTCRecvMessagePendingHandler+0x68>
    5be0:	00000000 	nop
    5be4:	8fb10044 	lw	s1,68(sp)
    5be8:	8e250000 	lw	a1,0(s1)
    5bec:	14a00081 	bnez	a1,5df4 <HTCRecvMessagePendingHandler+0x4ac>
    5bf0:	3c120000 	lui	s2,0x0
			5bf0: R_MIPS_HI16	g_lookaheadStatus
    5bf4:	8fc20000 	lw	v0,0(s8)
			5bf4: R_MIPS_LO16	debughtc
    5bf8:	30420002 	andi	v0,v0,0x2
    5bfc:	10400007 	beqz	v0,5c1c <HTCRecvMessagePendingHandler+0x2d4>
    5c00:	02001021 	move	v0,s0
    5c04:	3c040000 	lui	a0,0x0
			5c04: R_MIPS_HI16	$LC45
    5c08:	3c020000 	lui	v0,0x0
			5c08: R_MIPS_HI16	printk
    5c0c:	24420000 	addiu	v0,v0,0
			5c0c: R_MIPS_LO16	printk
    5c10:	0040f809 	jalr	v0
    5c14:	24840000 	addiu	a0,a0,0
			5c14: R_MIPS_LO16	$LC45
    5c18:	02001021 	move	v0,s0
    5c1c:	8fbf003c 	lw	ra,60(sp)
    5c20:	8fbe0038 	lw	s8,56(sp)
    5c24:	8fb70034 	lw	s7,52(sp)
    5c28:	8fb60030 	lw	s6,48(sp)
    5c2c:	8fb5002c 	lw	s5,44(sp)
    5c30:	8fb40028 	lw	s4,40(sp)
    5c34:	8fb30024 	lw	s3,36(sp)
    5c38:	8fb20020 	lw	s2,32(sp)
    5c3c:	8fb1001c 	lw	s1,28(sp)
    5c40:	8fb00018 	lw	s0,24(sp)
    5c44:	03e00008 	jr	ra
    5c48:	27bd0040 	addiu	sp,sp,64
    5c4c:	240202a9 	li	v0,681
    5c50:	afa20010 	sw	v0,16(sp)
    5c54:	3c020000 	lui	v0,0x0
			5c54: R_MIPS_HI16	HIFReadWrite
    5c58:	02403821 	move	a3,s2
    5c5c:	24420000 	addiu	v0,v0,0
			5c5c: R_MIPS_LO16	HIFReadWrite
    5c60:	0040f809 	jalr	v0
    5c64:	afb40014 	sw	s4,20(sp)
    5c68:	080016d8 	j	5b60 <HTCRecvMessagePendingHandler+0x218>
			5c68: R_MIPS_26	.text
    5c6c:	00408021 	move	s0,v0
    5c70:	30420002 	andi	v0,v0,0x2
    5c74:	14400047 	bnez	v0,5d94 <HTCRecvMessagePendingHandler+0x44c>
    5c78:	3c040000 	lui	a0,0x0
			5c78: R_MIPS_HI16	$LC39
    5c7c:	8ea20064 	lw	v0,100(s5)
    5c80:	1040004b 	beqz	v0,5db0 <HTCRecvMessagePendingHandler+0x468>
    5c84:	00000000 	nop
    5c88:	8e82000c 	lw	v0,12(s4)
    5c8c:	24030010 	li	v1,16
    5c90:	ae820010 	sw	v0,16(s4)
    5c94:	080016f1 	j	5bc4 <HTCRecvMessagePendingHandler+0x27c>
			5c94: R_MIPS_26	.text
    5c98:	ae830020 	sw	v1,32(s4)
    5c9c:	3c040000 	lui	a0,0x0
			5c9c: R_MIPS_HI16	$LC31
    5ca0:	3c050000 	lui	a1,0x0
			5ca0: R_MIPS_HI16	.rodata
    5ca4:	3c020000 	lui	v0,0x0
			5ca4: R_MIPS_HI16	printk
    5ca8:	24060314 	li	a2,788
    5cac:	24840000 	addiu	a0,a0,0
			5cac: R_MIPS_LO16	$LC31
    5cb0:	24420000 	addiu	v0,v0,0
			5cb0: R_MIPS_LO16	printk
    5cb4:	0040f809 	jalr	v0
    5cb8:	24a50050 	addiu	a1,a1,80
			5cb8: R_MIPS_LO16	.rodata
    5cbc:	3c020000 	lui	v0,0x0
			5cbc: R_MIPS_HI16	HTCRecvCompleteHandler
    5cc0:	8e860014 	lw	a2,20(s4)
    5cc4:	24430000 	addiu	v1,v0,0
			5cc4: R_MIPS_LO16	HTCRecvCompleteHandler
    5cc8:	ae830028 	sw	v1,40(s4)
    5ccc:	080016b4 	j	5ad0 <HTCRecvMessagePendingHandler+0x188>
			5ccc: R_MIPS_26	.text
    5cd0:	ae96002c 	sw	s6,44(s4)
    5cd4:	3c020000 	lui	v0,0x0
			5cd4: R_MIPS_HI16	$LC36
    5cd8:	080016c5 	j	5b14 <HTCRecvMessagePendingHandler+0x1cc>
			5cd8: R_MIPS_26	.text
    5cdc:	24470000 	addiu	a3,v0,0
			5cdc: R_MIPS_LO16	$LC36
    5ce0:	8ea3000c 	lw	v1,12(s5)
    5ce4:	1062005e 	beq	v1,v0,5e60 <HTCRecvMessagePendingHandler+0x518>
    5ce8:	00000000 	nop
    5cec:	8e820024 	lw	v0,36(s4)
    5cf0:	34420001 	ori	v0,v0,0x1
    5cf4:	080016eb 	j	5bac <HTCRecvMessagePendingHandler+0x264>
			5cf4: R_MIPS_26	.text
    5cf8:	ae820024 	sw	v0,36(s4)
    5cfc:	3c050000 	lui	a1,0x0
			5cfc: R_MIPS_HI16	$LC4
    5d00:	3c070000 	lui	a3,0x0
			5d00: R_MIPS_HI16	$LC29
    5d04:	3c020000 	lui	v0,0x0
			5d04: R_MIPS_HI16	printk
    5d08:	24840000 	addiu	a0,a0,0
			5d08: R_MIPS_LO16	$LC3
    5d0c:	24a50000 	addiu	a1,a1,0
			5d0c: R_MIPS_LO16	$LC4
    5d10:	24e70000 	addiu	a3,a3,0
			5d10: R_MIPS_LO16	$LC29
    5d14:	24420000 	addiu	v0,v0,0
			5d14: R_MIPS_LO16	printk
    5d18:	0040f809 	jalr	v0
    5d1c:	24060302 	li	a2,770
    5d20:	080016a2 	j	5a88 <HTCRecvMessagePendingHandler+0x140>
			5d20: R_MIPS_26	.text
    5d24:	92220003 	lbu	v0,3(s1)
    5d28:	3c020000 	lui	v0,0x0
			5d28: R_MIPS_HI16	local_bh_disable
    5d2c:	24520000 	addiu	s2,v0,0
			5d2c: R_MIPS_LO16	local_bh_disable
    5d30:	0240f809 	jalr	s2
    5d34:	00000000 	nop
    5d38:	8f820014 	lw	v0,20(gp)
    5d3c:	24420001 	addiu	v0,v0,1
    5d40:	af820014 	sw	v0,20(gp)
    5d44:	26b0000c 	addiu	s0,s5,12
    5d48:	8e050004 	lw	a1,4(s0)
    5d4c:	12050056 	beq	s0,a1,5ea8 <HTCRecvMessagePendingHandler+0x560>
    5d50:	00a0a021 	move	s4,a1
    5d54:	8ca20004 	lw	v0,4(a1)
    5d58:	8ca30000 	lw	v1,0(a1)
    5d5c:	ac430000 	sw	v1,0(v0)
    5d60:	8ca40000 	lw	a0,0(a1)
    5d64:	3c130000 	lui	s3,0x0
			5d64: R_MIPS_HI16	local_bh_enable
    5d68:	ac820004 	sw	v0,4(a0)
    5d6c:	aca50000 	sw	a1,0(a1)
    5d70:	0800168d 	j	5a34 <HTCRecvMessagePendingHandler+0xec>
			5d70: R_MIPS_26	.text
    5d74:	aca50004 	sw	a1,4(a1)
    5d78:	8ec30908 	lw	v1,2312(s6)
    5d7c:	24100002 	li	s0,2
    5d80:	34630001 	ori	v1,v1,0x1
    5d84:	aec30908 	sw	v1,2312(s6)
    5d88:	92220000 	lbu	v0,0(s1)
    5d8c:	0800168f 	j	5a3c <HTCRecvMessagePendingHandler+0xf4>
			5d8c: R_MIPS_26	.text
    5d90:	aec2090c 	sw	v0,2316(s6)
    5d94:	3c020000 	lui	v0,0x0
			5d94: R_MIPS_HI16	printk
    5d98:	24420000 	addiu	v0,v0,0
			5d98: R_MIPS_LO16	printk
    5d9c:	0040f809 	jalr	v0
    5da0:	24840000 	addiu	a0,a0,0
			5da0: R_MIPS_LO16	$LC39
    5da4:	8ea20064 	lw	v0,100(s5)
    5da8:	1440ffb7 	bnez	v0,5c88 <HTCRecvMessagePendingHandler+0x340>
    5dac:	00000000 	nop
    5db0:	8e82000c 	lw	v0,12(s4)
    5db4:	02802821 	move	a1,s4
    5db8:	ae820010 	sw	v0,16(s4)
    5dbc:	3c020000 	lui	v0,0x0
			5dbc: R_MIPS_HI16	HTCAddReceivePkt
    5dc0:	24420000 	addiu	v0,v0,0
			5dc0: R_MIPS_LO16	HTCAddReceivePkt
    5dc4:	0040f809 	jalr	v0
    5dc8:	02c02021 	move	a0,s6
    5dcc:	080016f6 	j	5bd8 <HTCRecvMessagePendingHandler+0x290>
			5dcc: R_MIPS_26	.text
    5dd0:	8fb10044 	lw	s1,68(sp)
    5dd4:	8e87001c 	lw	a3,28(s4)
    5dd8:	3c020000 	lui	v0,0x0
			5dd8: R_MIPS_HI16	printk
    5ddc:	24840000 	addiu	a0,a0,0
			5ddc: R_MIPS_LO16	$LC38
    5de0:	24420000 	addiu	v0,v0,0
			5de0: R_MIPS_LO16	printk
    5de4:	0040f809 	jalr	v0
    5de8:	02802821 	move	a1,s4
    5dec:	080016f2 	j	5bc8 <HTCRecvMessagePendingHandler+0x280>
			5dec: R_MIPS_26	.text
    5df0:	8ea20058 	lw	v0,88(s5)
    5df4:	8e420000 	lw	v0,0(s2)
			5df4: R_MIPS_LO16	g_lookaheadStatus
    5df8:	1040ff7f 	beqz	v0,5bf8 <HTCRecvMessagePendingHandler+0x2b0>
    5dfc:	8fc20000 	lw	v0,0(s8)
			5dfc: R_MIPS_LO16	debughtc
    5e00:	30420002 	andi	v0,v0,0x2
    5e04:	14400086 	bnez	v0,6020 <HTCRecvMessagePendingHandler+0x6d8>
    5e08:	3c040000 	lui	a0,0x0
			5e08: R_MIPS_HI16	$LC42
    5e0c:	24020001 	li	v0,1
    5e10:	ae420000 	sw	v0,0(s2)
			5e10: R_MIPS_LO16	g_lookaheadStatus
    5e14:	8fa60048 	lw	a2,72(sp)
    5e18:	3c020000 	lui	v0,0x0
			5e18: R_MIPS_HI16	HTCRecvMessagePendingHandler
    5e1c:	02c02021 	move	a0,s6
    5e20:	24420000 	addiu	v0,v0,0
			5e20: R_MIPS_LO16	HTCRecvMessagePendingHandler
    5e24:	0040f809 	jalr	v0
    5e28:	02202821 	move	a1,s1
    5e2c:	24030013 	li	v1,19
    5e30:	10430010 	beq	v0,v1,5e74 <HTCRecvMessagePendingHandler+0x52c>
    5e34:	3c020000 	lui	v0,0x0
			5e34: R_MIPS_HI16	debughtc
    5e38:	080016fd 	j	5bf4 <HTCRecvMessagePendingHandler+0x2ac>
			5e38: R_MIPS_26	.text
    5e3c:	ae400000 	sw	zero,0(s2)
			5e3c: R_MIPS_LO16	g_lookaheadStatus
    5e40:	8ca50000 	lw	a1,0(a1)
    5e44:	3c040000 	lui	a0,0x0
			5e44: R_MIPS_HI16	$LC25
    5e48:	3c020000 	lui	v0,0x0
			5e48: R_MIPS_HI16	printk
    5e4c:	24420000 	addiu	v0,v0,0
			5e4c: R_MIPS_LO16	printk
    5e50:	0040f809 	jalr	v0
    5e54:	24840000 	addiu	a0,a0,0
			5e54: R_MIPS_LO16	$LC25
    5e58:	08001665 	j	5994 <HTCRecvMessagePendingHandler+0x4c>
			5e58: R_MIPS_26	.text
    5e5c:	8ec208fc 	lw	v0,2300(s6)
    5e60:	8ea20010 	lw	v0,16(s5)
    5e64:	1462ffa1 	bne	v1,v0,5cec <HTCRecvMessagePendingHandler+0x3a4>
    5e68:	00000000 	nop
    5e6c:	080016ec 	j	5bb0 <HTCRecvMessagePendingHandler+0x268>
			5e6c: R_MIPS_26	.text
    5e70:	8e860018 	lw	a2,24(s4)
    5e74:	8c430000 	lw	v1,0(v0)
			5e74: R_MIPS_LO16	debughtc
    5e78:	30630080 	andi	v1,v1,0x80
    5e7c:	1460009a 	bnez	v1,60e8 <HTCRecvMessagePendingHandler+0x7a0>
    5e80:	3c040000 	lui	a0,0x0
			5e80: R_MIPS_HI16	$LC43
    5e84:	8fa40044 	lw	a0,68(sp)
    5e88:	3c060000 	lui	a2,0x0
			5e88: R_MIPS_HI16	$LC44
    5e8c:	3c020000 	lui	v0,0x0
			5e8c: R_MIPS_HI16	DebugDumpBytes
    5e90:	24c60000 	addiu	a2,a2,0
			5e90: R_MIPS_LO16	$LC44
    5e94:	24420000 	addiu	v0,v0,0
			5e94: R_MIPS_LO16	DebugDumpBytes
    5e98:	0040f809 	jalr	v0
    5e9c:	24050004 	li	a1,4
    5ea0:	080016fd 	j	5bf4 <HTCRecvMessagePendingHandler+0x2ac>
			5ea0: R_MIPS_26	.text
    5ea4:	ae400000 	sw	zero,0(s2)
			5ea4: R_MIPS_LO16	g_lookaheadStatus
    5ea8:	8ea2005c 	lw	v0,92(s5)
    5eac:	1040003c 	beqz	v0,5fa0 <HTCRecvMessagePendingHandler+0x658>
    5eb0:	3c130000 	lui	s3,0x0
			5eb0: R_MIPS_HI16	local_bh_enable
    5eb4:	8f820014 	lw	v0,20(gp)
    5eb8:	3c130000 	lui	s3,0x0
			5eb8: R_MIPS_HI16	local_bh_enable
    5ebc:	2442ffff 	addiu	v0,v0,-1
    5ec0:	26630000 	addiu	v1,s3,0
			5ec0: R_MIPS_LO16	local_bh_enable
    5ec4:	0060f809 	jalr	v1
    5ec8:	af820014 	sw	v0,20(gp)
    5ecc:	8ea2005c 	lw	v0,92(s5)
    5ed0:	8ea40050 	lw	a0,80(s5)
    5ed4:	0040f809 	jalr	v0
    5ed8:	92250000 	lbu	a1,0(s1)
    5edc:	0240f809 	jalr	s2
    5ee0:	00000000 	nop
    5ee4:	8f820014 	lw	v0,20(gp)
    5ee8:	24420001 	addiu	v0,v0,1
    5eec:	af820014 	sw	v0,20(gp)
    5ef0:	8e050004 	lw	a1,4(s0)
    5ef4:	1205002a 	beq	s0,a1,5fa0 <HTCRecvMessagePendingHandler+0x658>
    5ef8:	00000000 	nop
    5efc:	8ca20004 	lw	v0,4(a1)
    5f00:	8ca30000 	lw	v1,0(a1)
    5f04:	00a0a021 	move	s4,a1
    5f08:	ac430000 	sw	v1,0(v0)
    5f0c:	8ca40000 	lw	a0,0(a1)
    5f10:	aca50000 	sw	a1,0(a1)
    5f14:	ac820004 	sw	v0,4(a0)
    5f18:	0800168d 	j	5a34 <HTCRecvMessagePendingHandler+0xec>
			5f18: R_MIPS_26	.text
    5f1c:	aca50004 	sw	a1,4(a1)
    5f20:	24020002 	li	v0,2
    5f24:	1202007f 	beq	s0,v0,6124 <HTCRecvMessagePendingHandler+0x7dc>
    5f28:	8fc20000 	lw	v0,0(s8)
			5f28: R_MIPS_LO16	debughtc
    5f2c:	1200ff2d 	beqz	s0,5be4 <HTCRecvMessagePendingHandler+0x29c>
    5f30:	00000000 	nop
    5f34:	8fc20000 	lw	v0,0(s8)
			5f34: R_MIPS_LO16	debughtc
    5f38:	30420080 	andi	v0,v0,0x80
    5f3c:	1440000f 	bnez	v0,5f7c <HTCRecvMessagePendingHandler+0x634>
    5f40:	8fa20044 	lw	v0,68(sp)
    5f44:	1280ff2c 	beqz	s4,5bf8 <HTCRecvMessagePendingHandler+0x2b0>
    5f48:	8fc20000 	lw	v0,0(s8)
			5f48: R_MIPS_LO16	debughtc
    5f4c:	8ea20064 	lw	v0,100(s5)
    5f50:	1040006b 	beqz	v0,6100 <HTCRecvMessagePendingHandler+0x7b8>
    5f54:	24030010 	li	v1,16
    5f58:	8e82000c 	lw	v0,12(s4)
    5f5c:	ae820010 	sw	v0,16(s4)
    5f60:	ae830020 	sw	v1,32(s4)
    5f64:	8ea40050 	lw	a0,80(s5)
    5f68:	8ea20058 	lw	v0,88(s5)
    5f6c:	0040f809 	jalr	v0
    5f70:	02802821 	move	a1,s4
    5f74:	080016fe 	j	5bf8 <HTCRecvMessagePendingHandler+0x2b0>
			5f74: R_MIPS_26	.text
    5f78:	8fc20000 	lw	v0,0(s8)
			5f78: R_MIPS_LO16	debughtc
    5f7c:	3c040000 	lui	a0,0x0
			5f7c: R_MIPS_HI16	$LC41
    5f80:	8c450000 	lw	a1,0(v0)
    5f84:	3c020000 	lui	v0,0x0
			5f84: R_MIPS_HI16	printk
    5f88:	24840000 	addiu	a0,a0,0
			5f88: R_MIPS_LO16	$LC41
    5f8c:	24420000 	addiu	v0,v0,0
			5f8c: R_MIPS_LO16	printk
    5f90:	0040f809 	jalr	v0
    5f94:	02003021 	move	a2,s0
    5f98:	080017d1 	j	5f44 <HTCRecvMessagePendingHandler+0x5fc>
			5f98: R_MIPS_26	.text
    5f9c:	00000000 	nop
    5fa0:	0800175e 	j	5d78 <HTCRecvMessagePendingHandler+0x430>
			5fa0: R_MIPS_26	.text
    5fa4:	0000a021 	move	s4,zero
    5fa8:	30420080 	andi	v0,v0,0x80
    5fac:	1440002e 	bnez	v0,6068 <HTCRecvMessagePendingHandler+0x720>
    5fb0:	3c040000 	lui	a0,0x0
			5fb0: R_MIPS_HI16	$LC26
    5fb4:	24100013 	li	s0,19
    5fb8:	080017cd 	j	5f34 <HTCRecvMessagePendingHandler+0x5ec>
			5fb8: R_MIPS_26	.text
    5fbc:	0000a021 	move	s4,zero
    5fc0:	8fc20000 	lw	v0,0(s8)
			5fc0: R_MIPS_LO16	debughtc
    5fc4:	30420080 	andi	v0,v0,0x80
    5fc8:	1040fffa 	beqz	v0,5fb4 <HTCRecvMessagePendingHandler+0x66c>
    5fcc:	3c040000 	lui	a0,0x0
			5fcc: R_MIPS_HI16	$LC27
    5fd0:	3c020000 	lui	v0,0x0
			5fd0: R_MIPS_HI16	printk
    5fd4:	00c02821 	move	a1,a2
    5fd8:	24840000 	addiu	a0,a0,0
			5fd8: R_MIPS_LO16	$LC27
    5fdc:	24420000 	addiu	v0,v0,0
			5fdc: R_MIPS_LO16	printk
    5fe0:	0040f809 	jalr	v0
    5fe4:	240607fa 	li	a2,2042
    5fe8:	24100013 	li	s0,19
    5fec:	080017cd 	j	5f34 <HTCRecvMessagePendingHandler+0x5ec>
			5fec: R_MIPS_26	.text
    5ff0:	0000a021 	move	s4,zero
    5ff4:	30420080 	andi	v0,v0,0x80
    5ff8:	1040ffee 	beqz	v0,5fb4 <HTCRecvMessagePendingHandler+0x66c>
    5ffc:	3c040000 	lui	a0,0x0
			5ffc: R_MIPS_HI16	$LC28
    6000:	0800181b 	j	606c <HTCRecvMessagePendingHandler+0x724>
			6000: R_MIPS_26	.text
    6004:	24840000 	addiu	a0,a0,0
			6004: R_MIPS_LO16	$LC28
    6008:	8fc20000 	lw	v0,0(s8)
			6008: R_MIPS_LO16	debughtc
    600c:	30420080 	andi	v0,v0,0x80
    6010:	1440002f 	bnez	v0,60d0 <HTCRecvMessagePendingHandler+0x788>
    6014:	3c040000 	lui	a0,0x0
			6014: R_MIPS_HI16	$LC30
    6018:	080017cd 	j	5f34 <HTCRecvMessagePendingHandler+0x5ec>
			6018: R_MIPS_26	.text
    601c:	24100013 	li	s0,19
    6020:	3c020000 	lui	v0,0x0
			6020: R_MIPS_HI16	printk
    6024:	24420000 	addiu	v0,v0,0
			6024: R_MIPS_LO16	printk
    6028:	0040f809 	jalr	v0
    602c:	24840000 	addiu	a0,a0,0
			602c: R_MIPS_LO16	$LC42
    6030:	08001783 	j	5e0c <HTCRecvMessagePendingHandler+0x4c4>
			6030: R_MIPS_26	.text
    6034:	8fb10044 	lw	s1,68(sp)
    6038:	8fc20000 	lw	v0,0(s8)
			6038: R_MIPS_LO16	debughtc
    603c:	30420080 	andi	v0,v0,0x80
    6040:	14400010 	bnez	v0,6084 <HTCRecvMessagePendingHandler+0x73c>
    6044:	3c020000 	lui	v0,0x0
			6044: R_MIPS_HI16	printk
    6048:	10600005 	beqz	v1,6060 <HTCRecvMessagePendingHandler+0x718>
    604c:	2402000e 	li	v0,14
    6050:	8e84002c 	lw	a0,44(s4)
    6054:	ae820020 	sw	v0,32(s4)
    6058:	0060f809 	jalr	v1
    605c:	02802821 	move	a1,s4
    6060:	080017cd 	j	5f34 <HTCRecvMessagePendingHandler+0x5ec>
			6060: R_MIPS_26	.text
    6064:	2410000e 	li	s0,14
    6068:	24840000 	addiu	a0,a0,0
			6068: R_MIPS_LO16	$LC26
    606c:	3c020000 	lui	v0,0x0
			606c: R_MIPS_HI16	printk
    6070:	24420000 	addiu	v0,v0,0
			6070: R_MIPS_LO16	printk
    6074:	0040f809 	jalr	v0
    6078:	24100013 	li	s0,19
    607c:	080017cd 	j	5f34 <HTCRecvMessagePendingHandler+0x5ec>
			607c: R_MIPS_26	.text
    6080:	0000a021 	move	s4,zero
    6084:	3c040000 	lui	a0,0x0
			6084: R_MIPS_HI16	$LC3
    6088:	3c050000 	lui	a1,0x0
			6088: R_MIPS_HI16	$LC32
    608c:	3c070000 	lui	a3,0x0
			608c: R_MIPS_HI16	$LC33
    6090:	24840000 	addiu	a0,a0,0
			6090: R_MIPS_LO16	$LC3
    6094:	24a50000 	addiu	a1,a1,0
			6094: R_MIPS_LO16	$LC32
    6098:	24e70000 	addiu	a3,a3,0
			6098: R_MIPS_LO16	$LC33
    609c:	24500000 	addiu	s0,v0,0
			609c: R_MIPS_LO16	printk
    60a0:	0200f809 	jalr	s0
    60a4:	240600ac 	li	a2,172
    60a8:	3c030000 	lui	v1,0x0
			60a8: R_MIPS_HI16	debughtc
    60ac:	8c620000 	lw	v0,0(v1)
			60ac: R_MIPS_LO16	debughtc
    60b0:	30420080 	andi	v0,v0,0x80
    60b4:	1440002c 	bnez	v0,6168 <HTCRecvMessagePendingHandler+0x820>
    60b8:	3c040000 	lui	a0,0x0
			60b8: R_MIPS_HI16	$LC34
    60bc:	8e830028 	lw	v1,40(s4)
    60c0:	1460ffe3 	bnez	v1,6050 <HTCRecvMessagePendingHandler+0x708>
    60c4:	2402000e 	li	v0,14
    60c8:	080017cd 	j	5f34 <HTCRecvMessagePendingHandler+0x5ec>
			60c8: R_MIPS_26	.text
    60cc:	2410000e 	li	s0,14
    60d0:	3c020000 	lui	v0,0x0
			60d0: R_MIPS_HI16	printk
    60d4:	24420000 	addiu	v0,v0,0
			60d4: R_MIPS_LO16	printk
    60d8:	0040f809 	jalr	v0
    60dc:	24840000 	addiu	a0,a0,0
			60dc: R_MIPS_LO16	$LC30
    60e0:	080017cd 	j	5f34 <HTCRecvMessagePendingHandler+0x5ec>
			60e0: R_MIPS_26	.text
    60e4:	24100013 	li	s0,19
    60e8:	3c020000 	lui	v0,0x0
			60e8: R_MIPS_HI16	printk
    60ec:	24420000 	addiu	v0,v0,0
			60ec: R_MIPS_LO16	printk
    60f0:	0040f809 	jalr	v0
    60f4:	24840000 	addiu	a0,a0,0
			60f4: R_MIPS_LO16	$LC43
    60f8:	080017a2 	j	5e88 <HTCRecvMessagePendingHandler+0x540>
			60f8: R_MIPS_26	.text
    60fc:	8fa40044 	lw	a0,68(sp)
    6100:	8e82000c 	lw	v0,12(s4)
    6104:	02c02021 	move	a0,s6
    6108:	ae820010 	sw	v0,16(s4)
    610c:	3c020000 	lui	v0,0x0
			610c: R_MIPS_HI16	HTCAddReceivePkt
    6110:	24420000 	addiu	v0,v0,0
			6110: R_MIPS_LO16	HTCAddReceivePkt
    6114:	0040f809 	jalr	v0
    6118:	02802821 	move	a1,s4
    611c:	080016fe 	j	5bf8 <HTCRecvMessagePendingHandler+0x2b0>
			611c: R_MIPS_26	.text
    6120:	8fc20000 	lw	v0,0(s8)
			6120: R_MIPS_LO16	debughtc
    6124:	30420080 	andi	v0,v0,0x80
    6128:	14400008 	bnez	v0,614c <HTCRecvMessagePendingHandler+0x804>
    612c:	3c040000 	lui	a0,0x0
			612c: R_MIPS_HI16	$LC40
    6130:	3c020000 	lui	v0,0x0
			6130: R_MIPS_HI16	DevStopRecv
    6134:	02e02821 	move	a1,s7
    6138:	24420000 	addiu	v0,v0,0
			6138: R_MIPS_LO16	DevStopRecv
    613c:	0040f809 	jalr	v0
    6140:	26c40620 	addiu	a0,s6,1568
    6144:	080016f9 	j	5be4 <HTCRecvMessagePendingHandler+0x29c>
			6144: R_MIPS_26	.text
    6148:	00008021 	move	s0,zero
    614c:	92250000 	lbu	a1,0(s1)
    6150:	3c020000 	lui	v0,0x0
			6150: R_MIPS_HI16	printk
    6154:	24420000 	addiu	v0,v0,0
			6154: R_MIPS_LO16	printk
    6158:	0040f809 	jalr	v0
    615c:	24840000 	addiu	a0,a0,0
			615c: R_MIPS_LO16	$LC40
    6160:	0800184d 	j	6134 <HTCRecvMessagePendingHandler+0x7ec>
			6160: R_MIPS_26	.text
    6164:	3c020000 	lui	v0,0x0
			6164: R_MIPS_HI16	DevStopRecv
    6168:	8e870014 	lw	a3,20(s4)
    616c:	24840000 	addiu	a0,a0,0
			616c: R_MIPS_LO16	$LC34
    6170:	02402821 	move	a1,s2
    6174:	0200f809 	jalr	s0
    6178:	02603021 	move	a2,s3
    617c:	8e830028 	lw	v1,40(s4)
    6180:	1460ffb3 	bnez	v1,6050 <HTCRecvMessagePendingHandler+0x708>
    6184:	2402000e 	li	v0,14
    6188:	080017cd 	j	5f34 <HTCRecvMessagePendingHandler+0x5ec>
			6188: R_MIPS_26	.text
    618c:	2410000e 	li	s0,14

00006190 <HTCWaitforControlMessage>:
    6190:	27bdffb8 	addiu	sp,sp,-72
    6194:	afb3002c 	sw	s3,44(sp)
    6198:	3c130000 	lui	s3,0x0
			6198: R_MIPS_HI16	debughtc
    619c:	8e620000 	lw	v0,0(s3)
			619c: R_MIPS_LO16	debughtc
    61a0:	afb50034 	sw	s5,52(sp)
    61a4:	30420002 	andi	v0,v0,0x2
    61a8:	afb40030 	sw	s4,48(sp)
    61ac:	afbf0040 	sw	ra,64(sp)
    61b0:	afb7003c 	sw	s7,60(sp)
    61b4:	afb60038 	sw	s6,56(sp)
    61b8:	afb20028 	sw	s2,40(sp)
    61bc:	afb10024 	sw	s1,36(sp)
    61c0:	afb00020 	sw	s0,32(sp)
    61c4:	0080a021 	move	s4,a0
    61c8:	1440002b 	bnez	v0,6278 <HTCWaitforControlMessage+0xe8>
    61cc:	00a0a821 	move	s5,a1
    61d0:	26910620 	addiu	s1,s4,1568
    61d4:	3c020000 	lui	v0,0x0
			61d4: R_MIPS_HI16	DevPollMboxMsgRecv
    61d8:	aea00000 	sw	zero,0(s5)
    61dc:	02202021 	move	a0,s1
    61e0:	27a50018 	addiu	a1,sp,24
    61e4:	24420000 	addiu	v0,v0,0
			61e4: R_MIPS_LO16	DevPollMboxMsgRecv
    61e8:	0040f809 	jalr	v0
    61ec:	240607d0 	li	a2,2000
    61f0:	1440000c 	bnez	v0,6224 <HTCWaitforControlMessage+0x94>
    61f4:	00408021 	move	s0,v0
    61f8:	8e620000 	lw	v0,0(s3)
			61f8: R_MIPS_LO16	debughtc
    61fc:	30420002 	andi	v0,v0,0x2
    6200:	14400045 	bnez	v0,6318 <HTCWaitforControlMessage+0x188>
    6204:	93a20018 	lbu	v0,24(sp)
    6208:	10400022 	beqz	v0,6294 <HTCWaitforControlMessage+0x104>
    620c:	26970604 	addiu	s7,s4,1540
    6210:	8e620000 	lw	v0,0(s3)
			6210: R_MIPS_LO16	debughtc
    6214:	30420080 	andi	v0,v0,0x80
    6218:	1440004a 	bnez	v0,6344 <HTCWaitforControlMessage+0x1b4>
    621c:	3c040000 	lui	a0,0x0
			621c: R_MIPS_HI16	$LC3
    6220:	24100013 	li	s0,19
    6224:	8e620000 	lw	v0,0(s3)
			6224: R_MIPS_LO16	debughtc
    6228:	30420002 	andi	v0,v0,0x2
    622c:	10400007 	beqz	v0,624c <HTCWaitforControlMessage+0xbc>
    6230:	02001021 	move	v0,s0
    6234:	3c040000 	lui	a0,0x0
			6234: R_MIPS_HI16	$LC49
    6238:	3c020000 	lui	v0,0x0
			6238: R_MIPS_HI16	printk
    623c:	24420000 	addiu	v0,v0,0
			623c: R_MIPS_LO16	printk
    6240:	0040f809 	jalr	v0
    6244:	24840000 	addiu	a0,a0,0
			6244: R_MIPS_LO16	$LC49
    6248:	02001021 	move	v0,s0
    624c:	8fbf0040 	lw	ra,64(sp)
    6250:	8fb7003c 	lw	s7,60(sp)
    6254:	8fb60038 	lw	s6,56(sp)
    6258:	8fb50034 	lw	s5,52(sp)
    625c:	8fb40030 	lw	s4,48(sp)
    6260:	8fb3002c 	lw	s3,44(sp)
    6264:	8fb20028 	lw	s2,40(sp)
    6268:	8fb10024 	lw	s1,36(sp)
    626c:	8fb00020 	lw	s0,32(sp)
    6270:	03e00008 	jr	ra
    6274:	27bd0048 	addiu	sp,sp,72
    6278:	3c040000 	lui	a0,0x0
			6278: R_MIPS_HI16	$LC46
    627c:	3c020000 	lui	v0,0x0
			627c: R_MIPS_HI16	printk
    6280:	24420000 	addiu	v0,v0,0
			6280: R_MIPS_LO16	printk
    6284:	0040f809 	jalr	v0
    6288:	24840000 	addiu	a0,a0,0
			6288: R_MIPS_LO16	$LC46
    628c:	08001875 	j	61d4 <HTCWaitforControlMessage+0x44>
			628c: R_MIPS_26	.text
    6290:	26910620 	addiu	s1,s4,1568
    6294:	3c020000 	lui	v0,0x0
			6294: R_MIPS_HI16	HTCAllocControlBuffer
    6298:	02802021 	move	a0,s4
    629c:	24420000 	addiu	v0,v0,0
			629c: R_MIPS_LO16	HTCAllocControlBuffer
    62a0:	0040f809 	jalr	v0
    62a4:	02e02821 	move	a1,s7
    62a8:	10400084 	beqz	v0,64bc <HTCWaitforControlMessage+0x32c>
    62ac:	00409021 	move	s2,v0
    62b0:	8fa30018 	lw	v1,24(sp)
    62b4:	8c450014 	lw	a1,20(v0)
    62b8:	ac430030 	sw	v1,48(v0)
    62bc:	93a2001b 	lbu	v0,27(sp)
    62c0:	93a3001a 	lbu	v1,26(sp)
    62c4:	00021200 	sll	v0,v0,0x8
    62c8:	00431025 	or	v0,v0,v1
    62cc:	24500006 	addiu	s0,v0,6
    62d0:	00b0182b 	sltu	v1,a1,s0
    62d4:	10600026 	beqz	v1,6370 <HTCWaitforControlMessage+0x1e0>
    62d8:	ae500018 	sw	s0,24(s2)
    62dc:	8e620000 	lw	v0,0(s3)
			62dc: R_MIPS_LO16	debughtc
    62e0:	30420080 	andi	v0,v0,0x80
    62e4:	14400053 	bnez	v0,6434 <HTCWaitforControlMessage+0x2a4>
    62e8:	3c040000 	lui	a0,0x0
			62e8: R_MIPS_HI16	$LC3
    62ec:	24100013 	li	s0,19
    62f0:	8e42000c 	lw	v0,12(s2)
    62f4:	02802021 	move	a0,s4
    62f8:	ae420010 	sw	v0,16(s2)
    62fc:	3c020000 	lui	v0,0x0
			62fc: R_MIPS_HI16	HTCFreeControlBuffer
    6300:	02402821 	move	a1,s2
    6304:	24420000 	addiu	v0,v0,0
			6304: R_MIPS_LO16	HTCFreeControlBuffer
    6308:	0040f809 	jalr	v0
    630c:	02e03021 	move	a2,s7
    6310:	0800188a 	j	6228 <HTCWaitforControlMessage+0x98>
			6310: R_MIPS_26	.text
    6314:	8e620000 	lw	v0,0(s3)
			6314: R_MIPS_LO16	debughtc
    6318:	8fa50018 	lw	a1,24(sp)
    631c:	3c040000 	lui	a0,0x0
			631c: R_MIPS_HI16	$LC47
    6320:	3c020000 	lui	v0,0x0
			6320: R_MIPS_HI16	printk
    6324:	24420000 	addiu	v0,v0,0
			6324: R_MIPS_LO16	printk
    6328:	0040f809 	jalr	v0
    632c:	24840000 	addiu	a0,a0,0
			632c: R_MIPS_LO16	$LC47
    6330:	93a20018 	lbu	v0,24(sp)
    6334:	1440ffb7 	bnez	v0,6214 <HTCWaitforControlMessage+0x84>
    6338:	8e620000 	lw	v0,0(s3)
			6338: R_MIPS_LO16	debughtc
    633c:	080018a5 	j	6294 <HTCWaitforControlMessage+0x104>
			633c: R_MIPS_26	.text
    6340:	26970604 	addiu	s7,s4,1540
    6344:	3c050000 	lui	a1,0x0
			6344: R_MIPS_HI16	$LC4
    6348:	3c070000 	lui	a3,0x0
			6348: R_MIPS_HI16	$LC33
    634c:	3c020000 	lui	v0,0x0
			634c: R_MIPS_HI16	printk
    6350:	24840000 	addiu	a0,a0,0
			6350: R_MIPS_LO16	$LC3
    6354:	24a50000 	addiu	a1,a1,0
			6354: R_MIPS_LO16	$LC4
    6358:	24e70000 	addiu	a3,a3,0
			6358: R_MIPS_LO16	$LC33
    635c:	24420000 	addiu	v0,v0,0
			635c: R_MIPS_LO16	printk
    6360:	0040f809 	jalr	v0
    6364:	24060183 	li	a2,387
    6368:	08001889 	j	6224 <HTCWaitforControlMessage+0x94>
			6368: R_MIPS_26	.text
    636c:	24100013 	li	s0,19
    6370:	ae400028 	sw	zero,40(s2)
    6374:	8e22001c 	lw	v0,28(s1)
    6378:	00022027 	nor	a0,zero,v0
    637c:	02021021 	addu	v0,s0,v0
    6380:	0044b024 	and	s6,v0,a0
    6384:	00b6182b 	sltu	v1,a1,s6
    6388:	14600025 	bnez	v1,6420 <HTCWaitforControlMessage+0x290>
    638c:	8e620000 	lw	v0,0(s3)
			638c: R_MIPS_LO16	debughtc
    6390:	30420002 	andi	v0,v0,0x2
    6394:	1440005a 	bnez	v0,6500 <HTCWaitforControlMessage+0x370>
    6398:	3c040000 	lui	a0,0x0
			6398: R_MIPS_HI16	$LC37
    639c:	24020299 	li	v0,665
    63a0:	8e250020 	lw	a1,32(s1)
    63a4:	8e460010 	lw	a2,16(s2)
    63a8:	8e240014 	lw	a0,20(s1)
    63ac:	afa20010 	sw	v0,16(sp)
    63b0:	3c020000 	lui	v0,0x0
			63b0: R_MIPS_HI16	HIFReadWrite
    63b4:	02c03821 	move	a3,s6
    63b8:	24420000 	addiu	v0,v0,0
			63b8: R_MIPS_LO16	HIFReadWrite
    63bc:	0040f809 	jalr	v0
    63c0:	afa00014 	sw	zero,20(sp)
    63c4:	00408021 	move	s0,v0
    63c8:	1440ffc9 	bnez	v0,62f0 <HTCWaitforControlMessage+0x160>
    63cc:	ae420020 	sw	v0,32(s2)
    63d0:	3c020000 	lui	v0,0x0
			63d0: R_MIPS_HI16	.text
    63d4:	02802021 	move	a0,s4
    63d8:	02402821 	move	a1,s2
    63dc:	244253e0 	addiu	v0,v0,21472
			63dc: R_MIPS_LO16	.text
    63e0:	0040f809 	jalr	v0
    63e4:	00003021 	move	a2,zero
    63e8:	00408021 	move	s0,v0
    63ec:	1040004e 	beqz	v0,6528 <HTCWaitforControlMessage+0x398>
    63f0:	ae420020 	sw	v0,32(s2)
    63f4:	8e620000 	lw	v0,0(s3)
			63f4: R_MIPS_LO16	debughtc
    63f8:	30420080 	andi	v0,v0,0x80
    63fc:	1040ffbc 	beqz	v0,62f0 <HTCWaitforControlMessage+0x160>
    6400:	3c040000 	lui	a0,0x0
			6400: R_MIPS_HI16	$LC48
    6404:	3c020000 	lui	v0,0x0
			6404: R_MIPS_HI16	printk
    6408:	24840000 	addiu	a0,a0,0
			6408: R_MIPS_LO16	$LC48
    640c:	24420000 	addiu	v0,v0,0
			640c: R_MIPS_LO16	printk
    6410:	0040f809 	jalr	v0
    6414:	02002821 	move	a1,s0
    6418:	080018bd 	j	62f4 <HTCWaitforControlMessage+0x164>
			6418: R_MIPS_26	.text
    641c:	8e42000c 	lw	v0,12(s2)
    6420:	30420080 	andi	v0,v0,0x80
    6424:	1440000e 	bnez	v0,6460 <HTCWaitforControlMessage+0x2d0>
    6428:	3c040000 	lui	a0,0x0
			6428: R_MIPS_HI16	$LC3
    642c:	080018bc 	j	62f0 <HTCWaitforControlMessage+0x160>
			642c: R_MIPS_26	.text
    6430:	2410000e 	li	s0,14
    6434:	3c050000 	lui	a1,0x0
			6434: R_MIPS_HI16	$LC4
    6438:	3c070000 	lui	a3,0x0
			6438: R_MIPS_HI16	$LC33
    643c:	3c020000 	lui	v0,0x0
			643c: R_MIPS_HI16	printk
    6440:	24840000 	addiu	a0,a0,0
			6440: R_MIPS_LO16	$LC3
    6444:	24a50000 	addiu	a1,a1,0
			6444: R_MIPS_LO16	$LC4
    6448:	24e70000 	addiu	a3,a3,0
			6448: R_MIPS_LO16	$LC33
    644c:	24420000 	addiu	v0,v0,0
			644c: R_MIPS_LO16	printk
    6450:	0040f809 	jalr	v0
    6454:	2406019c 	li	a2,412
    6458:	080018bc 	j	62f0 <HTCWaitforControlMessage+0x160>
			6458: R_MIPS_26	.text
    645c:	24100013 	li	s0,19
    6460:	3c020000 	lui	v0,0x0
			6460: R_MIPS_HI16	printk
    6464:	3c050000 	lui	a1,0x0
			6464: R_MIPS_HI16	$LC32
    6468:	3c070000 	lui	a3,0x0
			6468: R_MIPS_HI16	$LC33
    646c:	24840000 	addiu	a0,a0,0
			646c: R_MIPS_LO16	$LC3
    6470:	24a50000 	addiu	a1,a1,0
			6470: R_MIPS_LO16	$LC32
    6474:	24e70000 	addiu	a3,a3,0
			6474: R_MIPS_LO16	$LC33
    6478:	24510000 	addiu	s1,v0,0
			6478: R_MIPS_LO16	printk
    647c:	0220f809 	jalr	s1
    6480:	240600ac 	li	a2,172
    6484:	8e630000 	lw	v1,0(s3)
			6484: R_MIPS_LO16	debughtc
    6488:	30630080 	andi	v1,v1,0x80
    648c:	14600028 	bnez	v1,6530 <HTCWaitforControlMessage+0x3a0>
    6490:	3c040000 	lui	a0,0x0
			6490: R_MIPS_HI16	$LC34
    6494:	8e430028 	lw	v1,40(s2)
    6498:	1060ffe4 	beqz	v1,642c <HTCWaitforControlMessage+0x29c>
    649c:	00000000 	nop
    64a0:	2402000e 	li	v0,14
    64a4:	8e44002c 	lw	a0,44(s2)
    64a8:	ae420020 	sw	v0,32(s2)
    64ac:	0060f809 	jalr	v1
    64b0:	02402821 	move	a1,s2
    64b4:	080018bc 	j	62f0 <HTCWaitforControlMessage+0x160>
			64b4: R_MIPS_26	.text
    64b8:	2410000e 	li	s0,14
    64bc:	8e620000 	lw	v0,0(s3)
			64bc: R_MIPS_LO16	debughtc
    64c0:	30420080 	andi	v0,v0,0x80
    64c4:	14400003 	bnez	v0,64d4 <HTCWaitforControlMessage+0x344>
    64c8:	3c040000 	lui	a0,0x0
			64c8: R_MIPS_HI16	$LC3
    64cc:	08001889 	j	6224 <HTCWaitforControlMessage+0x94>
			64cc: R_MIPS_26	.text
    64d0:	24100002 	li	s0,2
    64d4:	3c050000 	lui	a1,0x0
			64d4: R_MIPS_HI16	$LC4
    64d8:	3c070000 	lui	a3,0x0
			64d8: R_MIPS_HI16	$LC33
    64dc:	3c020000 	lui	v0,0x0
			64dc: R_MIPS_HI16	printk
    64e0:	24840000 	addiu	a0,a0,0
			64e0: R_MIPS_LO16	$LC3
    64e4:	24a50000 	addiu	a1,a1,0
			64e4: R_MIPS_LO16	$LC4
    64e8:	24e70000 	addiu	a3,a3,0
			64e8: R_MIPS_LO16	$LC33
    64ec:	24420000 	addiu	v0,v0,0
			64ec: R_MIPS_LO16	printk
    64f0:	0040f809 	jalr	v0
    64f4:	24060192 	li	a2,402
    64f8:	08001889 	j	6224 <HTCWaitforControlMessage+0x94>
			64f8: R_MIPS_26	.text
    64fc:	24100002 	li	s0,2
    6500:	8e260020 	lw	a2,32(s1)
    6504:	3c070000 	lui	a3,0x0
			6504: R_MIPS_HI16	$LC35
    6508:	3c020000 	lui	v0,0x0
			6508: R_MIPS_HI16	printk
    650c:	24840000 	addiu	a0,a0,0
			650c: R_MIPS_LO16	$LC37
    6510:	24e70000 	addiu	a3,a3,0
			6510: R_MIPS_LO16	$LC35
    6514:	24420000 	addiu	v0,v0,0
			6514: R_MIPS_LO16	printk
    6518:	0040f809 	jalr	v0
    651c:	02c02821 	move	a1,s6
    6520:	080018e8 	j	63a0 <HTCWaitforControlMessage+0x210>
			6520: R_MIPS_26	.text
    6524:	24020299 	li	v0,665
    6528:	08001889 	j	6224 <HTCWaitforControlMessage+0x94>
			6528: R_MIPS_26	.text
    652c:	aeb20000 	sw	s2,0(s5)
    6530:	8e470014 	lw	a3,20(s2)
    6534:	24840000 	addiu	a0,a0,0
			6534: R_MIPS_LO16	$LC34
    6538:	02c02821 	move	a1,s6
    653c:	0220f809 	jalr	s1
    6540:	02003021 	move	a2,s0
    6544:	08001926 	j	6498 <HTCWaitforControlMessage+0x308>
			6544: R_MIPS_26	.text
    6548:	8e430028 	lw	v1,40(s2)

0000654c <HTCRecvCompleteHandler>:
    654c:	27bdffc8 	addiu	sp,sp,-56
    6550:	afb30024 	sw	s3,36(sp)
    6554:	3c130000 	lui	s3,0x0
			6554: R_MIPS_HI16	debughtc
    6558:	8e620000 	lw	v0,0(s3)
			6558: R_MIPS_LO16	debughtc
    655c:	afb40028 	sw	s4,40(sp)
    6560:	30420002 	andi	v0,v0,0x2
    6564:	afb1001c 	sw	s1,28(sp)
    6568:	afbf0030 	sw	ra,48(sp)
    656c:	afb5002c 	sw	s5,44(sp)
    6570:	afb20020 	sw	s2,32(sp)
    6574:	afb00018 	sw	s0,24(sp)
    6578:	0080a021 	move	s4,a0
    657c:	00a08821 	move	s1,a1
    6580:	1440004b 	bnez	v0,66b0 <HTCRecvCompleteHandler+0x164>
    6584:	afa00010 	sw	zero,16(sp)
    6588:	8e26001c 	lw	a2,28(s1)
    658c:	28c20009 	slti	v0,a2,9
    6590:	14400006 	bnez	v0,65ac <HTCRecvCompleteHandler+0x60>
    6594:	000618c0 	sll	v1,a2,0x3
    6598:	8e620000 	lw	v0,0(s3)
			6598: R_MIPS_LO16	debughtc
    659c:	30420080 	andi	v0,v0,0x80
    65a0:	14400072 	bnez	v0,676c <HTCRecvCompleteHandler+0x220>
    65a4:	3c040000 	lui	a0,0x0
			65a4: R_MIPS_HI16	$LC3
    65a8:	000618c0 	sll	v1,a2,0x3
    65ac:	000611c0 	sll	v0,a2,0x7
    65b0:	8e300020 	lw	s0,32(s1)
    65b4:	00431023 	subu	v0,v0,v1
    65b8:	02829021 	addu	s2,s4,v0
    65bc:	12000045 	beqz	s0,66d4 <HTCRecvCompleteHandler+0x188>
    65c0:	ae200028 	sw	zero,40(s1)
    65c4:	8e620000 	lw	v0,0(s3)
			65c4: R_MIPS_LO16	debughtc
    65c8:	30420080 	andi	v0,v0,0x80
    65cc:	1440001e 	bnez	v0,6648 <HTCRecvCompleteHandler+0xfc>
    65d0:	3c040000 	lui	a0,0x0
			65d0: R_MIPS_HI16	$LC51
    65d4:	8e420064 	lw	v0,100(s2)
    65d8:	1040002c 	beqz	v0,668c <HTCRecvCompleteHandler+0x140>
    65dc:	00000000 	nop
    65e0:	8e22000c 	lw	v0,12(s1)
    65e4:	24030010 	li	v1,16
    65e8:	ae220010 	sw	v0,16(s1)
    65ec:	ae230020 	sw	v1,32(s1)
    65f0:	8e440050 	lw	a0,80(s2)
    65f4:	8e420058 	lw	v0,88(s2)
    65f8:	0040f809 	jalr	v0
    65fc:	02202821 	move	a1,s1
    6600:	8e620000 	lw	v0,0(s3)
			6600: R_MIPS_LO16	debughtc
    6604:	30420002 	andi	v0,v0,0x2
    6608:	10400007 	beqz	v0,6628 <HTCRecvCompleteHandler+0xdc>
    660c:	8fbf0030 	lw	ra,48(sp)
    6610:	3c040000 	lui	a0,0x0
			6610: R_MIPS_HI16	$LC57
    6614:	3c020000 	lui	v0,0x0
			6614: R_MIPS_HI16	printk
    6618:	24420000 	addiu	v0,v0,0
			6618: R_MIPS_LO16	printk
    661c:	0040f809 	jalr	v0
    6620:	24840000 	addiu	a0,a0,0
			6620: R_MIPS_LO16	$LC57
    6624:	8fbf0030 	lw	ra,48(sp)
    6628:	8fb5002c 	lw	s5,44(sp)
    662c:	8fb40028 	lw	s4,40(sp)
    6630:	8fb30024 	lw	s3,36(sp)
    6634:	8fb20020 	lw	s2,32(sp)
    6638:	8fb1001c 	lw	s1,28(sp)
    663c:	8fb00018 	lw	s0,24(sp)
    6640:	03e00008 	jr	ra
    6644:	27bd0038 	addiu	sp,sp,56
    6648:	3c020000 	lui	v0,0x0
			6648: R_MIPS_HI16	printk
    664c:	24840000 	addiu	a0,a0,0
			664c: R_MIPS_LO16	$LC51
    6650:	24420000 	addiu	v0,v0,0
			6650: R_MIPS_LO16	printk
    6654:	0040f809 	jalr	v0
    6658:	02002821 	move	a1,s0
    665c:	8e620000 	lw	v0,0(s3)
			665c: R_MIPS_LO16	debughtc
    6660:	30420080 	andi	v0,v0,0x80
    6664:	1040ffdb 	beqz	v0,65d4 <HTCRecvCompleteHandler+0x88>
    6668:	3c040000 	lui	a0,0x0
			6668: R_MIPS_HI16	$LC56
    666c:	3c020000 	lui	v0,0x0
			666c: R_MIPS_HI16	printk
    6670:	24840000 	addiu	a0,a0,0
			6670: R_MIPS_LO16	$LC56
    6674:	24420000 	addiu	v0,v0,0
			6674: R_MIPS_LO16	printk
    6678:	0040f809 	jalr	v0
    667c:	02002821 	move	a1,s0
    6680:	8e420064 	lw	v0,100(s2)
    6684:	1440ffd6 	bnez	v0,65e0 <HTCRecvCompleteHandler+0x94>
    6688:	00000000 	nop
    668c:	8e22000c 	lw	v0,12(s1)
    6690:	02802021 	move	a0,s4
    6694:	ae220010 	sw	v0,16(s1)
    6698:	3c020000 	lui	v0,0x0
			6698: R_MIPS_HI16	HTCAddReceivePkt
    669c:	24420000 	addiu	v0,v0,0
			669c: R_MIPS_LO16	HTCAddReceivePkt
    66a0:	0040f809 	jalr	v0
    66a4:	02202821 	move	a1,s1
    66a8:	08001981 	j	6604 <HTCRecvCompleteHandler+0xb8>
			66a8: R_MIPS_26	.text
    66ac:	8e620000 	lw	v0,0(s3)
			66ac: R_MIPS_LO16	debughtc
    66b0:	8ca50020 	lw	a1,32(a1)
    66b4:	8e26001c 	lw	a2,28(s1)
    66b8:	3c040000 	lui	a0,0x0
			66b8: R_MIPS_HI16	$LC50
    66bc:	3c020000 	lui	v0,0x0
			66bc: R_MIPS_HI16	printk
    66c0:	24420000 	addiu	v0,v0,0
			66c0: R_MIPS_LO16	printk
    66c4:	0040f809 	jalr	v0
    66c8:	24840000 	addiu	a0,a0,0
			66c8: R_MIPS_LO16	$LC50
    66cc:	08001963 	j	658c <HTCRecvCompleteHandler+0x40>
			66cc: R_MIPS_26	.text
    66d0:	8e26001c 	lw	a2,28(s1)
    66d4:	27b50010 	addiu	s5,sp,16
    66d8:	3c020000 	lui	v0,0x0
			66d8: R_MIPS_HI16	.text
    66dc:	02802021 	move	a0,s4
    66e0:	02202821 	move	a1,s1
    66e4:	244253e0 	addiu	v0,v0,21472
			66e4: R_MIPS_LO16	.text
    66e8:	0040f809 	jalr	v0
    66ec:	02a03021 	move	a2,s5
    66f0:	1440ffda 	bnez	v0,665c <HTCRecvCompleteHandler+0x110>
    66f4:	00408021 	move	s0,v0
    66f8:	8fa50010 	lw	a1,16(sp)
    66fc:	10a0002f 	beqz	a1,67bc <HTCRecvCompleteHandler+0x270>
    6700:	8e620000 	lw	v0,0(s3)
			6700: R_MIPS_LO16	debughtc
    6704:	30420002 	andi	v0,v0,0x2
    6708:	14400035 	bnez	v0,67e0 <HTCRecvCompleteHandler+0x294>
    670c:	3c040000 	lui	a0,0x0
			670c: R_MIPS_HI16	$LC52
    6710:	3c020000 	lui	v0,0x0
			6710: R_MIPS_HI16	HTCRecvMessagePendingHandler
    6714:	02802021 	move	a0,s4
    6718:	02a02821 	move	a1,s5
    671c:	24420000 	addiu	v0,v0,0
			671c: R_MIPS_LO16	HTCRecvMessagePendingHandler
    6720:	0040f809 	jalr	v0
    6724:	00003021 	move	a2,zero
    6728:	24030013 	li	v1,19
    672c:	10430038 	beq	v0,v1,6810 <HTCRecvCompleteHandler+0x2c4>
    6730:	3c020000 	lui	v0,0x0
			6730: R_MIPS_HI16	debughtc
    6734:	8e260018 	lw	a2,24(s1)
    6738:	10c00017 	beqz	a2,6798 <HTCRecvCompleteHandler+0x24c>
    673c:	8e620000 	lw	v0,0(s3)
			673c: R_MIPS_LO16	debughtc
    6740:	30420002 	andi	v0,v0,0x2
    6744:	1040ffaa 	beqz	v0,65f0 <HTCRecvCompleteHandler+0xa4>
    6748:	3c040000 	lui	a0,0x0
			6748: R_MIPS_HI16	$LC38
    674c:	8e27001c 	lw	a3,28(s1)
    6750:	3c020000 	lui	v0,0x0
			6750: R_MIPS_HI16	printk
    6754:	24840000 	addiu	a0,a0,0
			6754: R_MIPS_LO16	$LC38
    6758:	24420000 	addiu	v0,v0,0
			6758: R_MIPS_LO16	printk
    675c:	0040f809 	jalr	v0
    6760:	02202821 	move	a1,s1
    6764:	0800197d 	j	65f4 <HTCRecvCompleteHandler+0xa8>
			6764: R_MIPS_26	.text
    6768:	8e440050 	lw	a0,80(s2)
    676c:	3c050000 	lui	a1,0x0
			676c: R_MIPS_HI16	$LC4
    6770:	3c070000 	lui	a3,0x0
			6770: R_MIPS_HI16	$LC5
    6774:	3c020000 	lui	v0,0x0
			6774: R_MIPS_HI16	printk
    6778:	24060125 	li	a2,293
    677c:	24840000 	addiu	a0,a0,0
			677c: R_MIPS_LO16	$LC3
    6780:	24a50000 	addiu	a1,a1,0
			6780: R_MIPS_LO16	$LC4
    6784:	24420000 	addiu	v0,v0,0
			6784: R_MIPS_LO16	printk
    6788:	0040f809 	jalr	v0
    678c:	24e70000 	addiu	a3,a3,0
			678c: R_MIPS_LO16	$LC5
    6790:	0800196a 	j	65a8 <HTCRecvCompleteHandler+0x5c>
			6790: R_MIPS_26	.text
    6794:	8e26001c 	lw	a2,28(s1)
    6798:	30420002 	andi	v0,v0,0x2
    679c:	1040ff8d 	beqz	v0,65d4 <HTCRecvCompleteHandler+0x88>
    67a0:	3c040000 	lui	a0,0x0
			67a0: R_MIPS_HI16	$LC39
    67a4:	3c020000 	lui	v0,0x0
			67a4: R_MIPS_HI16	printk
    67a8:	24420000 	addiu	v0,v0,0
			67a8: R_MIPS_LO16	printk
    67ac:	0040f809 	jalr	v0
    67b0:	24840000 	addiu	a0,a0,0
			67b0: R_MIPS_LO16	$LC39
    67b4:	08001976 	j	65d8 <HTCRecvCompleteHandler+0x8c>
			67b4: R_MIPS_26	.text
    67b8:	8e420064 	lw	v0,100(s2)
    67bc:	30420002 	andi	v0,v0,0x2
    67c0:	1440000d 	bnez	v0,67f8 <HTCRecvCompleteHandler+0x2ac>
    67c4:	3c040000 	lui	a0,0x0
			67c4: R_MIPS_HI16	$LC55
    67c8:	3c020000 	lui	v0,0x0
			67c8: R_MIPS_HI16	DevCheckPendingRecvMsgsAsync
    67cc:	24420000 	addiu	v0,v0,0
			67cc: R_MIPS_LO16	DevCheckPendingRecvMsgsAsync
    67d0:	0040f809 	jalr	v0
    67d4:	26840620 	addiu	a0,s4,1568
    67d8:	080019ce 	j	6738 <HTCRecvCompleteHandler+0x1ec>
			67d8: R_MIPS_26	.text
    67dc:	8e260018 	lw	a2,24(s1)
    67e0:	3c020000 	lui	v0,0x0
			67e0: R_MIPS_HI16	printk
    67e4:	24420000 	addiu	v0,v0,0
			67e4: R_MIPS_LO16	printk
    67e8:	0040f809 	jalr	v0
    67ec:	24840000 	addiu	a0,a0,0
			67ec: R_MIPS_LO16	$LC52
    67f0:	080019c5 	j	6714 <HTCRecvCompleteHandler+0x1c8>
			67f0: R_MIPS_26	.text
    67f4:	3c020000 	lui	v0,0x0
			67f4: R_MIPS_HI16	HTCRecvMessagePendingHandler
    67f8:	3c020000 	lui	v0,0x0
			67f8: R_MIPS_HI16	printk
    67fc:	24420000 	addiu	v0,v0,0
			67fc: R_MIPS_LO16	printk
    6800:	0040f809 	jalr	v0
    6804:	24840000 	addiu	a0,a0,0
			6804: R_MIPS_LO16	$LC55
    6808:	080019f3 	j	67cc <HTCRecvCompleteHandler+0x280>
			6808: R_MIPS_26	.text
    680c:	3c020000 	lui	v0,0x0
			680c: R_MIPS_HI16	DevCheckPendingRecvMsgsAsync
    6810:	8c430000 	lw	v1,0(v0)
			6810: R_MIPS_LO16	debughtc
    6814:	30630080 	andi	v1,v1,0x80
    6818:	1460000a 	bnez	v1,6844 <HTCRecvCompleteHandler+0x2f8>
    681c:	3c040000 	lui	a0,0x0
			681c: R_MIPS_HI16	$LC53
    6820:	3c060000 	lui	a2,0x0
			6820: R_MIPS_HI16	$LC54
    6824:	3c020000 	lui	v0,0x0
			6824: R_MIPS_HI16	DebugDumpBytes
    6828:	02a02021 	move	a0,s5
    682c:	24c60000 	addiu	a2,a2,0
			682c: R_MIPS_LO16	$LC54
    6830:	24420000 	addiu	v0,v0,0
			6830: R_MIPS_LO16	DebugDumpBytes
    6834:	0040f809 	jalr	v0
    6838:	24050004 	li	a1,4
    683c:	080019ce 	j	6738 <HTCRecvCompleteHandler+0x1ec>
			683c: R_MIPS_26	.text
    6840:	8e260018 	lw	a2,24(s1)
    6844:	3c020000 	lui	v0,0x0
			6844: R_MIPS_HI16	printk
    6848:	24420000 	addiu	v0,v0,0
			6848: R_MIPS_LO16	printk
    684c:	0040f809 	jalr	v0
    6850:	24840000 	addiu	a0,a0,0
			6850: R_MIPS_LO16	$LC53
    6854:	08001a09 	j	6824 <HTCRecvCompleteHandler+0x2d8>
			6854: R_MIPS_26	.text
    6858:	3c060000 	lui	a2,0x0
			6858: R_MIPS_HI16	$LC54
    685c:	00000000 	nop

00006860 <AddToEndpointDistList>:
    6860:	8c8305f8 	lw	v1,1528(a0)
    6864:	14600004 	bnez	v1,6878 <AddToEndpointDistList+0x18>
    6868:	00000000 	nop
    686c:	08001a25 	j	6894 <AddToEndpointDistList+0x34>
			686c: R_MIPS_26	.text
    6870:	ac8505f8 	sw	a1,1528(a0)
    6874:	00401821 	move	v1,v0
    6878:	8c620000 	lw	v0,0(v1)
    687c:	1440fffd 	bnez	v0,6874 <AddToEndpointDistList+0x14>
    6880:	00000000 	nop
    6884:	ac650000 	sw	a1,0(v1)
    6888:	aca30004 	sw	v1,4(a1)
    688c:	03e00008 	jr	ra
    6890:	aca00000 	sw	zero,0(a1)
    6894:	aca00004 	sw	zero,4(a1)
    6898:	03e00008 	jr	ra
    689c:	aca00000 	sw	zero,0(a1)

000068a0 <HTCDefaultCreditDist>:
    68a0:	14c0000d 	bnez	a2,68d8 <HTCDefaultCreditDist+0x38>
    68a4:	00000000 	nop
    68a8:	10a0000b 	beqz	a1,68d8 <HTCDefaultCreditDist+0x38>
    68ac:	00000000 	nop
    68b0:	8ca30024 	lw	v1,36(a1)
    68b4:	18600005 	blez	v1,68cc <HTCDefaultCreditDist+0x2c>
    68b8:	00000000 	nop
    68bc:	8ca20020 	lw	v0,32(a1)
    68c0:	aca00024 	sw	zero,36(a1)
    68c4:	00431021 	addu	v0,v0,v1
    68c8:	aca20020 	sw	v0,32(a1)
    68cc:	8ca50000 	lw	a1,0(a1)
    68d0:	14a0fff7 	bnez	a1,68b0 <HTCDefaultCreditDist+0x10>
    68d4:	00000000 	nop
    68d8:	03e00008 	jr	ra
    68dc:	00000000 	nop

000068e0 <HTCSetCreditDistribution>:
    68e0:	27bdffd8 	addiu	sp,sp,-40
    68e4:	afb3001c 	sw	s3,28(sp)
    68e8:	afb20018 	sw	s2,24(sp)
    68ec:	afb10014 	sw	s1,20(sp)
    68f0:	afb00010 	sw	s0,16(sp)
    68f4:	afbf0024 	sw	ra,36(sp)
    68f8:	afb40020 	sw	s4,32(sp)
    68fc:	00809021 	move	s2,a0
    6900:	00a08821 	move	s1,a1
    6904:	00c08021 	move	s0,a2
    6908:	10e0004b 	beqz	a3,6a38 <HTCSetCreditDistribution+0x158>
    690c:	8fb3003c 	lw	s3,60(sp)
    6910:	10c00039 	beqz	a2,69f8 <HTCSetCreditDistribution+0x118>
    6914:	ac870610 	sw	a3,1552(a0)
    6918:	ae50060c 	sw	s0,1548(s2)
    691c:	ae510614 	sw	s1,1556(s2)
    6920:	3c140000 	lui	s4,0x0
			6920: R_MIPS_HI16	.text
    6924:	02402021 	move	a0,s2
    6928:	26826860 	addiu	v0,s4,26720
			6928: R_MIPS_LO16	.text
    692c:	0040f809 	jalr	v0
    6930:	26450014 	addiu	a1,s2,20
    6934:	1a600013 	blez	s3,6984 <HTCSetCreditDistribution+0xa4>
    6938:	8fb10038 	lw	s1,56(sp)
    693c:	00008021 	move	s0,zero
    6940:	96250000 	lhu	a1,0(s1)
    6944:	02401821 	move	v1,s2
    6948:	24040001 	li	a0,1
    694c:	94620078 	lhu	v0,120(v1)
    6950:	10450014 	beq	v0,a1,69a4 <HTCSetCreditDistribution+0xc4>
    6954:	24020009 	li	v0,9
    6958:	24840001 	addiu	a0,a0,1
    695c:	1482fffb 	bne	a0,v0,694c <HTCSetCreditDistribution+0x6c>
    6960:	24630078 	addiu	v1,v1,120
    6964:	3c030000 	lui	v1,0x0
			6964: R_MIPS_HI16	debughtc
    6968:	8c620000 	lw	v0,0(v1)
			6968: R_MIPS_LO16	debughtc
    696c:	30420080 	andi	v0,v0,0x80
    6970:	14400016 	bnez	v0,69cc <HTCSetCreditDistribution+0xec>
    6974:	3c070000 	lui	a3,0x0
			6974: R_MIPS_HI16	$LC4
    6978:	26100001 	addiu	s0,s0,1
    697c:	1670fff0 	bne	s3,s0,6940 <HTCSetCreditDistribution+0x60>
    6980:	26310002 	addiu	s1,s1,2
    6984:	8fbf0024 	lw	ra,36(sp)
    6988:	8fb40020 	lw	s4,32(sp)
    698c:	8fb3001c 	lw	s3,28(sp)
    6990:	8fb20018 	lw	s2,24(sp)
    6994:	8fb10014 	lw	s1,20(sp)
    6998:	8fb00010 	lw	s0,16(sp)
    699c:	03e00008 	jr	ra
    69a0:	27bd0028 	addiu	sp,sp,40
    69a4:	000410c0 	sll	v0,a0,0x3
    69a8:	000429c0 	sll	a1,a0,0x7
    69ac:	00a22823 	subu	a1,a1,v0
    69b0:	00b22821 	addu	a1,a1,s2
    69b4:	24a50014 	addiu	a1,a1,20
    69b8:	26826860 	addiu	v0,s4,26720
			69b8: R_MIPS_LO16	.text
    69bc:	0040f809 	jalr	v0
    69c0:	02402021 	move	a0,s2
    69c4:	08001a5f 	j	697c <HTCSetCreditDistribution+0x9c>
			69c4: R_MIPS_26	.text
    69c8:	26100001 	addiu	s0,s0,1
    69cc:	3c040000 	lui	a0,0x0
			69cc: R_MIPS_HI16	$LC0
    69d0:	3c050000 	lui	a1,0x0
			69d0: R_MIPS_HI16	$LC1
    69d4:	3c020000 	lui	v0,0x0
			69d4: R_MIPS_HI16	printk
    69d8:	24840000 	addiu	a0,a0,0
			69d8: R_MIPS_LO16	$LC0
    69dc:	24a50000 	addiu	a1,a1,0
			69dc: R_MIPS_LO16	$LC1
    69e0:	24e70000 	addiu	a3,a3,0
			69e0: R_MIPS_LO16	$LC4
    69e4:	24420000 	addiu	v0,v0,0
			69e4: R_MIPS_LO16	printk
    69e8:	0040f809 	jalr	v0
    69ec:	24060199 	li	a2,409
    69f0:	08001a5f 	j	697c <HTCSetCreditDistribution+0x9c>
			69f0: R_MIPS_26	.text
    69f4:	26100001 	addiu	s0,s0,1
    69f8:	3c030000 	lui	v1,0x0
			69f8: R_MIPS_HI16	debughtc
    69fc:	8c620000 	lw	v0,0(v1)
			69fc: R_MIPS_LO16	debughtc
    6a00:	30420080 	andi	v0,v0,0x80
    6a04:	1040ffc4 	beqz	v0,6918 <HTCSetCreditDistribution+0x38>
    6a08:	3c040000 	lui	a0,0x0
			6a08: R_MIPS_HI16	$LC0
    6a0c:	3c050000 	lui	a1,0x0
			6a0c: R_MIPS_HI16	$LC1
    6a10:	3c070000 	lui	a3,0x0
			6a10: R_MIPS_HI16	$LC2
    6a14:	3c020000 	lui	v0,0x0
			6a14: R_MIPS_HI16	printk
    6a18:	24840000 	addiu	a0,a0,0
			6a18: R_MIPS_LO16	$LC0
    6a1c:	24a50000 	addiu	a1,a1,0
			6a1c: R_MIPS_LO16	$LC1
    6a20:	24e70000 	addiu	a3,a3,0
			6a20: R_MIPS_LO16	$LC2
    6a24:	24420000 	addiu	v0,v0,0
			6a24: R_MIPS_LO16	printk
    6a28:	0040f809 	jalr	v0
    6a2c:	2406017c 	li	a2,380
    6a30:	08001a47 	j	691c <HTCSetCreditDistribution+0x3c>
			6a30: R_MIPS_26	.text
    6a34:	ae50060c 	sw	s0,1548(s2)
    6a38:	10c00005 	beqz	a2,6a50 <HTCSetCreditDistribution+0x170>
    6a3c:	3c030000 	lui	v1,0x0
			6a3c: R_MIPS_HI16	debughtc
    6a40:	8c620000 	lw	v0,0(v1)
			6a40: R_MIPS_LO16	debughtc
    6a44:	30420080 	andi	v0,v0,0x80
    6a48:	14400009 	bnez	v0,6a70 <HTCSetCreditDistribution+0x190>
    6a4c:	3c040000 	lui	a0,0x0
			6a4c: R_MIPS_HI16	$LC0
    6a50:	3c020000 	lui	v0,0x0
			6a50: R_MIPS_HI16	.text
    6a54:	3c030000 	lui	v1,0x0
			6a54: R_MIPS_HI16	HTCDefaultCreditDist
    6a58:	24426a9c 	addiu	v0,v0,27292
			6a58: R_MIPS_LO16	.text
    6a5c:	24630000 	addiu	v1,v1,0
			6a5c: R_MIPS_LO16	HTCDefaultCreditDist
    6a60:	ae420610 	sw	v0,1552(s2)
    6a64:	ae43060c 	sw	v1,1548(s2)
    6a68:	08001a48 	j	6920 <HTCSetCreditDistribution+0x40>
			6a68: R_MIPS_26	.text
    6a6c:	ae520614 	sw	s2,1556(s2)
    6a70:	3c050000 	lui	a1,0x0
			6a70: R_MIPS_HI16	$LC1
    6a74:	3c070000 	lui	a3,0x0
			6a74: R_MIPS_HI16	$LC3
    6a78:	3c020000 	lui	v0,0x0
			6a78: R_MIPS_HI16	printk
    6a7c:	24840000 	addiu	a0,a0,0
			6a7c: R_MIPS_LO16	$LC0
    6a80:	24a50000 	addiu	a1,a1,0
			6a80: R_MIPS_LO16	$LC1
    6a84:	24e70000 	addiu	a3,a3,0
			6a84: R_MIPS_LO16	$LC3
    6a88:	24420000 	addiu	v0,v0,0
			6a88: R_MIPS_LO16	printk
    6a8c:	0040f809 	jalr	v0
    6a90:	24060183 	li	a2,387
    6a94:	08001a95 	j	6a54 <HTCSetCreditDistribution+0x174>
			6a94: R_MIPS_26	.text
    6a98:	3c020000 	lui	v0,0x0
			6a98: R_MIPS_HI16	.text

00006a9c <HTCDefaultCreditInit>:
    6a9c:	10a00019 	beqz	a1,6b04 <HTCDefaultCreditInit+0x68>
    6aa0:	00a01821 	move	v1,a1
    6aa4:	00001021 	move	v0,zero
    6aa8:	8c630000 	lw	v1,0(v1)
    6aac:	1460fffe 	bnez	v1,6aa8 <HTCDefaultCreditInit+0xc>
    6ab0:	24420001 	addiu	v0,v0,1
    6ab4:	00c2001a 	div	zero,a2,v0
    6ab8:	004001f4 	teq	v0,zero,0x7
    6abc:	8ca30030 	lw	v1,48(a1)
    6ac0:	00003012 	mflo	a2
    6ac4:	00c3102a 	slt	v0,a2,v1
    6ac8:	10400007 	beqz	v0,6ae8 <HTCDefaultCreditInit+0x4c>
    6acc:	3402ffff 	li	v0,0xffff
    6ad0:	08001ac4 	j	6b10 <HTCDefaultCreditInit+0x74>
			6ad0: R_MIPS_26	.text
    6ad4:	3c030000 	lui	v1,0x0
			6ad4: R_MIPS_HI16	debughtc
    6ad8:	8ca30030 	lw	v1,48(a1)
    6adc:	00c3102a 	slt	v0,a2,v1
    6ae0:	1440000a 	bnez	v0,6b0c <HTCDefaultCreditInit+0x70>
    6ae4:	3402ffff 	li	v0,0xffff
    6ae8:	aca30018 	sw	v1,24(a1)
    6aec:	aca20014 	sw	v0,20(a1)
    6af0:	aca60020 	sw	a2,32(a1)
    6af4:	aca6001c 	sw	a2,28(a1)
    6af8:	8ca50000 	lw	a1,0(a1)
    6afc:	14a0fff6 	bnez	a1,6ad8 <HTCDefaultCreditInit+0x3c>
    6b00:	00000000 	nop
    6b04:	03e00008 	jr	ra
    6b08:	00000000 	nop
    6b0c:	3c030000 	lui	v1,0x0
			6b0c: R_MIPS_HI16	debughtc
    6b10:	8c620000 	lw	v0,0(v1)
			6b10: R_MIPS_LO16	debughtc
    6b14:	30420080 	andi	v0,v0,0x80
    6b18:	1040fffa 	beqz	v0,6b04 <HTCDefaultCreditInit+0x68>
    6b1c:	3c040000 	lui	a0,0x0
			6b1c: R_MIPS_HI16	$LC0
    6b20:	3c050000 	lui	a1,0x0
			6b20: R_MIPS_HI16	$LC1
    6b24:	3c070000 	lui	a3,0x0
			6b24: R_MIPS_HI16	$LC5
    6b28:	3c190000 	lui	t9,0x0
			6b28: R_MIPS_HI16	printk
    6b2c:	24840000 	addiu	a0,a0,0
			6b2c: R_MIPS_LO16	$LC0
    6b30:	24a50000 	addiu	a1,a1,0
			6b30: R_MIPS_LO16	$LC1
    6b34:	24e70000 	addiu	a3,a3,0
			6b34: R_MIPS_LO16	$LC5
    6b38:	27390000 	addiu	t9,t9,0
			6b38: R_MIPS_LO16	printk
    6b3c:	03200008 	jr	t9
    6b40:	24060145 	li	a2,325

00006b44 <HTCControlTxComplete>:
    6b44:	3c020000 	lui	v0,0x0
			6b44: R_MIPS_HI16	debughtc
    6b48:	8c430000 	lw	v1,0(v0)
			6b48: R_MIPS_LO16	debughtc
    6b4c:	3c040000 	lui	a0,0x0
			6b4c: R_MIPS_HI16	$LC0
    6b50:	3c050000 	lui	a1,0x0
			6b50: R_MIPS_HI16	$LC1
    6b54:	3c070000 	lui	a3,0x0
			6b54: R_MIPS_HI16	$LC5
    6b58:	30630080 	andi	v1,v1,0x80
    6b5c:	24840000 	addiu	a0,a0,0
			6b5c: R_MIPS_LO16	$LC0
    6b60:	24a50000 	addiu	a1,a1,0
			6b60: R_MIPS_LO16	$LC1
    6b64:	24e70000 	addiu	a3,a3,0
			6b64: R_MIPS_LO16	$LC5
    6b68:	14600003 	bnez	v1,6b78 <HTCControlTxComplete+0x34>
    6b6c:	2406001d 	li	a2,29
    6b70:	03e00008 	jr	ra
    6b74:	00000000 	nop
    6b78:	3c190000 	lui	t9,0x0
			6b78: R_MIPS_HI16	printk
    6b7c:	27390000 	addiu	t9,t9,0
			6b7c: R_MIPS_LO16	printk
    6b80:	03200008 	jr	t9
    6b84:	00000000 	nop

00006b88 <HTCConnectService>:
    6b88:	27bdffc0 	addiu	sp,sp,-64
    6b8c:	afb5002c 	sw	s5,44(sp)
    6b90:	3c150000 	lui	s5,0x0
			6b90: R_MIPS_HI16	debughtc
    6b94:	8ea20000 	lw	v0,0(s5)
			6b94: R_MIPS_LO16	debughtc
    6b98:	afb70034 	sw	s7,52(sp)
    6b9c:	30420020 	andi	v0,v0,0x20
    6ba0:	afb40028 	sw	s4,40(sp)
    6ba4:	afb1001c 	sw	s1,28(sp)
    6ba8:	afbf003c 	sw	ra,60(sp)
    6bac:	afbe0038 	sw	s8,56(sp)
    6bb0:	afb60030 	sw	s6,48(sp)
    6bb4:	afb30024 	sw	s3,36(sp)
    6bb8:	afb20020 	sw	s2,32(sp)
    6bbc:	afb00018 	sw	s0,24(sp)
    6bc0:	0080a021 	move	s4,a0
    6bc4:	00a08821 	move	s1,a1
    6bc8:	00c0b821 	move	s7,a2
    6bcc:	14400068 	bnez	v0,6d70 <HTCConnectService+0x1e8>
    6bd0:	afa00010 	sw	zero,16(sp)
    6bd4:	96230000 	lhu	v1,0(s1)
    6bd8:	1460003d 	bnez	v1,6cd0 <HTCConnectService+0x148>
    6bdc:	24020001 	li	v0,1
    6be0:	8ea20000 	lw	v0,0(s5)
			6be0: R_MIPS_LO16	debughtc
    6be4:	30420080 	andi	v0,v0,0x80
    6be8:	1440002e 	bnez	v0,6ca4 <HTCConnectService+0x11c>
    6bec:	3c040000 	lui	a0,0x0
			6bec: R_MIPS_HI16	$LC0
    6bf0:	269305fc 	addiu	s3,s4,1532
    6bf4:	3c020000 	lui	v0,0x0
			6bf4: R_MIPS_HI16	HTCAllocControlBuffer
    6bf8:	02802021 	move	a0,s4
    6bfc:	24420000 	addiu	v0,v0,0
			6bfc: R_MIPS_LO16	HTCAllocControlBuffer
    6c00:	0040f809 	jalr	v0
    6c04:	02602821 	move	a1,s3
    6c08:	14400062 	bnez	v0,6d94 <HTCConnectService+0x20c>
    6c0c:	00409021 	move	s2,v0
    6c10:	8ea20000 	lw	v0,0(s5)
			6c10: R_MIPS_LO16	debughtc
    6c14:	30420080 	andi	v0,v0,0x80
    6c18:	1440004a 	bnez	v0,6d44 <HTCConnectService+0x1bc>
    6c1c:	3c040000 	lui	a0,0x0
			6c1c: R_MIPS_HI16	$LC0
    6c20:	24100002 	li	s0,2
    6c24:	8fa30010 	lw	v1,16(sp)
    6c28:	10600008 	beqz	v1,6c4c <HTCConnectService+0xc4>
    6c2c:	02802021 	move	a0,s4
    6c30:	8c62000c 	lw	v0,12(v1)
    6c34:	ac620010 	sw	v0,16(v1)
    6c38:	8fa50010 	lw	a1,16(sp)
    6c3c:	3c020000 	lui	v0,0x0
			6c3c: R_MIPS_HI16	HTCFreeControlBuffer
    6c40:	24420000 	addiu	v0,v0,0
			6c40: R_MIPS_LO16	HTCFreeControlBuffer
    6c44:	0040f809 	jalr	v0
    6c48:	26860604 	addiu	a2,s4,1540
    6c4c:	8ea20000 	lw	v0,0(s5)
			6c4c: R_MIPS_LO16	debughtc
    6c50:	30420020 	andi	v0,v0,0x20
    6c54:	10400007 	beqz	v0,6c74 <HTCConnectService+0xec>
    6c58:	02001021 	move	v0,s0
    6c5c:	3c040000 	lui	a0,0x0
			6c5c: R_MIPS_HI16	$LC10
    6c60:	3c020000 	lui	v0,0x0
			6c60: R_MIPS_HI16	printk
    6c64:	24420000 	addiu	v0,v0,0
			6c64: R_MIPS_LO16	printk
    6c68:	0040f809 	jalr	v0
    6c6c:	24840000 	addiu	a0,a0,0
			6c6c: R_MIPS_LO16	$LC10
    6c70:	02001021 	move	v0,s0
    6c74:	8fbf003c 	lw	ra,60(sp)
    6c78:	8fbe0038 	lw	s8,56(sp)
    6c7c:	8fb70034 	lw	s7,52(sp)
    6c80:	8fb60030 	lw	s6,48(sp)
    6c84:	8fb5002c 	lw	s5,44(sp)
    6c88:	8fb40028 	lw	s4,40(sp)
    6c8c:	8fb30024 	lw	s3,36(sp)
    6c90:	8fb20020 	lw	s2,32(sp)
    6c94:	8fb1001c 	lw	s1,28(sp)
    6c98:	8fb00018 	lw	s0,24(sp)
    6c9c:	03e00008 	jr	ra
    6ca0:	27bd0040 	addiu	sp,sp,64
    6ca4:	3c050000 	lui	a1,0x0
			6ca4: R_MIPS_HI16	$LC1
    6ca8:	3c070000 	lui	a3,0x0
			6ca8: R_MIPS_HI16	$LC7
    6cac:	3c020000 	lui	v0,0x0
			6cac: R_MIPS_HI16	printk
    6cb0:	24840000 	addiu	a0,a0,0
			6cb0: R_MIPS_LO16	$LC0
    6cb4:	24a50000 	addiu	a1,a1,0
			6cb4: R_MIPS_LO16	$LC1
    6cb8:	24e70000 	addiu	a3,a3,0
			6cb8: R_MIPS_LO16	$LC7
    6cbc:	24420000 	addiu	v0,v0,0
			6cbc: R_MIPS_LO16	printk
    6cc0:	0040f809 	jalr	v0
    6cc4:	24060076 	li	a2,118
    6cc8:	96230000 	lhu	v1,0(s1)
    6ccc:	24020001 	li	v0,1
    6cd0:	1462ffc8 	bne	v1,v0,6bf4 <HTCConnectService+0x6c>
    6cd4:	269305fc 	addiu	s3,s4,1532
    6cd8:	240b0100 	li	t3,256
    6cdc:	0000b021 	move	s6,zero
    6ce0:	00009021 	move	s2,zero
    6ce4:	00001821 	move	v1,zero
    6ce8:	000311c0 	sll	v0,v1,0x7
    6cec:	000318c0 	sll	v1,v1,0x3
    6cf0:	00431023 	subu	v0,v0,v1
    6cf4:	02825021 	addu	t2,s4,v0
    6cf8:	95430000 	lhu	v1,0(t2)
    6cfc:	10600068 	beqz	v1,6ea0 <HTCConnectService+0x318>
    6d00:	2549000c 	addiu	t1,t2,12
    6d04:	8ea20000 	lw	v0,0(s5)
			6d04: R_MIPS_LO16	debughtc
    6d08:	30420080 	andi	v0,v0,0x80
    6d0c:	1440008c 	bnez	v0,6f40 <HTCConnectService+0x3b8>
    6d10:	3c040000 	lui	a0,0x0
			6d10: R_MIPS_HI16	$LC0
    6d14:	24100013 	li	s0,19
    6d18:	1240ffc2 	beqz	s2,6c24 <HTCConnectService+0x9c>
    6d1c:	00000000 	nop
    6d20:	269305fc 	addiu	s3,s4,1532
    6d24:	3c020000 	lui	v0,0x0
			6d24: R_MIPS_HI16	HTCFreeControlBuffer
    6d28:	02402821 	move	a1,s2
    6d2c:	02603021 	move	a2,s3
    6d30:	24420000 	addiu	v0,v0,0
			6d30: R_MIPS_LO16	HTCFreeControlBuffer
    6d34:	0040f809 	jalr	v0
    6d38:	02802021 	move	a0,s4
    6d3c:	08001b0a 	j	6c28 <HTCConnectService+0xa0>
			6d3c: R_MIPS_26	.text
    6d40:	8fa30010 	lw	v1,16(sp)
    6d44:	3c050000 	lui	a1,0x0
			6d44: R_MIPS_HI16	$LC1
    6d48:	3c070000 	lui	a3,0x0
			6d48: R_MIPS_HI16	$LC5
    6d4c:	3c020000 	lui	v0,0x0
			6d4c: R_MIPS_HI16	printk
    6d50:	24840000 	addiu	a0,a0,0
			6d50: R_MIPS_LO16	$LC0
    6d54:	24a50000 	addiu	a1,a1,0
			6d54: R_MIPS_LO16	$LC1
    6d58:	24e70000 	addiu	a3,a3,0
			6d58: R_MIPS_LO16	$LC5
    6d5c:	24420000 	addiu	v0,v0,0
			6d5c: R_MIPS_LO16	printk
    6d60:	0040f809 	jalr	v0
    6d64:	24060081 	li	a2,129
    6d68:	08001b09 	j	6c24 <HTCConnectService+0x9c>
			6d68: R_MIPS_26	.text
    6d6c:	24100002 	li	s0,2
    6d70:	94a60000 	lhu	a2,0(a1)
    6d74:	3c040000 	lui	a0,0x0
			6d74: R_MIPS_HI16	$LC6
    6d78:	3c020000 	lui	v0,0x0
			6d78: R_MIPS_HI16	printk
    6d7c:	24840000 	addiu	a0,a0,0
			6d7c: R_MIPS_LO16	$LC6
    6d80:	24420000 	addiu	v0,v0,0
			6d80: R_MIPS_LO16	printk
    6d84:	0040f809 	jalr	v0
    6d88:	02802821 	move	a1,s4
    6d8c:	08001af6 	j	6bd8 <HTCConnectService+0x50>
			6d8c: R_MIPS_26	.text
    6d90:	96230000 	lhu	v1,0(s1)
    6d94:	8c42000c 	lw	v0,12(v0)
    6d98:	24500006 	addiu	s0,v0,6
    6d9c:	12000084 	beqz	s0,6fb0 <HTCConnectService+0x428>
    6da0:	ae500010 	sw	s0,16(s2)
    6da4:	3c020000 	lui	v0,0x0
			6da4: R_MIPS_HI16	memset
    6da8:	02002021 	move	a0,s0
    6dac:	00002821 	move	a1,zero
    6db0:	24420000 	addiu	v0,v0,0
			6db0: R_MIPS_LO16	memset
    6db4:	0040f809 	jalr	v0
    6db8:	24060008 	li	a2,8
    6dbc:	24030002 	li	v1,2
    6dc0:	a2030000 	sb	v1,0(s0)
    6dc4:	a2000001 	sb	zero,1(s0)
    6dc8:	92220000 	lbu	v0,0(s1)
    6dcc:	a2020002 	sb	v0,2(s0)
    6dd0:	92230001 	lbu	v1,1(s1)
    6dd4:	a2030003 	sb	v1,3(s0)
    6dd8:	92240002 	lbu	a0,2(s1)
    6ddc:	a2040004 	sb	a0,4(s0)
    6de0:	96220002 	lhu	v0,2(s1)
    6de4:	00021202 	srl	v0,v0,0x8
    6de8:	a2020005 	sb	v0,5(s0)
    6dec:	8e250004 	lw	a1,4(s1)
    6df0:	10a00005 	beqz	a1,6e08 <HTCConnectService+0x280>
    6df4:	00000000 	nop
    6df8:	92260008 	lbu	a2,8(s1)
    6dfc:	2cc20081 	sltiu	v0,a2,129
    6e00:	14400065 	bnez	v0,6f98 <HTCConnectService+0x410>
    6e04:	3c020000 	lui	v0,0x0
			6e04: R_MIPS_HI16	memcpy
    6e08:	ae500010 	sw	s0,16(s2)
    6e0c:	ae400008 	sw	zero,8(s2)
    6e10:	92020006 	lbu	v0,6(s0)
    6e14:	24030001 	li	v1,1
    6e18:	24420008 	addiu	v0,v0,8
    6e1c:	ae420018 	sw	v0,24(s2)
    6e20:	3c020000 	lui	v0,0x0
			6e20: R_MIPS_HI16	HTCIssueSend
    6e24:	a6430024 	sh	v1,36(s2)
    6e28:	ae40001c 	sw	zero,28(s2)
    6e2c:	ae400028 	sw	zero,40(s2)
    6e30:	02802021 	move	a0,s4
    6e34:	02402821 	move	a1,s2
    6e38:	24420000 	addiu	v0,v0,0
			6e38: R_MIPS_LO16	HTCIssueSend
    6e3c:	0040f809 	jalr	v0
    6e40:	00003021 	move	a2,zero
    6e44:	1440ffb7 	bnez	v0,6d24 <HTCConnectService+0x19c>
    6e48:	00408021 	move	s0,v0
    6e4c:	3c020000 	lui	v0,0x0
			6e4c: R_MIPS_HI16	HTCWaitforControlMessage
    6e50:	02802021 	move	a0,s4
    6e54:	24420000 	addiu	v0,v0,0
			6e54: R_MIPS_LO16	HTCWaitforControlMessage
    6e58:	0040f809 	jalr	v0
    6e5c:	27a50010 	addiu	a1,sp,16
    6e60:	1440ffb0 	bnez	v0,6d24 <HTCConnectService+0x19c>
    6e64:	00408021 	move	s0,v0
    6e68:	8fa50010 	lw	a1,16(sp)
    6e6c:	24030003 	li	v1,3
    6e70:	8ca70010 	lw	a3,16(a1)
    6e74:	90e20001 	lbu	v0,1(a3)
    6e78:	90e40000 	lbu	a0,0(a3)
    6e7c:	00021200 	sll	v0,v0,0x8
    6e80:	00441025 	or	v0,v0,a0
    6e84:	10430059 	beq	v0,v1,6fec <HTCConnectService+0x464>
    6e88:	8ea20000 	lw	v0,0(s5)
			6e88: R_MIPS_LO16	debughtc
    6e8c:	30420080 	andi	v0,v0,0x80
    6e90:	14400036 	bnez	v0,6f6c <HTCConnectService+0x3e4>
    6e94:	3c040000 	lui	a0,0x0
			6e94: R_MIPS_HI16	$LC0
    6e98:	08001b49 	j	6d24 <HTCConnectService+0x19c>
			6e98: R_MIPS_26	.text
    6e9c:	24100013 	li	s0,19
    6ea0:	aeeb000c 	sw	t3,12(s7)
    6ea4:	aef60008 	sw	s6,8(s7)
    6ea8:	96220000 	lhu	v0,0(s1)
    6eac:	a5420000 	sh	v0,0(t2)
    6eb0:	8e230024 	lw	v1,36(s1)
    6eb4:	ad4b0070 	sw	t3,112(t2)
    6eb8:	ad430068 	sw	v1,104(t2)
    6ebc:	8e22000c 	lw	v0,12(s1)
    6ec0:	8e240010 	lw	a0,16(s1)
    6ec4:	8e250014 	lw	a1,20(s1)
    6ec8:	8e260018 	lw	a2,24(s1)
    6ecc:	8e27001c 	lw	a3,28(s1)
    6ed0:	8e280020 	lw	t0,32(s1)
    6ed4:	25430004 	addiu	v1,t2,4
    6ed8:	ad420050 	sw	v0,80(t2)
    6edc:	ad440054 	sw	a0,84(t2)
    6ee0:	ad450058 	sw	a1,88(t2)
    6ee4:	ad46005c 	sw	a2,92(t2)
    6ee8:	ad470060 	sw	a3,96(t2)
    6eec:	ad480064 	sw	t0,100(t2)
    6ef0:	ad490010 	sw	t1,16(t2)
    6ef4:	ad430008 	sw	v1,8(t2)
    6ef8:	ad49000c 	sw	t1,12(t2)
    6efc:	ad430004 	sw	v1,4(t2)
    6f00:	96220000 	lhu	v0,0(s1)
    6f04:	ad560020 	sw	s6,32(t2)
    6f08:	a542001c 	sh	v0,28(t2)
    6f0c:	ad4a0048 	sw	t2,72(t2)
    6f10:	8e83061c 	lw	v1,1564(s4)
    6f14:	ad430040 	sw	v1,64(t2)
    6f18:	8e82061c 	lw	v0,1564(s4)
    6f1c:	0162001a 	div	zero,t3,v0
    6f20:	004001f4 	teq	v0,zero,0x7
    6f24:	00001012 	mflo	v0
    6f28:	14400003 	bnez	v0,6f38 <HTCConnectService+0x3b0>
    6f2c:	ad420044 	sw	v0,68(t2)
    6f30:	24020001 	li	v0,1
    6f34:	ad420044 	sw	v0,68(t2)
    6f38:	08001b46 	j	6d18 <HTCConnectService+0x190>
			6f38: R_MIPS_26	.text
    6f3c:	00008021 	move	s0,zero
    6f40:	3c050000 	lui	a1,0x0
			6f40: R_MIPS_HI16	$LC1
    6f44:	3c070000 	lui	a3,0x0
			6f44: R_MIPS_HI16	$LC5
    6f48:	3c020000 	lui	v0,0x0
			6f48: R_MIPS_HI16	printk
    6f4c:	24840000 	addiu	a0,a0,0
			6f4c: R_MIPS_LO16	$LC0
    6f50:	24a50000 	addiu	a1,a1,0
			6f50: R_MIPS_LO16	$LC1
    6f54:	24e70000 	addiu	a3,a3,0
			6f54: R_MIPS_LO16	$LC5
    6f58:	24420000 	addiu	v0,v0,0
			6f58: R_MIPS_LO16	printk
    6f5c:	0040f809 	jalr	v0
    6f60:	240600e3 	li	a2,227
    6f64:	08001b46 	j	6d18 <HTCConnectService+0x190>
			6f64: R_MIPS_26	.text
    6f68:	24100013 	li	s0,19
    6f6c:	3c050000 	lui	a1,0x0
			6f6c: R_MIPS_HI16	$LC1
    6f70:	3c070000 	lui	a3,0x0
			6f70: R_MIPS_HI16	$LC5
    6f74:	3c020000 	lui	v0,0x0
			6f74: R_MIPS_HI16	printk
    6f78:	24840000 	addiu	a0,a0,0
			6f78: R_MIPS_LO16	$LC0
    6f7c:	24a50000 	addiu	a1,a1,0
			6f7c: R_MIPS_LO16	$LC1
    6f80:	24e70000 	addiu	a3,a3,0
			6f80: R_MIPS_LO16	$LC5
    6f84:	24420000 	addiu	v0,v0,0
			6f84: R_MIPS_LO16	printk
    6f88:	0040f809 	jalr	v0
    6f8c:	240600b2 	li	a2,178
    6f90:	08001b49 	j	6d24 <HTCConnectService+0x19c>
			6f90: R_MIPS_26	.text
    6f94:	24100013 	li	s0,19
    6f98:	24420000 	addiu	v0,v0,0
			6f98: R_MIPS_LO16	memcpy
    6f9c:	0040f809 	jalr	v0
    6fa0:	26040008 	addiu	a0,s0,8
    6fa4:	92230008 	lbu	v1,8(s1)
    6fa8:	08001b82 	j	6e08 <HTCConnectService+0x280>
			6fa8: R_MIPS_26	.text
    6fac:	a2030006 	sb	v1,6(s0)
    6fb0:	8ea20000 	lw	v0,0(s5)
			6fb0: R_MIPS_LO16	debughtc
    6fb4:	30420080 	andi	v0,v0,0x80
    6fb8:	1040ff7a 	beqz	v0,6da4 <HTCConnectService+0x21c>
    6fbc:	3c040000 	lui	a0,0x0
			6fbc: R_MIPS_HI16	$LC0
    6fc0:	3c050000 	lui	a1,0x0
			6fc0: R_MIPS_HI16	$LC1
    6fc4:	3c070000 	lui	a3,0x0
			6fc4: R_MIPS_HI16	$LC8
    6fc8:	3c020000 	lui	v0,0x0
			6fc8: R_MIPS_HI16	printk
    6fcc:	24840000 	addiu	a0,a0,0
			6fcc: R_MIPS_LO16	$LC0
    6fd0:	24a50000 	addiu	a1,a1,0
			6fd0: R_MIPS_LO16	$LC1
    6fd4:	24e70000 	addiu	a3,a3,0
			6fd4: R_MIPS_LO16	$LC8
    6fd8:	24420000 	addiu	v0,v0,0
			6fd8: R_MIPS_LO16	printk
    6fdc:	0040f809 	jalr	v0
    6fe0:	24060087 	li	a2,135
    6fe4:	08001b6a 	j	6da8 <HTCConnectService+0x220>
			6fe4: R_MIPS_26	.text
    6fe8:	3c020000 	lui	v0,0x0
			6fe8: R_MIPS_HI16	memset
    6fec:	8ca20018 	lw	v0,24(a1)
    6ff0:	2c42000a 	sltiu	v0,v0,10
    6ff4:	1440ffa5 	bnez	v0,6e8c <HTCConnectService+0x304>
    6ff8:	8ea20000 	lw	v0,0(s5)
			6ff8: R_MIPS_LO16	debughtc
    6ffc:	90e20004 	lbu	v0,4(a3)
    7000:	a2e20010 	sb	v0,16(s7)
    7004:	90e60004 	lbu	a2,4(a3)
    7008:	10c0000e 	beqz	a2,7044 <HTCConnectService+0x4bc>
    700c:	8ea20000 	lw	v0,0(s5)
			700c: R_MIPS_LO16	debughtc
    7010:	30420080 	andi	v0,v0,0x80
    7014:	1040ffa0 	beqz	v0,6e98 <HTCConnectService+0x310>
    7018:	3c040000 	lui	a0,0x0
			7018: R_MIPS_HI16	$LC9
    701c:	90e50003 	lbu	a1,3(a3)
    7020:	90e20002 	lbu	v0,2(a3)
    7024:	00052a00 	sll	a1,a1,0x8
    7028:	00a22825 	or	a1,a1,v0
    702c:	3c020000 	lui	v0,0x0
			702c: R_MIPS_HI16	printk
    7030:	24420000 	addiu	v0,v0,0
			7030: R_MIPS_LO16	printk
    7034:	0040f809 	jalr	v0
    7038:	24840000 	addiu	a0,a0,0
			7038: R_MIPS_LO16	$LC9
    703c:	08001b49 	j	6d24 <HTCConnectService+0x19c>
			703c: R_MIPS_26	.text
    7040:	24100013 	li	s0,19
    7044:	90e20007 	lbu	v0,7(a3)
    7048:	90e30006 	lbu	v1,6(a3)
    704c:	8ee40000 	lw	a0,0(s7)
    7050:	00021200 	sll	v0,v0,0x8
    7054:	0043f025 	or	s8,v0,v1
    7058:	10800010 	beqz	a0,709c <HTCConnectService+0x514>
    705c:	90f60005 	lbu	s6,5(a3)
    7060:	90e30008 	lbu	v1,8(a3)
    7064:	1060000e 	beqz	v1,70a0 <HTCConnectService+0x518>
    7068:	2ac20009 	slti	v0,s6,9
    706c:	2c620081 	sltiu	v0,v1,129
    7070:	1040000b 	beqz	v0,70a0 <HTCConnectService+0x518>
    7074:	2ac20009 	slti	v0,s6,9
    7078:	92f00004 	lbu	s0,4(s7)
    707c:	24e5000a 	addiu	a1,a3,10
    7080:	0070102a 	slt	v0,v1,s0
    7084:	0062800b 	movn	s0,v1,v0
    7088:	3c020000 	lui	v0,0x0
			7088: R_MIPS_HI16	memcpy
    708c:	24420000 	addiu	v0,v0,0
			708c: R_MIPS_LO16	memcpy
    7090:	0040f809 	jalr	v0
    7094:	02003021 	move	a2,s0
    7098:	a2f00005 	sb	s0,5(s7)
    709c:	2ac20009 	slti	v0,s6,9
    70a0:	1440000f 	bnez	v0,70e0 <HTCConnectService+0x558>
    70a4:	8ea20000 	lw	v0,0(s5)
			70a4: R_MIPS_LO16	debughtc
    70a8:	30420080 	andi	v0,v0,0x80
    70ac:	1040ff7a 	beqz	v0,6e98 <HTCConnectService+0x310>
    70b0:	3c040000 	lui	a0,0x0
			70b0: R_MIPS_HI16	$LC0
    70b4:	3c050000 	lui	a1,0x0
			70b4: R_MIPS_HI16	$LC1
    70b8:	3c070000 	lui	a3,0x0
			70b8: R_MIPS_HI16	$LC5
    70bc:	3c020000 	lui	v0,0x0
			70bc: R_MIPS_HI16	printk
    70c0:	24840000 	addiu	a0,a0,0
			70c0: R_MIPS_LO16	$LC0
    70c4:	24a50000 	addiu	a1,a1,0
			70c4: R_MIPS_LO16	$LC1
    70c8:	24e70000 	addiu	a3,a3,0
			70c8: R_MIPS_LO16	$LC5
    70cc:	24420000 	addiu	v0,v0,0
			70cc: R_MIPS_LO16	printk
    70d0:	0040f809 	jalr	v0
    70d4:	240600d6 	li	a2,214
    70d8:	08001b49 	j	6d24 <HTCConnectService+0x19c>
			70d8: R_MIPS_26	.text
    70dc:	24100013 	li	s0,19
    70e0:	13c00004 	beqz	s8,70f4 <HTCConnectService+0x56c>
    70e4:	30420080 	andi	v0,v0,0x80
    70e8:	03c05821 	move	t3,s8
    70ec:	08001b3a 	j	6ce8 <HTCConnectService+0x160>
			70ec: R_MIPS_26	.text
    70f0:	02c01821 	move	v1,s6
    70f4:	1040ff68 	beqz	v0,6e98 <HTCConnectService+0x310>
    70f8:	3c040000 	lui	a0,0x0
			70f8: R_MIPS_HI16	$LC0
    70fc:	3c050000 	lui	a1,0x0
			70fc: R_MIPS_HI16	$LC1
    7100:	3c070000 	lui	a3,0x0
			7100: R_MIPS_HI16	$LC5
    7104:	3c020000 	lui	v0,0x0
			7104: R_MIPS_HI16	printk
    7108:	24840000 	addiu	a0,a0,0
			7108: R_MIPS_LO16	$LC0
    710c:	24a50000 	addiu	a1,a1,0
			710c: R_MIPS_LO16	$LC1
    7110:	24e70000 	addiu	a3,a3,0
			7110: R_MIPS_LO16	$LC5
    7114:	24420000 	addiu	v0,v0,0
			7114: R_MIPS_LO16	printk
    7118:	0040f809 	jalr	v0
    711c:	240600db 	li	a2,219
    7120:	08001b49 	j	6d24 <HTCConnectService+0x19c>
			7120: R_MIPS_26	.text
    7124:	24100013 	li	s0,19

00007128 <HTCControlRecv>:
    7128:	27bdffe0 	addiu	sp,sp,-32
    712c:	afb20018 	sw	s2,24(sp)
    7130:	afb10014 	sw	s1,20(sp)
    7134:	afb00010 	sw	s0,16(sp)
    7138:	afbf001c 	sw	ra,28(sp)
    713c:	8ca2001c 	lw	v0,28(a1)
    7140:	00a08021 	move	s0,a1
    7144:	24120010 	li	s2,16
    7148:	1040000c 	beqz	v0,717c <HTCControlRecv+0x54>
    714c:	00808821 	move	s1,a0
    7150:	3c020000 	lui	v0,0x0
			7150: R_MIPS_HI16	debughtc
    7154:	8c430000 	lw	v1,0(v0)
			7154: R_MIPS_LO16	debughtc
    7158:	3c070000 	lui	a3,0x0
			7158: R_MIPS_HI16	$LC11
    715c:	3c040000 	lui	a0,0x0
			715c: R_MIPS_HI16	$LC0
    7160:	3c050000 	lui	a1,0x0
			7160: R_MIPS_HI16	$LC1
    7164:	30630080 	andi	v1,v1,0x80
    7168:	24e70000 	addiu	a3,a3,0
			7168: R_MIPS_LO16	$LC11
    716c:	24840000 	addiu	a0,a0,0
			716c: R_MIPS_LO16	$LC0
    7170:	24a50000 	addiu	a1,a1,0
			7170: R_MIPS_LO16	$LC1
    7174:	14600043 	bnez	v1,7284 <HTCControlRecv+0x15c>
    7178:	24060023 	li	a2,35
    717c:	8e020020 	lw	v0,32(s0)
    7180:	02202021 	move	a0,s1
    7184:	02002821 	move	a1,s0
    7188:	10520047 	beq	v0,s2,72a8 <HTCControlRecv+0x180>
    718c:	26260604 	addiu	a2,s1,1540
    7190:	3c020000 	lui	v0,0x0
			7190: R_MIPS_HI16	debughtc
    7194:	8c430000 	lw	v1,0(v0)
			7194: R_MIPS_LO16	debughtc
    7198:	3c040000 	lui	a0,0x0
			7198: R_MIPS_HI16	$LC12
    719c:	30630080 	andi	v1,v1,0x80
    71a0:	1460001a 	bnez	v1,720c <HTCControlRecv+0xe4>
    71a4:	24840000 	addiu	a0,a0,0
			71a4: R_MIPS_LO16	$LC12
    71a8:	8e050018 	lw	a1,24(s0)
    71ac:	8e040010 	lw	a0,16(s0)
    71b0:	3c060000 	lui	a2,0x0
			71b0: R_MIPS_HI16	$LC13
    71b4:	24a50006 	addiu	a1,a1,6
    71b8:	3c020000 	lui	v0,0x0
			71b8: R_MIPS_HI16	DebugDumpBytes
    71bc:	2484fffa 	addiu	a0,a0,-6
    71c0:	30a5ffff 	andi	a1,a1,0xffff
    71c4:	24420000 	addiu	v0,v0,0
			71c4: R_MIPS_LO16	DebugDumpBytes
    71c8:	0040f809 	jalr	v0
    71cc:	24c60000 	addiu	a2,a2,0
			71cc: R_MIPS_LO16	$LC13
    71d0:	8e220064 	lw	v0,100(s1)
    71d4:	02002821 	move	a1,s0
    71d8:	1040001f 	beqz	v0,7258 <HTCControlRecv+0x130>
    71dc:	02202021 	move	a0,s1
    71e0:	8e02000c 	lw	v0,12(s0)
    71e4:	ae120020 	sw	s2,32(s0)
    71e8:	ae020010 	sw	v0,16(s0)
    71ec:	8e240050 	lw	a0,80(s1)
    71f0:	8e390058 	lw	t9,88(s1)
    71f4:	8fbf001c 	lw	ra,28(sp)
    71f8:	8fb20018 	lw	s2,24(sp)
    71fc:	8fb10014 	lw	s1,20(sp)
    7200:	8fb00010 	lw	s0,16(sp)
    7204:	03200008 	jr	t9
    7208:	27bd0020 	addiu	sp,sp,32
    720c:	8e050018 	lw	a1,24(s0)
    7210:	3c020000 	lui	v0,0x0
			7210: R_MIPS_HI16	printk
    7214:	24420000 	addiu	v0,v0,0
			7214: R_MIPS_LO16	printk
    7218:	0040f809 	jalr	v0
    721c:	24a50006 	addiu	a1,a1,6
    7220:	8e050018 	lw	a1,24(s0)
    7224:	8e040010 	lw	a0,16(s0)
    7228:	3c060000 	lui	a2,0x0
			7228: R_MIPS_HI16	$LC13
    722c:	24a50006 	addiu	a1,a1,6
    7230:	3c020000 	lui	v0,0x0
			7230: R_MIPS_HI16	DebugDumpBytes
    7234:	2484fffa 	addiu	a0,a0,-6
    7238:	30a5ffff 	andi	a1,a1,0xffff
    723c:	24420000 	addiu	v0,v0,0
			723c: R_MIPS_LO16	DebugDumpBytes
    7240:	0040f809 	jalr	v0
    7244:	24c60000 	addiu	a2,a2,0
			7244: R_MIPS_LO16	$LC13
    7248:	8e220064 	lw	v0,100(s1)
    724c:	02002821 	move	a1,s0
    7250:	1440ffe3 	bnez	v0,71e0 <HTCControlRecv+0xb8>
    7254:	02202021 	move	a0,s1
    7258:	8e02000c 	lw	v0,12(s0)
    725c:	3c190000 	lui	t9,0x0
			725c: R_MIPS_HI16	HTCAddReceivePkt
    7260:	ae020010 	sw	v0,16(s0)
    7264:	02002821 	move	a1,s0
    7268:	8fbf001c 	lw	ra,28(sp)
    726c:	8fb20018 	lw	s2,24(sp)
    7270:	8fb10014 	lw	s1,20(sp)
    7274:	8fb00010 	lw	s0,16(sp)
    7278:	27390000 	addiu	t9,t9,0
			7278: R_MIPS_LO16	HTCAddReceivePkt
    727c:	03200008 	jr	t9
    7280:	27bd0020 	addiu	sp,sp,32
    7284:	3c020000 	lui	v0,0x0
			7284: R_MIPS_HI16	printk
    7288:	24420000 	addiu	v0,v0,0
			7288: R_MIPS_LO16	printk
    728c:	0040f809 	jalr	v0
    7290:	00000000 	nop
    7294:	8e020020 	lw	v0,32(s0)
    7298:	02202021 	move	a0,s1
    729c:	02002821 	move	a1,s0
    72a0:	1452ffbb 	bne	v0,s2,7190 <HTCControlRecv+0x68>
    72a4:	26260604 	addiu	a2,s1,1540
    72a8:	8e02000c 	lw	v0,12(s0)
    72ac:	3c190000 	lui	t9,0x0
			72ac: R_MIPS_HI16	HTCFreeControlBuffer
    72b0:	ae020010 	sw	v0,16(s0)
    72b4:	8fbf001c 	lw	ra,28(sp)
    72b8:	8fb20018 	lw	s2,24(sp)
    72bc:	8fb10014 	lw	s1,20(sp)
    72c0:	8fb00010 	lw	s0,16(sp)
    72c4:	27390000 	addiu	t9,t9,0
			72c4: R_MIPS_LO16	HTCFreeControlBuffer
    72c8:	03200008 	jr	t9
    72cc:	27bd0020 	addiu	sp,sp,32

000072d0 <HTCSendSetupComplete>:
    72d0:	27bdffd8 	addiu	sp,sp,-40
    72d4:	afb40020 	sw	s4,32(sp)
    72d8:	3c020000 	lui	v0,0x0
			72d8: R_MIPS_HI16	HTCAllocControlBuffer
    72dc:	249405fc 	addiu	s4,a0,1532
    72e0:	afb3001c 	sw	s3,28(sp)
    72e4:	afb20018 	sw	s2,24(sp)
    72e8:	afb00010 	sw	s0,16(sp)
    72ec:	02802821 	move	a1,s4
    72f0:	afbf0024 	sw	ra,36(sp)
    72f4:	afb10014 	sw	s1,20(sp)
    72f8:	24420000 	addiu	v0,v0,0
			72f8: R_MIPS_LO16	HTCAllocControlBuffer
    72fc:	0040f809 	jalr	v0
    7300:	00809821 	move	s3,a0
    7304:	00409021 	move	s2,v0
    7308:	00002821 	move	a1,zero
    730c:	24060002 	li	a2,2
    7310:	1440000a 	bnez	v0,733c <HTCSendSetupComplete+0x6c>
    7314:	24100002 	li	s0,2
    7318:	02001021 	move	v0,s0
    731c:	8fbf0024 	lw	ra,36(sp)
    7320:	8fb40020 	lw	s4,32(sp)
    7324:	8fb3001c 	lw	s3,28(sp)
    7328:	8fb20018 	lw	s2,24(sp)
    732c:	8fb10014 	lw	s1,20(sp)
    7330:	8fb00010 	lw	s0,16(sp)
    7334:	03e00008 	jr	ra
    7338:	27bd0028 	addiu	sp,sp,40
    733c:	8c51000c 	lw	s1,12(v0)
    7340:	26300006 	addiu	s0,s1,6
    7344:	ac500010 	sw	s0,16(v0)
    7348:	3c020000 	lui	v0,0x0
			7348: R_MIPS_HI16	memset
    734c:	24420000 	addiu	v0,v0,0
			734c: R_MIPS_LO16	memset
    7350:	0040f809 	jalr	v0
    7354:	02002021 	move	a0,s0
    7358:	24030004 	li	v1,4
    735c:	24020002 	li	v0,2
    7360:	a2230006 	sb	v1,6(s1)
    7364:	a2000001 	sb	zero,1(s0)
    7368:	24030001 	li	v1,1
    736c:	ae420018 	sw	v0,24(s2)
    7370:	3c020000 	lui	v0,0x0
			7370: R_MIPS_HI16	HTCIssueSend
    7374:	ae500010 	sw	s0,16(s2)
    7378:	02602021 	move	a0,s3
    737c:	02402821 	move	a1,s2
    7380:	a6430024 	sh	v1,36(s2)
    7384:	ae400008 	sw	zero,8(s2)
    7388:	ae40001c 	sw	zero,28(s2)
    738c:	ae400028 	sw	zero,40(s2)
    7390:	24420000 	addiu	v0,v0,0
			7390: R_MIPS_LO16	HTCIssueSend
    7394:	0040f809 	jalr	v0
    7398:	00003021 	move	a2,zero
    739c:	00408021 	move	s0,v0
    73a0:	3c020000 	lui	v0,0x0
			73a0: R_MIPS_HI16	HTCFreeControlBuffer
    73a4:	02602021 	move	a0,s3
    73a8:	02402821 	move	a1,s2
    73ac:	24420000 	addiu	v0,v0,0
			73ac: R_MIPS_LO16	HTCFreeControlBuffer
    73b0:	0040f809 	jalr	v0
    73b4:	02803021 	move	a2,s4
    73b8:	08001cc7 	j	731c <HTCSendSetupComplete+0x4c>
			73b8: R_MIPS_26	.text
    73bc:	02001021 	move	v0,s0

000073c0 <HTCGetHifDevice>:
    73c0:	03e00008 	jr	ra
    73c4:	8c820634 	lw	v0,1588(a0)

000073c8 <HTCGetEndpointStatistics>:
    73c8:	03e00008 	jr	ra
    73cc:	00001021 	move	v0,zero

000073d0 <DebugDumpBytes>:
    73d0:	27bdff88 	addiu	sp,sp,-120
    73d4:	afbe0070 	sw	s8,112(sp)
    73d8:	afb7006c 	sw	s7,108(sp)
    73dc:	afb3005c 	sw	s3,92(sp)
    73e0:	afbf0074 	sw	ra,116(sp)
    73e4:	afb60068 	sw	s6,104(sp)
    73e8:	afb50064 	sw	s5,100(sp)
    73ec:	afb40060 	sw	s4,96(sp)
    73f0:	afb20058 	sw	s2,88(sp)
    73f4:	afb10054 	sw	s1,84(sp)
    73f8:	afb00050 	sw	s0,80(sp)
    73fc:	3c1e0000 	lui	s8,0x0
			73fc: R_MIPS_HI16	debughtc
    7400:	97c20000 	lhu	v0,0(s8)
			7400: R_MIPS_LO16	debughtc
    7404:	0080b821 	move	s7,a0
    7408:	1440005d 	bnez	v0,7580 <DebugDumpBytes+0x1b0>
    740c:	30b3ffff 	andi	s3,a1,0xffff
    7410:	12600047 	beqz	s3,7530 <DebugDumpBytes+0x160>
    7414:	27b40010 	addiu	s4,sp,16
    7418:	3c160000 	lui	s6,0x0
			7418: R_MIPS_HI16	$LC1
    741c:	92e60000 	lbu	a2,0(s7)
    7420:	3c150000 	lui	s5,0x0
			7420: R_MIPS_HI16	sprintf
    7424:	02802021 	move	a0,s4
    7428:	26a20000 	addiu	v0,s5,0
			7428: R_MIPS_LO16	sprintf
    742c:	0040f809 	jalr	v0
    7430:	26c50000 	addiu	a1,s6,0
			7430: R_MIPS_LO16	$LC1
    7434:	24120003 	li	s2,3
    7438:	24110001 	li	s1,1
    743c:	00008021 	move	s0,zero
    7440:	26100001 	addiu	s0,s0,1
    7444:	02922021 	addu	a0,s4,s2
    7448:	26c50000 	addiu	a1,s6,0
			7448: R_MIPS_LO16	$LC1
    744c:	26a30000 	addiu	v1,s5,0
			744c: R_MIPS_LO16	sprintf
    7450:	1213001c 	beq	s0,s3,74c4 <DebugDumpBytes+0xf4>
    7454:	02f01021 	addu	v0,s7,s0
    7458:	0060f809 	jalr	v1
    745c:	90460000 	lbu	a2,0(v0)
    7460:	26240001 	addiu	a0,s1,1
    7464:	26430003 	addiu	v1,s2,3
    7468:	3091ffff 	andi	s1,a0,0xffff
    746c:	24020010 	li	v0,16
    7470:	1622fff3 	bne	s1,v0,7440 <DebugDumpBytes+0x70>
    7474:	3072ffff 	andi	s2,v1,0xffff
    7478:	97c20000 	lhu	v0,0(s8)
			7478: R_MIPS_LO16	debughtc
    747c:	3c040000 	lui	a0,0x0
			747c: R_MIPS_HI16	$LC2
    7480:	24840000 	addiu	a0,a0,0
			7480: R_MIPS_LO16	$LC2
    7484:	00009021 	move	s2,zero
    7488:	00008821 	move	s1,zero
    748c:	1440001d 	bnez	v0,7504 <DebugDumpBytes+0x134>
    7490:	02802821 	move	a1,s4
    7494:	3c020000 	lui	v0,0x0
			7494: R_MIPS_HI16	memset
    7498:	02802021 	move	a0,s4
    749c:	00002821 	move	a1,zero
    74a0:	2406003c 	li	a2,60
    74a4:	24420000 	addiu	v0,v0,0
			74a4: R_MIPS_LO16	memset
    74a8:	0040f809 	jalr	v0
    74ac:	26100001 	addiu	s0,s0,1
    74b0:	02922021 	addu	a0,s4,s2
    74b4:	26c50000 	addiu	a1,s6,0
			74b4: R_MIPS_LO16	$LC1
    74b8:	26a30000 	addiu	v1,s5,0
			74b8: R_MIPS_LO16	sprintf
    74bc:	1613ffe6 	bne	s0,s3,7458 <DebugDumpBytes+0x88>
    74c0:	02f01021 	addu	v0,s7,s0
    74c4:	1240001a 	beqz	s2,7530 <DebugDumpBytes+0x160>
    74c8:	97c20000 	lhu	v0,0(s8)
			74c8: R_MIPS_LO16	debughtc
    74cc:	14400013 	bnez	v0,751c <DebugDumpBytes+0x14c>
    74d0:	3c020000 	lui	v0,0x0
			74d0: R_MIPS_HI16	printk
    74d4:	8fbf0074 	lw	ra,116(sp)
    74d8:	8fbe0070 	lw	s8,112(sp)
    74dc:	8fb7006c 	lw	s7,108(sp)
    74e0:	8fb60068 	lw	s6,104(sp)
    74e4:	8fb50064 	lw	s5,100(sp)
    74e8:	8fb40060 	lw	s4,96(sp)
    74ec:	8fb3005c 	lw	s3,92(sp)
    74f0:	8fb20058 	lw	s2,88(sp)
    74f4:	8fb10054 	lw	s1,84(sp)
    74f8:	8fb00050 	lw	s0,80(sp)
    74fc:	03e00008 	jr	ra
    7500:	27bd0078 	addiu	sp,sp,120
    7504:	3c020000 	lui	v0,0x0
			7504: R_MIPS_HI16	printk
    7508:	24420000 	addiu	v0,v0,0
			7508: R_MIPS_LO16	printk
    750c:	0040f809 	jalr	v0
    7510:	00000000 	nop
    7514:	08001d26 	j	7498 <DebugDumpBytes+0xc8>
			7514: R_MIPS_26	.text
    7518:	3c020000 	lui	v0,0x0
			7518: R_MIPS_HI16	memset
    751c:	3c040000 	lui	a0,0x0
			751c: R_MIPS_HI16	$LC2
    7520:	24840000 	addiu	a0,a0,0
			7520: R_MIPS_LO16	$LC2
    7524:	24420000 	addiu	v0,v0,0
			7524: R_MIPS_LO16	printk
    7528:	0040f809 	jalr	v0
    752c:	02802821 	move	a1,s4
    7530:	97c20000 	lhu	v0,0(s8)
			7530: R_MIPS_LO16	debughtc
    7534:	1040ffe8 	beqz	v0,74d8 <DebugDumpBytes+0x108>
    7538:	8fbf0074 	lw	ra,116(sp)
    753c:	3c040000 	lui	a0,0x0
			753c: R_MIPS_HI16	$LC3
    7540:	3c020000 	lui	v0,0x0
			7540: R_MIPS_HI16	printk
    7544:	24420000 	addiu	v0,v0,0
			7544: R_MIPS_LO16	printk
    7548:	0040f809 	jalr	v0
    754c:	24840000 	addiu	a0,a0,0
			754c: R_MIPS_LO16	$LC3
    7550:	8fbf0074 	lw	ra,116(sp)
    7554:	8fbe0070 	lw	s8,112(sp)
    7558:	8fb7006c 	lw	s7,108(sp)
    755c:	8fb60068 	lw	s6,104(sp)
    7560:	8fb50064 	lw	s5,100(sp)
    7564:	8fb40060 	lw	s4,96(sp)
    7568:	8fb3005c 	lw	s3,92(sp)
    756c:	8fb20058 	lw	s2,88(sp)
    7570:	8fb10054 	lw	s1,84(sp)
    7574:	8fb00050 	lw	s0,80(sp)
    7578:	03e00008 	jr	ra
    757c:	27bd0078 	addiu	sp,sp,120
    7580:	3c040000 	lui	a0,0x0
			7580: R_MIPS_HI16	$LC0
    7584:	3c020000 	lui	v0,0x0
			7584: R_MIPS_HI16	printk
    7588:	24840000 	addiu	a0,a0,0
			7588: R_MIPS_LO16	$LC0
    758c:	24420000 	addiu	v0,v0,0
			758c: R_MIPS_LO16	printk
    7590:	0040f809 	jalr	v0
    7594:	02602821 	move	a1,s3
    7598:	08001d04 	j	7410 <DebugDumpBytes+0x40>
			7598: R_MIPS_26	.text
    759c:	00000000 	nop

000075a0 <HTCReportFailure>:
    75a0:	24020001 	li	v0,1
    75a4:	10a20009 	beq	a1,v0,75cc <HTCReportFailure+0x2c>
    75a8:	ac820910 	sw	v0,2320(a0)
    75ac:	24020003 	li	v0,3
    75b0:	10a20003 	beq	a1,v0,75c0 <HTCReportFailure+0x20>
    75b4:	3c190000 	lui	t9,0x0
			75b4: R_MIPS_HI16	DumpCreditDistStates
    75b8:	03e00008 	jr	ra
    75bc:	00000000 	nop
    75c0:	27390000 	addiu	t9,t9,0
			75c0: R_MIPS_LO16	DumpCreditDistStates
    75c4:	03200008 	jr	t9
    75c8:	00000000 	nop
    75cc:	8c990918 	lw	t9,2328(a0)
    75d0:	1320fff9 	beqz	t9,75b8 <HTCReportFailure+0x18>
    75d4:	2405ffff 	li	a1,-1
    75d8:	03200008 	jr	t9
    75dc:	8c840914 	lw	a0,2324(a0)

000075e0 <HTCDumpCreditStates>:
    75e0:	27bdffe8 	addiu	sp,sp,-24
    75e4:	3c020000 	lui	v0,0x0
			75e4: R_MIPS_HI16	local_bh_disable
    75e8:	afb00010 	sw	s0,16(sp)
    75ec:	afbf0014 	sw	ra,20(sp)
    75f0:	24420000 	addiu	v0,v0,0
			75f0: R_MIPS_LO16	local_bh_disable
    75f4:	0040f809 	jalr	v0
    75f8:	00808021 	move	s0,a0
    75fc:	8f820014 	lw	v0,20(gp)
    7600:	24420001 	addiu	v0,v0,1
    7604:	af820014 	sw	v0,20(gp)
    7608:	3c020000 	lui	v0,0x0
			7608: R_MIPS_HI16	DumpCreditDistStates
    760c:	24420000 	addiu	v0,v0,0
			760c: R_MIPS_LO16	DumpCreditDistStates
    7610:	0040f809 	jalr	v0
    7614:	02002021 	move	a0,s0
    7618:	8f820014 	lw	v0,20(gp)
    761c:	3c190000 	lui	t9,0x0
			761c: R_MIPS_HI16	local_bh_enable
    7620:	2442ffff 	addiu	v0,v0,-1
    7624:	af820014 	sw	v0,20(gp)
    7628:	8fbf0014 	lw	ra,20(sp)
    762c:	8fb00010 	lw	s0,16(sp)
    7630:	27390000 	addiu	t9,t9,0
			7630: R_MIPS_LO16	local_bh_enable
    7634:	03200008 	jr	t9
    7638:	27bd0018 	addiu	sp,sp,24

0000763c <HTCAllocControlBuffer>:
    763c:	27bdffe0 	addiu	sp,sp,-32
    7640:	3c020000 	lui	v0,0x0
			7640: R_MIPS_HI16	local_bh_disable
    7644:	afb00010 	sw	s0,16(sp)
    7648:	afbf0018 	sw	ra,24(sp)
    764c:	afb10014 	sw	s1,20(sp)
    7650:	24420000 	addiu	v0,v0,0
			7650: R_MIPS_LO16	local_bh_disable
    7654:	0040f809 	jalr	v0
    7658:	00a08021 	move	s0,a1
    765c:	8f820014 	lw	v0,20(gp)
    7660:	24420001 	addiu	v0,v0,1
    7664:	af820014 	sw	v0,20(gp)
    7668:	8e050004 	lw	a1,4(s0)
    766c:	12050009 	beq	s0,a1,7694 <HTCAllocControlBuffer+0x58>
    7670:	00008821 	move	s1,zero
    7674:	8ca20004 	lw	v0,4(a1)
    7678:	8ca30000 	lw	v1,0(a1)
    767c:	00a08821 	move	s1,a1
    7680:	ac430000 	sw	v1,0(v0)
    7684:	8ca40000 	lw	a0,0(a1)
    7688:	aca50000 	sw	a1,0(a1)
    768c:	ac820004 	sw	v0,4(a0)
    7690:	aca50004 	sw	a1,4(a1)
    7694:	8f830014 	lw	v1,20(gp)
    7698:	3c040000 	lui	a0,0x0
			7698: R_MIPS_HI16	local_bh_enable
    769c:	2463ffff 	addiu	v1,v1,-1
    76a0:	24840000 	addiu	a0,a0,0
			76a0: R_MIPS_LO16	local_bh_enable
    76a4:	0080f809 	jalr	a0
    76a8:	af830014 	sw	v1,20(gp)
    76ac:	02201021 	move	v0,s1
    76b0:	8fbf0018 	lw	ra,24(sp)
    76b4:	8fb10014 	lw	s1,20(sp)
    76b8:	8fb00010 	lw	s0,16(sp)
    76bc:	03e00008 	jr	ra
    76c0:	27bd0020 	addiu	sp,sp,32

000076c4 <HTCFreeControlBuffer>:
    76c4:	27bdffe0 	addiu	sp,sp,-32
    76c8:	3c020000 	lui	v0,0x0
			76c8: R_MIPS_HI16	local_bh_disable
    76cc:	afb10014 	sw	s1,20(sp)
    76d0:	afb00010 	sw	s0,16(sp)
    76d4:	afbf0018 	sw	ra,24(sp)
    76d8:	24420000 	addiu	v0,v0,0
			76d8: R_MIPS_LO16	local_bh_disable
    76dc:	00a08821 	move	s1,a1
    76e0:	0040f809 	jalr	v0
    76e4:	00c08021 	move	s0,a2
    76e8:	8f820014 	lw	v0,20(gp)
    76ec:	24420001 	addiu	v0,v0,1
    76f0:	af820014 	sw	v0,20(gp)
    76f4:	8e020000 	lw	v0,0(s0)
    76f8:	ae300004 	sw	s0,4(s1)
    76fc:	ae220000 	sw	v0,0(s1)
    7700:	8e030000 	lw	v1,0(s0)
    7704:	ae110000 	sw	s1,0(s0)
    7708:	ac710004 	sw	s1,4(v1)
    770c:	8f820014 	lw	v0,20(gp)
    7710:	3c190000 	lui	t9,0x0
			7710: R_MIPS_HI16	local_bh_enable
    7714:	2442ffff 	addiu	v0,v0,-1
    7718:	af820014 	sw	v0,20(gp)
    771c:	8fbf0018 	lw	ra,24(sp)
    7720:	8fb10014 	lw	s1,20(sp)
    7724:	8fb00010 	lw	s0,16(sp)
    7728:	27390000 	addiu	t9,t9,0
			7728: R_MIPS_LO16	local_bh_enable
    772c:	03200008 	jr	t9
    7730:	27bd0020 	addiu	sp,sp,32

00007734 <HTCStop>:
    7734:	27bdffd0 	addiu	sp,sp,-48
    7738:	afb50024 	sw	s5,36(sp)
    773c:	afb20018 	sw	s2,24(sp)
    7740:	afbf0028 	sw	ra,40(sp)
    7744:	afb40020 	sw	s4,32(sp)
    7748:	afb3001c 	sw	s3,28(sp)
    774c:	afb10014 	sw	s1,20(sp)
    7750:	afb00010 	sw	s0,16(sp)
    7754:	3c150000 	lui	s5,0x0
			7754: R_MIPS_HI16	debughtc
    7758:	8ea20000 	lw	v0,0(s5)
			7758: R_MIPS_LO16	debughtc
    775c:	30420020 	andi	v0,v0,0x20
    7760:	1440004c 	bnez	v0,7894 <HTCStop+0x160>
    7764:	00809021 	move	s2,a0
    7768:	3c020000 	lui	v0,0x0
			7768: R_MIPS_HI16	local_bh_disable
    776c:	24420000 	addiu	v0,v0,0
			776c: R_MIPS_LO16	local_bh_disable
    7770:	0040f809 	jalr	v0
    7774:	00000000 	nop
    7778:	8f820014 	lw	v0,20(gp)
    777c:	24420001 	addiu	v0,v0,1
    7780:	af820014 	sw	v0,20(gp)
    7784:	8e420908 	lw	v0,2312(s2)
    7788:	34420002 	ori	v0,v0,0x2
    778c:	ae420908 	sw	v0,2312(s2)
    7790:	8f820014 	lw	v0,20(gp)
    7794:	3c030000 	lui	v1,0x0
			7794: R_MIPS_HI16	local_bh_enable
    7798:	2442ffff 	addiu	v0,v0,-1
    779c:	24630000 	addiu	v1,v1,0
			779c: R_MIPS_LO16	local_bh_enable
    77a0:	0060f809 	jalr	v1
    77a4:	af820014 	sw	v0,20(gp)
    77a8:	3c020000 	lui	v0,0x0
			77a8: R_MIPS_HI16	DevMaskInterrupts
    77ac:	24420000 	addiu	v0,v0,0
			77ac: R_MIPS_LO16	DevMaskInterrupts
    77b0:	0040f809 	jalr	v0
    77b4:	26440620 	addiu	a0,s2,1568
    77b8:	3c020000 	lui	v0,0x0
			77b8: R_MIPS_HI16	HTCFlushSendPkts
    77bc:	24420000 	addiu	v0,v0,0
			77bc: R_MIPS_LO16	HTCFlushSendPkts
    77c0:	0040f809 	jalr	v0
    77c4:	02402021 	move	a0,s2
    77c8:	3c020000 	lui	v0,0x0
			77c8: R_MIPS_HI16	HTCFlushRecvBuffers
    77cc:	24420000 	addiu	v0,v0,0
			77cc: R_MIPS_LO16	HTCFlushRecvBuffers
    77d0:	0040f809 	jalr	v0
    77d4:	02402021 	move	a0,s2
    77d8:	3c030000 	lui	v1,0x0
			77d8: R_MIPS_HI16	memset
    77dc:	24740000 	addiu	s4,v1,0
			77dc: R_MIPS_LO16	memset
    77e0:	00008821 	move	s1,zero
    77e4:	24130009 	li	s3,9
    77e8:	02408021 	move	s0,s2
    77ec:	26040014 	addiu	a0,s0,20
    77f0:	00002821 	move	a1,zero
    77f4:	0280f809 	jalr	s4
    77f8:	2406003c 	li	a2,60
    77fc:	26310001 	addiu	s1,s1,1
    7800:	2602000c 	addiu	v0,s0,12
    7804:	26030004 	addiu	v1,s0,4
    7808:	ae020010 	sw	v0,16(s0)
    780c:	ae030008 	sw	v1,8(s0)
    7810:	a6000000 	sh	zero,0(s0)
    7814:	ae00006c 	sw	zero,108(s0)
    7818:	ae000070 	sw	zero,112(s0)
    781c:	ae000068 	sw	zero,104(s0)
    7820:	ae02000c 	sw	v0,12(s0)
    7824:	ae030004 	sw	v1,4(s0)
    7828:	1633fff0 	bne	s1,s3,77ec <HTCStop+0xb8>
    782c:	26100078 	addiu	s0,s0,120
    7830:	ae4005f8 	sw	zero,1528(s2)
    7834:	8ea20000 	lw	v0,0(s5)
			7834: R_MIPS_LO16	debughtc
    7838:	30420020 	andi	v0,v0,0x20
    783c:	14400009 	bnez	v0,7864 <HTCStop+0x130>
    7840:	8fbf0028 	lw	ra,40(sp)
    7844:	8fb50024 	lw	s5,36(sp)
    7848:	8fb40020 	lw	s4,32(sp)
    784c:	8fb3001c 	lw	s3,28(sp)
    7850:	8fb20018 	lw	s2,24(sp)
    7854:	8fb10014 	lw	s1,20(sp)
    7858:	8fb00010 	lw	s0,16(sp)
    785c:	03e00008 	jr	ra
    7860:	27bd0030 	addiu	sp,sp,48
    7864:	3c040000 	lui	a0,0x0
			7864: R_MIPS_HI16	$LC5
    7868:	3c190000 	lui	t9,0x0
			7868: R_MIPS_HI16	printk
    786c:	8fb50024 	lw	s5,36(sp)
    7870:	8fb40020 	lw	s4,32(sp)
    7874:	8fb3001c 	lw	s3,28(sp)
    7878:	8fb20018 	lw	s2,24(sp)
    787c:	8fb10014 	lw	s1,20(sp)
    7880:	8fb00010 	lw	s0,16(sp)
    7884:	24840000 	addiu	a0,a0,0
			7884: R_MIPS_LO16	$LC5
    7888:	27390000 	addiu	t9,t9,0
			7888: R_MIPS_LO16	printk
    788c:	03200008 	jr	t9
    7890:	27bd0030 	addiu	sp,sp,48
    7894:	3c040000 	lui	a0,0x0
			7894: R_MIPS_HI16	$LC4
    7898:	3c020000 	lui	v0,0x0
			7898: R_MIPS_HI16	printk
    789c:	24420000 	addiu	v0,v0,0
			789c: R_MIPS_LO16	printk
    78a0:	0040f809 	jalr	v0
    78a4:	24840000 	addiu	a0,a0,0
			78a4: R_MIPS_LO16	$LC4
    78a8:	08001ddb 	j	776c <HTCStop+0x38>
			78a8: R_MIPS_26	.text
    78ac:	3c020000 	lui	v0,0x0
			78ac: R_MIPS_HI16	local_bh_disable

000078b0 <HTCStart>:
    78b0:	27bdffd0 	addiu	sp,sp,-48
    78b4:	afb40020 	sw	s4,32(sp)
    78b8:	3c140000 	lui	s4,0x0
			78b8: R_MIPS_HI16	debughtc
    78bc:	8e820000 	lw	v0,0(s4)
			78bc: R_MIPS_LO16	debughtc
    78c0:	afb10014 	sw	s1,20(sp)
    78c4:	30420020 	andi	v0,v0,0x20
    78c8:	afbf0028 	sw	ra,40(sp)
    78cc:	afb50024 	sw	s5,36(sp)
    78d0:	afb3001c 	sw	s3,28(sp)
    78d4:	afb20018 	sw	s2,24(sp)
    78d8:	afb00010 	sw	s0,16(sp)
    78dc:	14400051 	bnez	v0,7a24 <HTCStart+0x174>
    78e0:	00808821 	move	s1,a0
    78e4:	26350620 	addiu	s5,s1,1568
    78e8:	3c020000 	lui	v0,0x0
			78e8: R_MIPS_HI16	DevDisableInterrupts
    78ec:	24420000 	addiu	v0,v0,0
			78ec: R_MIPS_LO16	DevDisableInterrupts
    78f0:	0040f809 	jalr	v0
    78f4:	02a02021 	move	a0,s5
    78f8:	3c020000 	lui	v0,0x0
			78f8: R_MIPS_HI16	HTCAllocControlBuffer
    78fc:	3c030000 	lui	v1,0x0
			78fc: R_MIPS_HI16	HTCAddReceivePkt
    7900:	24520000 	addiu	s2,v0,0
			7900: R_MIPS_LO16	HTCAllocControlBuffer
    7904:	24730000 	addiu	s3,v1,0
			7904: R_MIPS_LO16	HTCAddReceivePkt
    7908:	26300604 	addiu	s0,s1,1540
    790c:	08001e47 	j	791c <HTCStart+0x6c>
			790c: R_MIPS_26	.text
    7910:	ae200908 	sw	zero,2312(s1)
    7914:	0260f809 	jalr	s3
    7918:	00000000 	nop
    791c:	02202021 	move	a0,s1
    7920:	0240f809 	jalr	s2
    7924:	02002821 	move	a1,s0
    7928:	00402821 	move	a1,v0
    792c:	1440fff9 	bnez	v0,7914 <HTCStart+0x64>
    7930:	02202021 	move	a0,s1
    7934:	8e220610 	lw	v0,1552(s1)
    7938:	1040005d 	beqz	v0,7ab0 <HTCStart+0x200>
    793c:	8e820000 	lw	v0,0(s4)
			793c: R_MIPS_LO16	debughtc
    7940:	8e2505f8 	lw	a1,1528(s1)
    7944:	10a0003e 	beqz	a1,7a40 <HTCStart+0x190>
    7948:	8e820000 	lw	v0,0(s4)
			7948: R_MIPS_LO16	debughtc
    794c:	8ca20000 	lw	v0,0(a1)
    7950:	10400049 	beqz	v0,7a78 <HTCStart+0x1c8>
    7954:	8e820000 	lw	v0,0(s4)
			7954: R_MIPS_LO16	debughtc
    7958:	8ca50000 	lw	a1,0(a1)
    795c:	8e230610 	lw	v1,1552(s1)
    7960:	8e240614 	lw	a0,1556(s1)
    7964:	0060f809 	jalr	v1
    7968:	8e260618 	lw	a2,1560(s1)
    796c:	8e820000 	lw	v0,0(s4)
			796c: R_MIPS_LO16	debughtc
    7970:	30420020 	andi	v0,v0,0x20
    7974:	14400026 	bnez	v0,7a10 <HTCStart+0x160>
    7978:	3c020000 	lui	v0,0x0
			7978: R_MIPS_HI16	DumpCreditDistStates
    797c:	3c020000 	lui	v0,0x0
			797c: R_MIPS_HI16	HTCSendSetupComplete
    7980:	24420000 	addiu	v0,v0,0
			7980: R_MIPS_LO16	HTCSendSetupComplete
    7984:	0040f809 	jalr	v0
    7988:	02202021 	move	a0,s1
    798c:	10400014 	beqz	v0,79e0 <HTCStart+0x130>
    7990:	00408021 	move	s0,v0
    7994:	8e820000 	lw	v0,0(s4)
			7994: R_MIPS_LO16	debughtc
    7998:	30420020 	andi	v0,v0,0x20
    799c:	10400007 	beqz	v0,79bc <HTCStart+0x10c>
    79a0:	02001021 	move	v0,s0
    79a4:	3c040000 	lui	a0,0x0
			79a4: R_MIPS_HI16	$LC12
    79a8:	3c020000 	lui	v0,0x0
			79a8: R_MIPS_HI16	printk
    79ac:	24420000 	addiu	v0,v0,0
			79ac: R_MIPS_LO16	printk
    79b0:	0040f809 	jalr	v0
    79b4:	24840000 	addiu	a0,a0,0
			79b4: R_MIPS_LO16	$LC12
    79b8:	02001021 	move	v0,s0
    79bc:	8fbf0028 	lw	ra,40(sp)
    79c0:	8fb50024 	lw	s5,36(sp)
    79c4:	8fb40020 	lw	s4,32(sp)
    79c8:	8fb3001c 	lw	s3,28(sp)
    79cc:	8fb20018 	lw	s2,24(sp)
    79d0:	8fb10014 	lw	s1,20(sp)
    79d4:	8fb00010 	lw	s0,16(sp)
    79d8:	03e00008 	jr	ra
    79dc:	27bd0030 	addiu	sp,sp,48
    79e0:	3c020000 	lui	v0,0x0
			79e0: R_MIPS_HI16	DevUnmaskInterrupts
    79e4:	24420000 	addiu	v0,v0,0
			79e4: R_MIPS_LO16	DevUnmaskInterrupts
    79e8:	0040f809 	jalr	v0
    79ec:	02a02021 	move	a0,s5
    79f0:	1040ffe8 	beqz	v0,7994 <HTCStart+0xe4>
    79f4:	00408021 	move	s0,v0
    79f8:	3c020000 	lui	v0,0x0
			79f8: R_MIPS_HI16	HTCStop
    79fc:	24420000 	addiu	v0,v0,0
			79fc: R_MIPS_LO16	HTCStop
    7a00:	0040f809 	jalr	v0
    7a04:	02202021 	move	a0,s1
    7a08:	08001e66 	j	7998 <HTCStart+0xe8>
			7a08: R_MIPS_26	.text
    7a0c:	8e820000 	lw	v0,0(s4)
			7a0c: R_MIPS_LO16	debughtc
    7a10:	24420000 	addiu	v0,v0,0
			7a10: R_MIPS_LO16	DumpCreditDistStates
    7a14:	0040f809 	jalr	v0
    7a18:	02202021 	move	a0,s1
    7a1c:	08001e60 	j	7980 <HTCStart+0xd0>
			7a1c: R_MIPS_26	.text
    7a20:	3c020000 	lui	v0,0x0
			7a20: R_MIPS_HI16	HTCSendSetupComplete
    7a24:	3c040000 	lui	a0,0x0
			7a24: R_MIPS_HI16	$LC6
    7a28:	3c020000 	lui	v0,0x0
			7a28: R_MIPS_HI16	printk
    7a2c:	24420000 	addiu	v0,v0,0
			7a2c: R_MIPS_LO16	printk
    7a30:	0040f809 	jalr	v0
    7a34:	24840000 	addiu	a0,a0,0
			7a34: R_MIPS_LO16	$LC6
    7a38:	08001e3a 	j	78e8 <HTCStart+0x38>
			7a38: R_MIPS_26	.text
    7a3c:	26350620 	addiu	s5,s1,1568
    7a40:	30420080 	andi	v0,v0,0x80
    7a44:	1040ffc1 	beqz	v0,794c <HTCStart+0x9c>
    7a48:	3c070000 	lui	a3,0x0
			7a48: R_MIPS_HI16	$LC10
    7a4c:	3c040000 	lui	a0,0x0
			7a4c: R_MIPS_HI16	$LC7
    7a50:	3c050000 	lui	a1,0x0
			7a50: R_MIPS_HI16	$LC8
    7a54:	3c020000 	lui	v0,0x0
			7a54: R_MIPS_HI16	printk
    7a58:	24a50000 	addiu	a1,a1,0
			7a58: R_MIPS_LO16	$LC8
    7a5c:	24840000 	addiu	a0,a0,0
			7a5c: R_MIPS_LO16	$LC7
    7a60:	24e70000 	addiu	a3,a3,0
			7a60: R_MIPS_LO16	$LC10
    7a64:	24420000 	addiu	v0,v0,0
			7a64: R_MIPS_LO16	printk
    7a68:	0040f809 	jalr	v0
    7a6c:	24060141 	li	a2,321
    7a70:	08001e53 	j	794c <HTCStart+0x9c>
			7a70: R_MIPS_26	.text
    7a74:	8e2505f8 	lw	a1,1528(s1)
    7a78:	30420080 	andi	v0,v0,0x80
    7a7c:	1040ffb6 	beqz	v0,7958 <HTCStart+0xa8>
    7a80:	3c040000 	lui	a0,0x0
			7a80: R_MIPS_HI16	$LC7
    7a84:	3c050000 	lui	a1,0x0
			7a84: R_MIPS_HI16	$LC8
    7a88:	3c070000 	lui	a3,0x0
			7a88: R_MIPS_HI16	$LC11
    7a8c:	3c020000 	lui	v0,0x0
			7a8c: R_MIPS_HI16	printk
    7a90:	24a50000 	addiu	a1,a1,0
			7a90: R_MIPS_LO16	$LC8
    7a94:	24840000 	addiu	a0,a0,0
			7a94: R_MIPS_LO16	$LC7
    7a98:	24e70000 	addiu	a3,a3,0
			7a98: R_MIPS_LO16	$LC11
    7a9c:	24420000 	addiu	v0,v0,0
			7a9c: R_MIPS_LO16	printk
    7aa0:	0040f809 	jalr	v0
    7aa4:	24060142 	li	a2,322
    7aa8:	08001e56 	j	7958 <HTCStart+0xa8>
			7aa8: R_MIPS_26	.text
    7aac:	8e2505f8 	lw	a1,1528(s1)
    7ab0:	30420080 	andi	v0,v0,0x80
    7ab4:	1040ffa2 	beqz	v0,7940 <HTCStart+0x90>
    7ab8:	3c050000 	lui	a1,0x0
			7ab8: R_MIPS_HI16	$LC8
    7abc:	3c040000 	lui	a0,0x0
			7abc: R_MIPS_HI16	$LC7
    7ac0:	3c070000 	lui	a3,0x0
			7ac0: R_MIPS_HI16	$LC9
    7ac4:	3c020000 	lui	v0,0x0
			7ac4: R_MIPS_HI16	printk
    7ac8:	24840000 	addiu	a0,a0,0
			7ac8: R_MIPS_LO16	$LC7
    7acc:	24a50000 	addiu	a1,a1,0
			7acc: R_MIPS_LO16	$LC8
    7ad0:	24e70000 	addiu	a3,a3,0
			7ad0: R_MIPS_LO16	$LC9
    7ad4:	24420000 	addiu	v0,v0,0
			7ad4: R_MIPS_LO16	printk
    7ad8:	0040f809 	jalr	v0
    7adc:	24060140 	li	a2,320
    7ae0:	08001e51 	j	7944 <HTCStart+0x94>
			7ae0: R_MIPS_26	.text
    7ae4:	8e2505f8 	lw	a1,1528(s1)

00007ae8 <HTCWaitTarget>:
    7ae8:	27bdff90 	addiu	sp,sp,-112
    7aec:	afb40060 	sw	s4,96(sp)
    7af0:	3c140000 	lui	s4,0x0
			7af0: R_MIPS_HI16	debughtc
    7af4:	8e820000 	lw	v0,0(s4)
			7af4: R_MIPS_LO16	debughtc
    7af8:	afb3005c 	sw	s3,92(sp)
    7afc:	30420020 	andi	v0,v0,0x20
    7b00:	afbf0068 	sw	ra,104(sp)
    7b04:	afb50064 	sw	s5,100(sp)
    7b08:	afb20058 	sw	s2,88(sp)
    7b0c:	afb10054 	sw	s1,84(sp)
    7b10:	afb00050 	sw	s0,80(sp)
    7b14:	00809821 	move	s3,a0
    7b18:	14400038 	bnez	v0,7bfc <HTCWaitTarget+0x114>
    7b1c:	afa00010 	sw	zero,16(sp)
    7b20:	3c020000 	lui	v0,0x0
			7b20: R_MIPS_HI16	HTCWaitforControlMessage
    7b24:	02602021 	move	a0,s3
    7b28:	24420000 	addiu	v0,v0,0
			7b28: R_MIPS_LO16	HTCWaitforControlMessage
    7b2c:	0040f809 	jalr	v0
    7b30:	27a50010 	addiu	a1,sp,16
    7b34:	10400023 	beqz	v0,7bc4 <HTCWaitTarget+0xdc>
    7b38:	00408021 	move	s0,v0
    7b3c:	8e820000 	lw	v0,0(s4)
			7b3c: R_MIPS_LO16	debughtc
    7b40:	30420080 	andi	v0,v0,0x80
    7b44:	14400035 	bnez	v0,7c1c <HTCWaitTarget+0x134>
    7b48:	3c040000 	lui	a0,0x0
			7b48: R_MIPS_HI16	$LC14
    7b4c:	8fa60010 	lw	a2,16(sp)
    7b50:	10c0000a 	beqz	a2,7b7c <HTCWaitTarget+0x94>
    7b54:	8e820000 	lw	v0,0(s4)
			7b54: R_MIPS_LO16	debughtc
    7b58:	8cc2000c 	lw	v0,12(a2)
    7b5c:	02602021 	move	a0,s3
    7b60:	acc20010 	sw	v0,16(a2)
    7b64:	8fa50010 	lw	a1,16(sp)
    7b68:	3c020000 	lui	v0,0x0
			7b68: R_MIPS_HI16	HTCFreeControlBuffer
    7b6c:	24420000 	addiu	v0,v0,0
			7b6c: R_MIPS_LO16	HTCFreeControlBuffer
    7b70:	0040f809 	jalr	v0
    7b74:	26660604 	addiu	a2,s3,1540
    7b78:	8e820000 	lw	v0,0(s4)
			7b78: R_MIPS_LO16	debughtc
    7b7c:	30420020 	andi	v0,v0,0x20
    7b80:	10400007 	beqz	v0,7ba0 <HTCWaitTarget+0xb8>
    7b84:	02001021 	move	v0,s0
    7b88:	3c040000 	lui	a0,0x0
			7b88: R_MIPS_HI16	$LC17
    7b8c:	3c020000 	lui	v0,0x0
			7b8c: R_MIPS_HI16	printk
    7b90:	24420000 	addiu	v0,v0,0
			7b90: R_MIPS_LO16	printk
    7b94:	0040f809 	jalr	v0
    7b98:	24840000 	addiu	a0,a0,0
			7b98: R_MIPS_LO16	$LC17
    7b9c:	02001021 	move	v0,s0
    7ba0:	8fbf0068 	lw	ra,104(sp)
    7ba4:	8fb50064 	lw	s5,100(sp)
    7ba8:	8fb40060 	lw	s4,96(sp)
    7bac:	8fb3005c 	lw	s3,92(sp)
    7bb0:	8fb20058 	lw	s2,88(sp)
    7bb4:	8fb10054 	lw	s1,84(sp)
    7bb8:	8fb00050 	lw	s0,80(sp)
    7bbc:	03e00008 	jr	ra
    7bc0:	27bd0070 	addiu	sp,sp,112
    7bc4:	8fa60010 	lw	a2,16(sp)
    7bc8:	24030001 	li	v1,1
    7bcc:	8cc70010 	lw	a3,16(a2)
    7bd0:	90e20001 	lbu	v0,1(a3)
    7bd4:	90e40000 	lbu	a0,0(a3)
    7bd8:	00021200 	sll	v0,v0,0x8
    7bdc:	0044a825 	or	s5,v0,a0
    7be0:	12a30014 	beq	s5,v1,7c34 <HTCWaitTarget+0x14c>
    7be4:	8e820000 	lw	v0,0(s4)
			7be4: R_MIPS_LO16	debughtc
    7be8:	30420080 	andi	v0,v0,0x80
    7bec:	1440004b 	bnez	v0,7d1c <HTCWaitTarget+0x234>
    7bf0:	3c040000 	lui	a0,0x0
			7bf0: R_MIPS_HI16	$LC7
    7bf4:	08001ed6 	j	7b58 <HTCWaitTarget+0x70>
			7bf4: R_MIPS_26	.text
    7bf8:	24100013 	li	s0,19
    7bfc:	3c040000 	lui	a0,0x0
			7bfc: R_MIPS_HI16	$LC13
    7c00:	3c020000 	lui	v0,0x0
			7c00: R_MIPS_HI16	printk
    7c04:	24840000 	addiu	a0,a0,0
			7c04: R_MIPS_LO16	$LC13
    7c08:	24420000 	addiu	v0,v0,0
			7c08: R_MIPS_LO16	printk
    7c0c:	0040f809 	jalr	v0
    7c10:	02602821 	move	a1,s3
    7c14:	08001ec9 	j	7b24 <HTCWaitTarget+0x3c>
			7c14: R_MIPS_26	.text
    7c18:	3c020000 	lui	v0,0x0
			7c18: R_MIPS_HI16	HTCWaitforControlMessage
    7c1c:	3c020000 	lui	v0,0x0
			7c1c: R_MIPS_HI16	printk
    7c20:	24420000 	addiu	v0,v0,0
			7c20: R_MIPS_LO16	printk
    7c24:	0040f809 	jalr	v0
    7c28:	24840000 	addiu	a0,a0,0
			7c28: R_MIPS_LO16	$LC14
    7c2c:	08001ed4 	j	7b50 <HTCWaitTarget+0x68>
			7c2c: R_MIPS_26	.text
    7c30:	8fa60010 	lw	a2,16(sp)
    7c34:	8cc20018 	lw	v0,24(a2)
    7c38:	2c420008 	sltiu	v0,v0,8
    7c3c:	1440ffea 	bnez	v0,7be8 <HTCWaitTarget+0x100>
    7c40:	8e820000 	lw	v0,0(s4)
			7c40: R_MIPS_LO16	debughtc
    7c44:	90e20003 	lbu	v0,3(a3)
    7c48:	90e30002 	lbu	v1,2(a3)
    7c4c:	00021200 	sll	v0,v0,0x8
    7c50:	00432825 	or	a1,v0,v1
    7c54:	10a0003c 	beqz	a1,7d48 <HTCWaitTarget+0x260>
    7c58:	8e820000 	lw	v0,0(s4)
			7c58: R_MIPS_LO16	debughtc
    7c5c:	90e20005 	lbu	v0,5(a3)
    7c60:	90e30004 	lbu	v1,4(a3)
    7c64:	00021200 	sll	v0,v0,0x8
    7c68:	00431025 	or	v0,v0,v1
    7c6c:	10400036 	beqz	v0,7d48 <HTCWaitTarget+0x260>
    7c70:	8e820000 	lw	v0,0(s4)
			7c70: R_MIPS_LO16	debughtc
    7c74:	ae650618 	sw	a1,1560(s3)
    7c78:	90e20005 	lbu	v0,5(a3)
    7c7c:	90e30004 	lbu	v1,4(a3)
    7c80:	00021200 	sll	v0,v0,0x8
    7c84:	00433025 	or	a2,v0,v1
    7c88:	ae66061c 	sw	a2,1564(s3)
    7c8c:	8e820000 	lw	v0,0(s4)
			7c8c: R_MIPS_LO16	debughtc
    7c90:	30420020 	andi	v0,v0,0x20
    7c94:	1440003a 	bnez	v0,7d80 <HTCWaitTarget+0x298>
    7c98:	3c040000 	lui	a0,0x0
			7c98: R_MIPS_HI16	$LC16
    7c9c:	27b20028 	addiu	s2,sp,40
    7ca0:	3c100000 	lui	s0,0x0
			7ca0: R_MIPS_HI16	memset
    7ca4:	26100000 	addiu	s0,s0,0
			7ca4: R_MIPS_LO16	memset
    7ca8:	02402021 	move	a0,s2
    7cac:	00002821 	move	a1,zero
    7cb0:	24060028 	li	a2,40
    7cb4:	0200f809 	jalr	s0
    7cb8:	27b10014 	addiu	s1,sp,20
    7cbc:	02202021 	move	a0,s1
    7cc0:	00002821 	move	a1,zero
    7cc4:	0200f809 	jalr	s0
    7cc8:	24060014 	li	a2,20
    7ccc:	3c020000 	lui	v0,0x0
			7ccc: R_MIPS_HI16	HTCControlTxComplete
    7cd0:	24420000 	addiu	v0,v0,0
			7cd0: R_MIPS_LO16	HTCControlTxComplete
    7cd4:	afa20038 	sw	v0,56(sp)
    7cd8:	3c030000 	lui	v1,0x0
			7cd8: R_MIPS_HI16	HTCControlRecv
    7cdc:	24020008 	li	v0,8
    7ce0:	24630000 	addiu	v1,v1,0
			7ce0: R_MIPS_LO16	HTCControlRecv
    7ce4:	afa2004c 	sw	v0,76(sp)
    7ce8:	3c020000 	lui	v0,0x0
			7ce8: R_MIPS_HI16	HTCConnectService
    7cec:	02402821 	move	a1,s2
    7cf0:	02203021 	move	a2,s1
    7cf4:	02602021 	move	a0,s3
    7cf8:	afa3003c 	sw	v1,60(sp)
    7cfc:	a7b50028 	sh	s5,40(sp)
    7d00:	afb30034 	sw	s3,52(sp)
    7d04:	afa00040 	sw	zero,64(sp)
    7d08:	24420000 	addiu	v0,v0,0
			7d08: R_MIPS_LO16	HTCConnectService
    7d0c:	0040f809 	jalr	v0
    7d10:	afa00044 	sw	zero,68(sp)
    7d14:	08001ed3 	j	7b4c <HTCWaitTarget+0x64>
			7d14: R_MIPS_26	.text
    7d18:	00408021 	move	s0,v0
    7d1c:	3c050000 	lui	a1,0x0
			7d1c: R_MIPS_HI16	$LC8
    7d20:	3c070000 	lui	a3,0x0
			7d20: R_MIPS_HI16	$LC15
    7d24:	3c020000 	lui	v0,0x0
			7d24: R_MIPS_HI16	printk
    7d28:	24840000 	addiu	a0,a0,0
			7d28: R_MIPS_LO16	$LC7
    7d2c:	24a50000 	addiu	a1,a1,0
			7d2c: R_MIPS_LO16	$LC8
    7d30:	24e70000 	addiu	a3,a3,0
			7d30: R_MIPS_LO16	$LC15
    7d34:	24420000 	addiu	v0,v0,0
			7d34: R_MIPS_LO16	printk
    7d38:	0040f809 	jalr	v0
    7d3c:	240600f1 	li	a2,241
    7d40:	08001ed3 	j	7b4c <HTCWaitTarget+0x64>
			7d40: R_MIPS_26	.text
    7d44:	24100013 	li	s0,19
    7d48:	30420080 	andi	v0,v0,0x80
    7d4c:	1040ffa9 	beqz	v0,7bf4 <HTCWaitTarget+0x10c>
    7d50:	3c040000 	lui	a0,0x0
			7d50: R_MIPS_HI16	$LC7
    7d54:	3c050000 	lui	a1,0x0
			7d54: R_MIPS_HI16	$LC8
    7d58:	3c070000 	lui	a3,0x0
			7d58: R_MIPS_HI16	$LC15
    7d5c:	3c020000 	lui	v0,0x0
			7d5c: R_MIPS_HI16	printk
    7d60:	24840000 	addiu	a0,a0,0
			7d60: R_MIPS_LO16	$LC7
    7d64:	24a50000 	addiu	a1,a1,0
			7d64: R_MIPS_LO16	$LC8
    7d68:	24e70000 	addiu	a3,a3,0
			7d68: R_MIPS_LO16	$LC15
    7d6c:	24420000 	addiu	v0,v0,0
			7d6c: R_MIPS_LO16	printk
    7d70:	0040f809 	jalr	v0
    7d74:	240600f8 	li	a2,248
    7d78:	08001ed3 	j	7b4c <HTCWaitTarget+0x64>
			7d78: R_MIPS_26	.text
    7d7c:	24100013 	li	s0,19
    7d80:	3c020000 	lui	v0,0x0
			7d80: R_MIPS_HI16	printk
    7d84:	24420000 	addiu	v0,v0,0
			7d84: R_MIPS_LO16	printk
    7d88:	0040f809 	jalr	v0
    7d8c:	24840000 	addiu	a0,a0,0
			7d8c: R_MIPS_LO16	$LC16
    7d90:	08001f28 	j	7ca0 <HTCWaitTarget+0x1b8>
			7d90: R_MIPS_26	.text
    7d94:	27b20028 	addiu	s2,sp,40

00007d98 <HTCCleanup>:
    7d98:	27bdffd8 	addiu	sp,sp,-40
    7d9c:	3c020000 	lui	v0,0x0
			7d9c: R_MIPS_HI16	DevCleanup
    7da0:	afb40020 	sw	s4,32(sp)
    7da4:	afb3001c 	sw	s3,28(sp)
    7da8:	afb20018 	sw	s2,24(sp)
    7dac:	afb10014 	sw	s1,20(sp)
    7db0:	afb00010 	sw	s0,16(sp)
    7db4:	afbf0024 	sw	ra,36(sp)
    7db8:	00808821 	move	s1,a0
    7dbc:	3c140000 	lui	s4,0x0
			7dbc: R_MIPS_HI16	kfree
    7dc0:	24420000 	addiu	v0,v0,0
			7dc0: R_MIPS_LO16	DevCleanup
    7dc4:	0040f809 	jalr	v0
    7dc8:	24840620 	addiu	a0,a0,1568
    7dcc:	00008021 	move	s0,zero
    7dd0:	26930000 	addiu	s3,s4,0
			7dd0: R_MIPS_LO16	kfree
    7dd4:	241201c0 	li	s2,448
    7dd8:	02301021 	addu	v0,s1,s0
    7ddc:	8c43046c 	lw	v1,1132(v0)
    7de0:	26100038 	addiu	s0,s0,56
    7de4:	10600003 	beqz	v1,7df4 <HTCCleanup+0x5c>
    7de8:	00602021 	move	a0,v1
    7dec:	0260f809 	jalr	s3
    7df0:	00000000 	nop
    7df4:	1612fff9 	bne	s0,s2,7ddc <HTCCleanup+0x44>
    7df8:	02301021 	addu	v0,s1,s0
    7dfc:	02202021 	move	a0,s1
    7e00:	26990000 	addiu	t9,s4,0
			7e00: R_MIPS_LO16	kfree
    7e04:	8fbf0024 	lw	ra,36(sp)
    7e08:	8fb40020 	lw	s4,32(sp)
    7e0c:	8fb3001c 	lw	s3,28(sp)
    7e10:	8fb20018 	lw	s2,24(sp)
    7e14:	8fb10014 	lw	s1,20(sp)
    7e18:	8fb00010 	lw	s0,16(sp)
    7e1c:	03200008 	jr	t9
    7e20:	27bd0028 	addiu	sp,sp,40

00007e24 <HTCDestroy>:
    7e24:	27bdffe0 	addiu	sp,sp,-32
    7e28:	afb10014 	sw	s1,20(sp)
    7e2c:	afb00010 	sw	s0,16(sp)
    7e30:	afbf0018 	sw	ra,24(sp)
    7e34:	3c110000 	lui	s1,0x0
			7e34: R_MIPS_HI16	debughtc
    7e38:	8e220000 	lw	v0,0(s1)
			7e38: R_MIPS_LO16	debughtc
    7e3c:	00808021 	move	s0,a0
    7e40:	30420020 	andi	v0,v0,0x20
    7e44:	3c040000 	lui	a0,0x0
			7e44: R_MIPS_HI16	$LC18
    7e48:	24840000 	addiu	a0,a0,0
			7e48: R_MIPS_LO16	$LC18
    7e4c:	14400016 	bnez	v0,7ea8 <HTCDestroy+0x84>
    7e50:	02002821 	move	a1,s0
    7e54:	3c020000 	lui	v0,0x0
			7e54: R_MIPS_HI16	.text
    7e58:	24427d98 	addiu	v0,v0,32152
			7e58: R_MIPS_LO16	.text
    7e5c:	0040f809 	jalr	v0
    7e60:	02002021 	move	a0,s0
    7e64:	8e230000 	lw	v1,0(s1)
			7e64: R_MIPS_LO16	debughtc
    7e68:	3c040000 	lui	a0,0x0
			7e68: R_MIPS_HI16	$LC19
    7e6c:	30630020 	andi	v1,v1,0x20
    7e70:	14600006 	bnez	v1,7e8c <HTCDestroy+0x68>
    7e74:	24840000 	addiu	a0,a0,0
			7e74: R_MIPS_LO16	$LC19
    7e78:	8fbf0018 	lw	ra,24(sp)
    7e7c:	8fb10014 	lw	s1,20(sp)
    7e80:	8fb00010 	lw	s0,16(sp)
    7e84:	03e00008 	jr	ra
    7e88:	27bd0020 	addiu	sp,sp,32
    7e8c:	3c190000 	lui	t9,0x0
			7e8c: R_MIPS_HI16	printk
    7e90:	8fbf0018 	lw	ra,24(sp)
    7e94:	8fb10014 	lw	s1,20(sp)
    7e98:	8fb00010 	lw	s0,16(sp)
    7e9c:	27390000 	addiu	t9,t9,0
			7e9c: R_MIPS_LO16	printk
    7ea0:	03200008 	jr	t9
    7ea4:	27bd0020 	addiu	sp,sp,32
    7ea8:	3c020000 	lui	v0,0x0
			7ea8: R_MIPS_HI16	printk
    7eac:	24420000 	addiu	v0,v0,0
			7eac: R_MIPS_LO16	printk
    7eb0:	0040f809 	jalr	v0
    7eb4:	00000000 	nop
    7eb8:	08001f96 	j	7e58 <HTCDestroy+0x34>
			7eb8: R_MIPS_26	.text
    7ebc:	3c020000 	lui	v0,0x0
			7ebc: R_MIPS_HI16	.text

00007ec0 <HTCCreate>:
    7ec0:	27bdffb8 	addiu	sp,sp,-72
    7ec4:	afbe0040 	sw	s8,64(sp)
    7ec8:	afb20028 	sw	s2,40(sp)
    7ecc:	afb00020 	sw	s0,32(sp)
    7ed0:	afbf0044 	sw	ra,68(sp)
    7ed4:	afb7003c 	sw	s7,60(sp)
    7ed8:	afb60038 	sw	s6,56(sp)
    7edc:	afb50034 	sw	s5,52(sp)
    7ee0:	afb40030 	sw	s4,48(sp)
    7ee4:	afb3002c 	sw	s3,44(sp)
    7ee8:	afb10024 	sw	s1,36(sp)
    7eec:	3c1e0000 	lui	s8,0x0
			7eec: R_MIPS_HI16	debughtc
    7ef0:	8fc20000 	lw	v0,0(s8)
			7ef0: R_MIPS_LO16	debughtc
    7ef4:	00809021 	move	s2,a0
    7ef8:	30420020 	andi	v0,v0,0x20
    7efc:	14400094 	bnez	v0,8150 <HTCCreate+0x290>
    7f00:	00a08021 	move	s0,a1
    7f04:	3c020000 	lui	v0,0x0
			7f04: R_MIPS_HI16	malloc_sizes
    7f08:	8c44004c 	lw	a0,76(v0)
			7f08: R_MIPS_LO16	malloc_sizes
    7f0c:	3c020000 	lui	v0,0x0
			7f0c: R_MIPS_HI16	kmem_cache_alloc
    7f10:	24420000 	addiu	v0,v0,0
			7f10: R_MIPS_LO16	kmem_cache_alloc
    7f14:	0040f809 	jalr	v0
    7f18:	240500d0 	li	a1,208
    7f1c:	10400082 	beqz	v0,8128 <HTCCreate+0x268>
    7f20:	00408821 	move	s1,v0
    7f24:	00402021 	move	a0,v0
    7f28:	3c020000 	lui	v0,0x0
			7f28: R_MIPS_HI16	memset
    7f2c:	00002821 	move	a1,zero
    7f30:	24420000 	addiu	v0,v0,0
			7f30: R_MIPS_LO16	memset
    7f34:	0040f809 	jalr	v0
    7f38:	2406091c 	li	a2,2332
    7f3c:	3c020000 	lui	v0,0x0
			7f3c: R_MIPS_HI16	.text
    7f40:	244275a0 	addiu	v0,v0,30112
			7f40: R_MIPS_LO16	.text
    7f44:	ae2208f4 	sw	v0,2292(s1)
    7f48:	3c030000 	lui	v1,0x0
			7f48: R_MIPS_HI16	HTCRecvMessagePendingHandler
    7f4c:	24020009 	li	v0,9
    7f50:	263505fc 	addiu	s5,s1,1532
    7f54:	26340604 	addiu	s4,s1,1540
    7f58:	24630000 	addiu	v1,v1,0
			7f58: R_MIPS_LO16	HTCRecvMessagePendingHandler
    7f5c:	ae22090c 	sw	v0,2316(s1)
    7f60:	3c020000 	lui	v0,0x0
			7f60: R_MIPS_HI16	memcpy
    7f64:	26240914 	addiu	a0,s1,2324
    7f68:	ae2308f8 	sw	v1,2296(s1)
    7f6c:	ae3505fc 	sw	s5,1532(s1)
    7f70:	ae350600 	sw	s5,1536(s1)
    7f74:	ae340604 	sw	s4,1540(s1)
    7f78:	ae340608 	sw	s4,1544(s1)
    7f7c:	ae320634 	sw	s2,1588(s1)
    7f80:	ae310648 	sw	s1,1608(s1)
    7f84:	02002821 	move	a1,s0
    7f88:	24420000 	addiu	v0,v0,0
			7f88: R_MIPS_LO16	memcpy
    7f8c:	0040f809 	jalr	v0
    7f90:	24060008 	li	a2,8
    7f94:	3c020000 	lui	v0,0x0
			7f94: R_MIPS_HI16	DevSetup
    7f98:	24420000 	addiu	v0,v0,0
			7f98: R_MIPS_LO16	DevSetup
    7f9c:	0040f809 	jalr	v0
    7fa0:	26240620 	addiu	a0,s1,1568
    7fa4:	1040001c 	beqz	v0,8018 <HTCCreate+0x158>
    7fa8:	3c020000 	lui	v0,0x0
			7fa8: R_MIPS_HI16	HIFConfigureDevice
    7fac:	3c020000 	lui	v0,0x0
			7fac: R_MIPS_HI16	.text
    7fb0:	24427d98 	addiu	v0,v0,32152
			7fb0: R_MIPS_LO16	.text
    7fb4:	0040f809 	jalr	v0
    7fb8:	02202021 	move	a0,s1
    7fbc:	00008821 	move	s1,zero
    7fc0:	8fc20000 	lw	v0,0(s8)
			7fc0: R_MIPS_LO16	debughtc
    7fc4:	30420020 	andi	v0,v0,0x20
    7fc8:	10400007 	beqz	v0,7fe8 <HTCCreate+0x128>
    7fcc:	02201021 	move	v0,s1
    7fd0:	3c040000 	lui	a0,0x0
			7fd0: R_MIPS_HI16	$LC23
    7fd4:	3c020000 	lui	v0,0x0
			7fd4: R_MIPS_HI16	printk
    7fd8:	24420000 	addiu	v0,v0,0
			7fd8: R_MIPS_LO16	printk
    7fdc:	0040f809 	jalr	v0
    7fe0:	24840000 	addiu	a0,a0,0
			7fe0: R_MIPS_LO16	$LC23
    7fe4:	02201021 	move	v0,s1
    7fe8:	8fbf0044 	lw	ra,68(sp)
    7fec:	8fbe0040 	lw	s8,64(sp)
    7ff0:	8fb7003c 	lw	s7,60(sp)
    7ff4:	8fb60038 	lw	s6,56(sp)
    7ff8:	8fb50034 	lw	s5,52(sp)
    7ffc:	8fb40030 	lw	s4,48(sp)
    8000:	8fb3002c 	lw	s3,44(sp)
    8004:	8fb20028 	lw	s2,40(sp)
    8008:	8fb10024 	lw	s1,36(sp)
    800c:	8fb00020 	lw	s0,32(sp)
    8010:	03e00008 	jr	ra
    8014:	27bd0048 	addiu	sp,sp,72
    8018:	02402021 	move	a0,s2
    801c:	24050001 	li	a1,1
    8020:	27a60010 	addiu	a2,sp,16
    8024:	24420000 	addiu	v0,v0,0
			8024: R_MIPS_LO16	HIFConfigureDevice
    8028:	0040f809 	jalr	v0
    802c:	24070010 	li	a3,16
    8030:	1440004e 	bnez	v0,816c <HTCCreate+0x2ac>
    8034:	8fc20000 	lw	v0,0(s8)
			8034: R_MIPS_LO16	debughtc
    8038:	8fa40014 	lw	a0,20(sp)
    803c:	2c820101 	sltiu	v0,a0,257
    8040:	10400002 	beqz	v0,804c <HTCCreate+0x18c>
    8044:	24960006 	addiu	s6,a0,6
    8048:	24160106 	li	s6,262
    804c:	3c020000 	lui	v0,0x0
			804c: R_MIPS_HI16	__kmalloc
    8050:	24570000 	addiu	s7,v0,0
			8050: R_MIPS_LO16	__kmalloc
    8054:	02208021 	move	s0,s1
    8058:	00009021 	move	s2,zero
    805c:	24130008 	li	s3,8
    8060:	02c02021 	move	a0,s6
    8064:	02e0f809 	jalr	s7
    8068:	240500d0 	li	a1,208
    806c:	ae02046c 	sw	v0,1132(s0)
    8070:	26520001 	addiu	s2,s2,1
    8074:	10400046 	beqz	v0,8190 <HTCCreate+0x2d0>
    8078:	26100038 	addiu	s0,s0,56
    807c:	1653fff9 	bne	s2,s3,8064 <HTCCreate+0x1a4>
    8080:	02c02021 	move	a0,s6
    8084:	02209021 	move	s2,s1
    8088:	00009821 	move	s3,zero
    808c:	24170006 	li	s7,6
    8090:	26300438 	addiu	s0,s1,1080
    8094:	ae110008 	sw	s1,8(s0)
    8098:	8e42046c 	lw	v0,1132(s2)
    809c:	02002821 	move	a1,s0
    80a0:	ae020010 	sw	v0,16(s0)
    80a4:	8e43046c 	lw	v1,1132(s2)
    80a8:	3c020000 	lui	v0,0x0
			80a8: R_MIPS_HI16	HTCFreeControlBuffer
    80ac:	ae160014 	sw	s6,20(s0)
    80b0:	ae030010 	sw	v1,16(s0)
    80b4:	ae03000c 	sw	v1,12(s0)
    80b8:	ae00001c 	sw	zero,28(s0)
    80bc:	02202021 	move	a0,s1
    80c0:	02803021 	move	a2,s4
    80c4:	24420000 	addiu	v0,v0,0
			80c4: R_MIPS_LO16	HTCFreeControlBuffer
    80c8:	0040f809 	jalr	v0
    80cc:	26730001 	addiu	s3,s3,1
    80d0:	26100038 	addiu	s0,s0,56
    80d4:	1677ffef 	bne	s3,s7,8094 <HTCCreate+0x1d4>
    80d8:	26520038 	addiu	s2,s2,56
    80dc:	3c020000 	lui	v0,0x0
			80dc: R_MIPS_HI16	HTCFreeControlBuffer
    80e0:	24570000 	addiu	s7,v0,0
			80e0: R_MIPS_LO16	HTCFreeControlBuffer
    80e4:	24130006 	li	s3,6
    80e8:	02209021 	move	s2,s1
    80ec:	24140008 	li	s4,8
    80f0:	26300588 	addiu	s0,s1,1416
    80f4:	8e4205bc 	lw	v0,1468(s2)
    80f8:	02002821 	move	a1,s0
    80fc:	ae02000c 	sw	v0,12(s0)
    8100:	ae160014 	sw	s6,20(s0)
    8104:	02202021 	move	a0,s1
    8108:	02a03021 	move	a2,s5
    810c:	02e0f809 	jalr	s7
    8110:	26730001 	addiu	s3,s3,1
    8114:	26100038 	addiu	s0,s0,56
    8118:	1674fff6 	bne	s3,s4,80f4 <HTCCreate+0x234>
    811c:	26520038 	addiu	s2,s2,56
    8120:	08001ff1 	j	7fc4 <HTCCreate+0x104>
			8120: R_MIPS_26	.text
    8124:	8fc20000 	lw	v0,0(s8)
			8124: R_MIPS_LO16	debughtc
    8128:	8fc20000 	lw	v0,0(s8)
			8128: R_MIPS_LO16	debughtc
    812c:	30420080 	andi	v0,v0,0x80
    8130:	1040ffa3 	beqz	v0,7fc0 <HTCCreate+0x100>
    8134:	3c020000 	lui	v0,0x0
			8134: R_MIPS_HI16	printk
    8138:	3c040000 	lui	a0,0x0
			8138: R_MIPS_HI16	$LC21
    813c:	24420000 	addiu	v0,v0,0
			813c: R_MIPS_LO16	printk
    8140:	0040f809 	jalr	v0
    8144:	24840000 	addiu	a0,a0,0
			8144: R_MIPS_LO16	$LC21
    8148:	08001ff1 	j	7fc4 <HTCCreate+0x104>
			8148: R_MIPS_26	.text
    814c:	8fc20000 	lw	v0,0(s8)
			814c: R_MIPS_LO16	debughtc
    8150:	3c040000 	lui	a0,0x0
			8150: R_MIPS_HI16	$LC20
    8154:	3c020000 	lui	v0,0x0
			8154: R_MIPS_HI16	printk
    8158:	24420000 	addiu	v0,v0,0
			8158: R_MIPS_LO16	printk
    815c:	0040f809 	jalr	v0
    8160:	24840000 	addiu	a0,a0,0
			8160: R_MIPS_LO16	$LC20
    8164:	08001fc2 	j	7f08 <HTCCreate+0x48>
			8164: R_MIPS_26	.text
    8168:	3c020000 	lui	v0,0x0
			8168: R_MIPS_HI16	malloc_sizes
    816c:	30420080 	andi	v0,v0,0x80
    8170:	1040ff8e 	beqz	v0,7fac <HTCCreate+0xec>
    8174:	3c040000 	lui	a0,0x0
			8174: R_MIPS_HI16	$LC22
    8178:	3c020000 	lui	v0,0x0
			8178: R_MIPS_HI16	printk
    817c:	24420000 	addiu	v0,v0,0
			817c: R_MIPS_LO16	printk
    8180:	0040f809 	jalr	v0
    8184:	24840000 	addiu	a0,a0,0
			8184: R_MIPS_LO16	$LC22
    8188:	08001fec 	j	7fb0 <HTCCreate+0xf0>
			8188: R_MIPS_26	.text
    818c:	3c020000 	lui	v0,0x0
			818c: R_MIPS_HI16	.text
    8190:	8fc20000 	lw	v0,0(s8)
			8190: R_MIPS_LO16	debughtc
    8194:	30420080 	andi	v0,v0,0x80
    8198:	1040ff84 	beqz	v0,7fac <HTCCreate+0xec>
    819c:	3c040000 	lui	a0,0x0
			819c: R_MIPS_HI16	$LC21
    81a0:	3c020000 	lui	v0,0x0
			81a0: R_MIPS_HI16	printk
    81a4:	24420000 	addiu	v0,v0,0
			81a4: R_MIPS_LO16	printk
    81a8:	0040f809 	jalr	v0
    81ac:	24840000 	addiu	a0,a0,0
			81ac: R_MIPS_LO16	$LC21
    81b0:	08001fec 	j	7fb0 <HTCCreate+0xf0>
			81b0: R_MIPS_26	.text
    81b4:	3c020000 	lui	v0,0x0
			81b4: R_MIPS_HI16	.text
	...

000081c0 <BMIInit>:
    81c0:	3c020000 	lui	v0,0x0
			81c0: R_MIPS_HI16	bmiDone
    81c4:	3c030000 	lui	v1,0x0
			81c4: R_MIPS_HI16	.bss
    81c8:	ac400000 	sw	zero,0(v0)
			81c8: R_MIPS_LO16	bmiDone
    81cc:	03e00008 	jr	ra
    81d0:	ac6002d4 	sw	zero,724(v1)
			81d0: R_MIPS_LO16	.bss

000081d4 <bmiBufferReceive>:
    81d4:	27bdffa0 	addiu	sp,sp,-96
    81d8:	afbe0058 	sw	s8,88(sp)
    81dc:	afb60050 	sw	s6,80(sp)
    81e0:	afb40048 	sw	s4,72(sp)
    81e4:	afb30044 	sw	s3,68(sp)
    81e8:	afb1003c 	sw	s1,60(sp)
    81ec:	afbf005c 	sw	ra,92(sp)
    81f0:	afb70054 	sw	s7,84(sp)
    81f4:	afb5004c 	sw	s5,76(sp)
    81f8:	afb20040 	sw	s2,64(sp)
    81fc:	afb00038 	sw	s0,56(sp)
    8200:	3c110000 	lui	s1,0x0
			8200: R_MIPS_HI16	.bss
    8204:	8e2202d4 	lw	v0,724(s1)
			8204: R_MIPS_LO16	.bss
    8208:	00a0f021 	move	s8,a1
    820c:	00c0b021 	move	s6,a2
    8210:	00e0a021 	move	s4,a3
    8214:	1040006d 	beqz	v0,83cc <bmiBufferReceive+0x1f8>
    8218:	00809821 	move	s3,a0
    821c:	3c100000 	lui	s0,0x0
			821c: R_MIPS_HI16	HIFConfigureDevice
    8220:	26020000 	addiu	v0,s0,0
			8220: R_MIPS_LO16	HIFConfigureDevice
    8224:	02602021 	move	a0,s3
    8228:	24050002 	li	a1,2
    822c:	27a60024 	addiu	a2,sp,36
    8230:	0040f809 	jalr	v0
    8234:	24070010 	li	a3,16
    8238:	2ec30004 	sltiu	v1,s6,4
    823c:	14600027 	bnez	v1,82dc <bmiBufferReceive+0x108>
    8240:	3c020001 	lui	v0,0x1
    8244:	345186a0 	ori	s1,v0,0x86a0
    8248:	3c120000 	lui	s2,0x0
			8248: R_MIPS_HI16	.bss
    824c:	3c020000 	lui	v0,0x0
			824c: R_MIPS_HI16	HIFReadWrite
    8250:	24550000 	addiu	s5,v0,0
			8250: R_MIPS_LO16	HIFReadWrite
    8254:	3c170000 	lui	s7,0x0
			8254: R_MIPS_HI16	debughtc
    8258:	ae4002d8 	sw	zero,728(s2)
			8258: R_MIPS_LO16	.bss
    825c:	02602021 	move	a0,s3
    8260:	27a50018 	addiu	a1,sp,24
    8264:	00003021 	move	a2,zero
    8268:	12800005 	beqz	s4,8280 <bmiBufferReceive+0xac>
    826c:	24070004 	li	a3,4
    8270:	2631ffff 	addiu	s1,s1,-1
    8274:	2402ffff 	li	v0,-1
    8278:	12220046 	beq	s1,v0,8394 <bmiBufferReceive+0x1c0>
    827c:	8e4202d8 	lw	v0,728(s2)
			827c: R_MIPS_LO16	.bss
    8280:	8e4202d8 	lw	v0,728(s2)
			8280: R_MIPS_LO16	.bss
    8284:	14400015 	bnez	v0,82dc <bmiBufferReceive+0x108>
    8288:	3c100000 	lui	s0,0x0
			8288: R_MIPS_HI16	.bss
    828c:	3c020000 	lui	v0,0x0
			828c: R_MIPS_HI16	.bss
    8290:	8c4202dc 	lw	v0,732(v0)
			8290: R_MIPS_LO16	.bss
    8294:	10400029 	beqz	v0,833c <bmiBufferReceive+0x168>
    8298:	00000000 	nop
    829c:	0040f809 	jalr	v0
    82a0:	00000000 	nop
    82a4:	14400031 	bnez	v0,836c <bmiBufferReceive+0x198>
    82a8:	8fa20020 	lw	v0,32(sp)
    82ac:	2c420004 	sltiu	v0,v0,4
    82b0:	1440ffeb 	bnez	v0,8260 <bmiBufferReceive+0x8c>
    82b4:	02602021 	move	a0,s3
    82b8:	24020001 	li	v0,1
    82bc:	ae0202d8 	sw	v0,728(s0)
			82bc: R_MIPS_LO16	.bss
    82c0:	27a50018 	addiu	a1,sp,24
    82c4:	00003021 	move	a2,zero
    82c8:	1680ffe9 	bnez	s4,8270 <bmiBufferReceive+0x9c>
    82cc:	24070004 	li	a3,4
    82d0:	8e4202d8 	lw	v0,728(s2)
			82d0: R_MIPS_LO16	.bss
    82d4:	1040ffed 	beqz	v0,828c <bmiBufferReceive+0xb8>
    82d8:	3c100000 	lui	s0,0x0
			82d8: R_MIPS_HI16	.bss
    82dc:	24020259 	li	v0,601
    82e0:	afa20010 	sw	v0,16(sp)
    82e4:	8fa50024 	lw	a1,36(sp)
    82e8:	3c020000 	lui	v0,0x0
			82e8: R_MIPS_HI16	HIFReadWrite
    82ec:	02602021 	move	a0,s3
    82f0:	03c03021 	move	a2,s8
    82f4:	02c03821 	move	a3,s6
    82f8:	24420000 	addiu	v0,v0,0
			82f8: R_MIPS_LO16	HIFReadWrite
    82fc:	0040f809 	jalr	v0
    8300:	afa00014 	sw	zero,20(sp)
    8304:	14400052 	bnez	v0,8450 <bmiBufferReceive+0x27c>
    8308:	3c030000 	lui	v1,0x0
			8308: R_MIPS_HI16	debughtc
    830c:	8fbf005c 	lw	ra,92(sp)
    8310:	8fbe0058 	lw	s8,88(sp)
    8314:	8fb70054 	lw	s7,84(sp)
    8318:	8fb60050 	lw	s6,80(sp)
    831c:	8fb5004c 	lw	s5,76(sp)
    8320:	8fb40048 	lw	s4,72(sp)
    8324:	8fb30044 	lw	s3,68(sp)
    8328:	8fb20040 	lw	s2,64(sp)
    832c:	8fb1003c 	lw	s1,60(sp)
    8330:	8fb00038 	lw	s0,56(sp)
    8334:	03e00008 	jr	ra
    8338:	27bd0060 	addiu	sp,sp,96
    833c:	24020259 	li	v0,601
    8340:	02602021 	move	a0,s3
    8344:	24050405 	li	a1,1029
    8348:	260602d8 	addiu	a2,s0,728
			8348: R_MIPS_LO16	.bss
    834c:	afa20010 	sw	v0,16(sp)
    8350:	02a0f809 	jalr	s5
    8354:	afa00014 	sw	zero,20(sp)
    8358:	14400026 	bnez	v0,83f4 <bmiBufferReceive+0x220>
    835c:	8e0202d8 	lw	v0,728(s0)
			835c: R_MIPS_LO16	.bss
    8360:	30420001 	andi	v0,v0,0x1
    8364:	08002097 	j	825c <bmiBufferReceive+0x88>
			8364: R_MIPS_26	.text
    8368:	ae0202d8 	sw	v0,728(s0)
			8368: R_MIPS_LO16	.bss
    836c:	8ee20000 	lw	v0,0(s7)
			836c: R_MIPS_LO16	debughtc
    8370:	30420080 	andi	v0,v0,0x80
    8374:	10400007 	beqz	v0,8394 <bmiBufferReceive+0x1c0>
    8378:	8e4202d8 	lw	v0,728(s2)
			8378: R_MIPS_LO16	.bss
    837c:	3c040000 	lui	a0,0x0
			837c: R_MIPS_HI16	$LC0
    8380:	3c030000 	lui	v1,0x0
			8380: R_MIPS_HI16	printk
    8384:	24630000 	addiu	v1,v1,0
			8384: R_MIPS_LO16	printk
    8388:	0060f809 	jalr	v1
    838c:	24840000 	addiu	a0,a0,0
			838c: R_MIPS_LO16	$LC0
    8390:	8e4202d8 	lw	v0,728(s2)
			8390: R_MIPS_LO16	.bss
    8394:	1440ffd2 	bnez	v0,82e0 <bmiBufferReceive+0x10c>
    8398:	24020259 	li	v0,601
    839c:	3c030000 	lui	v1,0x0
			839c: R_MIPS_HI16	debughtc
    83a0:	8c620000 	lw	v0,0(v1)
			83a0: R_MIPS_LO16	debughtc
    83a4:	30420110 	andi	v0,v0,0x110
    83a8:	10400017 	beqz	v0,8408 <bmiBufferReceive+0x234>
    83ac:	8fbf005c 	lw	ra,92(sp)
    83b0:	3c040000 	lui	a0,0x0
			83b0: R_MIPS_HI16	$LC2
    83b4:	3c020000 	lui	v0,0x0
			83b4: R_MIPS_HI16	printk
    83b8:	24420000 	addiu	v0,v0,0
			83b8: R_MIPS_LO16	printk
    83bc:	0040f809 	jalr	v0
    83c0:	24840000 	addiu	a0,a0,0
			83c0: R_MIPS_LO16	$LC2
    83c4:	080020c3 	j	830c <bmiBufferReceive+0x138>
			83c4: R_MIPS_26	.text
    83c8:	2402ffff 	li	v0,-1
    83cc:	3c100000 	lui	s0,0x0
			83cc: R_MIPS_HI16	HIFConfigureDevice
    83d0:	3c060000 	lui	a2,0x0
			83d0: R_MIPS_HI16	.bss
    83d4:	24c602dc 	addiu	a2,a2,732
			83d4: R_MIPS_LO16	.bss
    83d8:	24050003 	li	a1,3
    83dc:	26020000 	addiu	v0,s0,0
			83dc: R_MIPS_LO16	HIFConfigureDevice
    83e0:	0040f809 	jalr	v0
    83e4:	24070004 	li	a3,4
    83e8:	24030001 	li	v1,1
    83ec:	08002088 	j	8220 <bmiBufferReceive+0x4c>
			83ec: R_MIPS_26	.text
    83f0:	ae2302d4 	sw	v1,724(s1)
			83f0: R_MIPS_LO16	.bss
    83f4:	8ee20000 	lw	v0,0(s7)
			83f4: R_MIPS_LO16	debughtc
    83f8:	30420080 	andi	v0,v0,0x80
    83fc:	1440000e 	bnez	v0,8438 <bmiBufferReceive+0x264>
    8400:	3c040000 	lui	a0,0x0
			8400: R_MIPS_HI16	$LC1
    8404:	8fbf005c 	lw	ra,92(sp)
    8408:	8fbe0058 	lw	s8,88(sp)
    840c:	8fb70054 	lw	s7,84(sp)
    8410:	8fb60050 	lw	s6,80(sp)
    8414:	8fb5004c 	lw	s5,76(sp)
    8418:	8fb40048 	lw	s4,72(sp)
    841c:	8fb30044 	lw	s3,68(sp)
    8420:	8fb20040 	lw	s2,64(sp)
    8424:	8fb1003c 	lw	s1,60(sp)
    8428:	8fb00038 	lw	s0,56(sp)
    842c:	2402ffff 	li	v0,-1
    8430:	03e00008 	jr	ra
    8434:	27bd0060 	addiu	sp,sp,96
    8438:	3c030000 	lui	v1,0x0
			8438: R_MIPS_HI16	printk
    843c:	24630000 	addiu	v1,v1,0
			843c: R_MIPS_LO16	printk
    8440:	0060f809 	jalr	v1
    8444:	24840000 	addiu	a0,a0,0
			8444: R_MIPS_LO16	$LC1
    8448:	080020c3 	j	830c <bmiBufferReceive+0x138>
			8448: R_MIPS_26	.text
    844c:	2402ffff 	li	v0,-1
    8450:	8c620000 	lw	v0,0(v1)
			8450: R_MIPS_LO16	debughtc
    8454:	30420080 	andi	v0,v0,0x80
    8458:	1040ffeb 	beqz	v0,8408 <bmiBufferReceive+0x234>
    845c:	8fbf005c 	lw	ra,92(sp)
    8460:	3c040000 	lui	a0,0x0
			8460: R_MIPS_HI16	$LC3
    8464:	3c020000 	lui	v0,0x0
			8464: R_MIPS_HI16	printk
    8468:	24420000 	addiu	v0,v0,0
			8468: R_MIPS_LO16	printk
    846c:	0040f809 	jalr	v0
    8470:	24840000 	addiu	a0,a0,0
			8470: R_MIPS_LO16	$LC3
    8474:	080020c3 	j	830c <bmiBufferReceive+0x138>
			8474: R_MIPS_26	.text
    8478:	2402ffff 	li	v0,-1

0000847c <bmiBufferSend>:
    847c:	27bdffb0 	addiu	sp,sp,-80
    8480:	3c020000 	lui	v0,0x0
			8480: R_MIPS_HI16	HIFConfigureDevice
    8484:	afb70044 	sw	s7,68(sp)
    8488:	afb60040 	sw	s6,64(sp)
    848c:	afb5003c 	sw	s5,60(sp)
    8490:	afb40038 	sw	s4,56(sp)
    8494:	afb30034 	sw	s3,52(sp)
    8498:	afb20030 	sw	s2,48(sp)
    849c:	afb1002c 	sw	s1,44(sp)
    84a0:	afb00028 	sw	s0,40(sp)
    84a4:	afbf0048 	sw	ra,72(sp)
    84a8:	00a0b021 	move	s6,a1
    84ac:	00c0b821 	move	s7,a2
    84b0:	24050002 	li	a1,2
    84b4:	27a60018 	addiu	a2,sp,24
    84b8:	24070010 	li	a3,16
    84bc:	24420000 	addiu	v0,v0,0
			84bc: R_MIPS_LO16	HIFConfigureDevice
    84c0:	3c110000 	lui	s1,0x0
			84c0: R_MIPS_HI16	.bss
    84c4:	0040f809 	jalr	v0
    84c8:	0080a821 	move	s5,a0
    84cc:	3c020001 	lui	v0,0x1
    84d0:	ae2002e0 	sw	zero,736(s1)
			84d0: R_MIPS_LO16	.bss
    84d4:	3450869f 	ori	s0,v0,0x869f
    84d8:	263302e0 	addiu	s3,s1,736
			84d8: R_MIPS_LO16	.bss
    84dc:	3c140000 	lui	s4,0x0
			84dc: R_MIPS_HI16	HIFReadWrite
    84e0:	24120259 	li	s2,601
    84e4:	02a02021 	move	a0,s5
    84e8:	24050450 	li	a1,1104
    84ec:	02603021 	move	a2,s3
    84f0:	24070004 	li	a3,4
    84f4:	26820000 	addiu	v0,s4,0
			84f4: R_MIPS_LO16	HIFReadWrite
    84f8:	afb20010 	sw	s2,16(sp)
    84fc:	0040f809 	jalr	v0
    8500:	afa00014 	sw	zero,20(sp)
    8504:	1440001d 	bnez	v0,857c <bmiBufferSend+0x100>
    8508:	2610ffff 	addiu	s0,s0,-1
    850c:	922302e0 	lbu	v1,736(s1)
			850c: R_MIPS_LO16	.bss
    8510:	2402ffff 	li	v0,-1
    8514:	1202002a 	beq	s0,v0,85c0 <bmiBufferSend+0x144>
    8518:	ae2302e0 	sw	v1,736(s1)
			8518: R_MIPS_LO16	.bss
    851c:	1060fff2 	beqz	v1,84e8 <bmiBufferSend+0x6c>
    8520:	02a02021 	move	a0,s5
    8524:	2403025a 	li	v1,602
    8528:	8fa50018 	lw	a1,24(sp)
    852c:	02a02021 	move	a0,s5
    8530:	02c03021 	move	a2,s6
    8534:	02e03821 	move	a3,s7
    8538:	26820000 	addiu	v0,s4,0
			8538: R_MIPS_LO16	HIFReadWrite
    853c:	afa30010 	sw	v1,16(sp)
    8540:	0040f809 	jalr	v0
    8544:	afa00014 	sw	zero,20(sp)
    8548:	14400033 	bnez	v0,8618 <bmiBufferSend+0x19c>
    854c:	3c030000 	lui	v1,0x0
			854c: R_MIPS_HI16	debughtc
    8550:	8fbf0048 	lw	ra,72(sp)
    8554:	8fb70044 	lw	s7,68(sp)
    8558:	8fb60040 	lw	s6,64(sp)
    855c:	8fb5003c 	lw	s5,60(sp)
    8560:	8fb40038 	lw	s4,56(sp)
    8564:	8fb30034 	lw	s3,52(sp)
    8568:	8fb20030 	lw	s2,48(sp)
    856c:	8fb1002c 	lw	s1,44(sp)
    8570:	8fb00028 	lw	s0,40(sp)
    8574:	03e00008 	jr	ra
    8578:	27bd0050 	addiu	sp,sp,80
    857c:	3c030000 	lui	v1,0x0
			857c: R_MIPS_HI16	debughtc
    8580:	8c620000 	lw	v0,0(v1)
			8580: R_MIPS_LO16	debughtc
    8584:	30420080 	andi	v0,v0,0x80
    8588:	1440001b 	bnez	v0,85f8 <bmiBufferSend+0x17c>
    858c:	3c040000 	lui	a0,0x0
			858c: R_MIPS_HI16	$LC4
    8590:	8fbf0048 	lw	ra,72(sp)
    8594:	8fb70044 	lw	s7,68(sp)
    8598:	8fb60040 	lw	s6,64(sp)
    859c:	8fb5003c 	lw	s5,60(sp)
    85a0:	8fb40038 	lw	s4,56(sp)
    85a4:	8fb30034 	lw	s3,52(sp)
    85a8:	8fb20030 	lw	s2,48(sp)
    85ac:	8fb1002c 	lw	s1,44(sp)
    85b0:	8fb00028 	lw	s0,40(sp)
    85b4:	2402ffff 	li	v0,-1
    85b8:	03e00008 	jr	ra
    85bc:	27bd0050 	addiu	sp,sp,80
    85c0:	1460ffd9 	bnez	v1,8528 <bmiBufferSend+0xac>
    85c4:	2403025a 	li	v1,602
    85c8:	3c030000 	lui	v1,0x0
			85c8: R_MIPS_HI16	debughtc
    85cc:	8c620000 	lw	v0,0(v1)
			85cc: R_MIPS_LO16	debughtc
    85d0:	30420080 	andi	v0,v0,0x80
    85d4:	1040ffef 	beqz	v0,8594 <bmiBufferSend+0x118>
    85d8:	8fbf0048 	lw	ra,72(sp)
    85dc:	3c040000 	lui	a0,0x0
			85dc: R_MIPS_HI16	$LC6
    85e0:	3c020000 	lui	v0,0x0
			85e0: R_MIPS_HI16	printk
    85e4:	24420000 	addiu	v0,v0,0
			85e4: R_MIPS_LO16	printk
    85e8:	0040f809 	jalr	v0
    85ec:	24840000 	addiu	a0,a0,0
			85ec: R_MIPS_LO16	$LC6
    85f0:	08002154 	j	8550 <bmiBufferSend+0xd4>
			85f0: R_MIPS_26	.text
    85f4:	2402ffff 	li	v0,-1
    85f8:	3c050000 	lui	a1,0x0
			85f8: R_MIPS_HI16	.rodata
    85fc:	3c020000 	lui	v0,0x0
			85fc: R_MIPS_HI16	printk
    8600:	24840000 	addiu	a0,a0,0
			8600: R_MIPS_LO16	$LC4
    8604:	24420000 	addiu	v0,v0,0
			8604: R_MIPS_LO16	printk
    8608:	0040f809 	jalr	v0
    860c:	24a50070 	addiu	a1,a1,112
			860c: R_MIPS_LO16	.rodata
    8610:	08002154 	j	8550 <bmiBufferSend+0xd4>
			8610: R_MIPS_26	.text
    8614:	2402ffff 	li	v0,-1
    8618:	8c620000 	lw	v0,0(v1)
			8618: R_MIPS_LO16	debughtc
    861c:	30420080 	andi	v0,v0,0x80
    8620:	1040ffdc 	beqz	v0,8594 <bmiBufferSend+0x118>
    8624:	8fbf0048 	lw	ra,72(sp)
    8628:	3c040000 	lui	a0,0x0
			8628: R_MIPS_HI16	$LC5
    862c:	3c020000 	lui	v0,0x0
			862c: R_MIPS_HI16	printk
    8630:	24420000 	addiu	v0,v0,0
			8630: R_MIPS_LO16	printk
    8634:	0040f809 	jalr	v0
    8638:	24840000 	addiu	a0,a0,0
			8638: R_MIPS_LO16	$LC5
    863c:	08002154 	j	8550 <bmiBufferSend+0xd4>
			863c: R_MIPS_26	.text
    8640:	2402ffff 	li	v0,-1

00008644 <BMIDone>:
    8644:	27bdffd8 	addiu	sp,sp,-40
    8648:	afb20020 	sw	s2,32(sp)
    864c:	afb1001c 	sw	s1,28(sp)
    8650:	afbf0024 	sw	ra,36(sp)
    8654:	afb00018 	sw	s0,24(sp)
    8658:	3c110000 	lui	s1,0x0
			8658: R_MIPS_HI16	bmiDone
    865c:	8e220000 	lw	v0,0(s1)
			865c: R_MIPS_LO16	bmiDone
    8660:	1040000d 	beqz	v0,8698 <BMIDone+0x54>
    8664:	00809021 	move	s2,a0
    8668:	3c030000 	lui	v1,0x0
			8668: R_MIPS_HI16	debughtc
    866c:	8c620000 	lw	v0,0(v1)
			866c: R_MIPS_LO16	debughtc
    8670:	30420110 	andi	v0,v0,0x110
    8674:	14400026 	bnez	v0,8710 <BMIDone+0xcc>
    8678:	3c020000 	lui	v0,0x0
			8678: R_MIPS_HI16	printk
    867c:	00001021 	move	v0,zero
    8680:	8fbf0024 	lw	ra,36(sp)
    8684:	8fb20020 	lw	s2,32(sp)
    8688:	8fb1001c 	lw	s1,28(sp)
    868c:	8fb00018 	lw	s0,24(sp)
    8690:	03e00008 	jr	ra
    8694:	27bd0028 	addiu	sp,sp,40
    8698:	3c100000 	lui	s0,0x0
			8698: R_MIPS_HI16	debughtc
    869c:	8e020000 	lw	v0,0(s0)
			869c: R_MIPS_LO16	debughtc
    86a0:	30420110 	andi	v0,v0,0x110
    86a4:	14400025 	bnez	v0,873c <BMIDone+0xf8>
    86a8:	24020001 	li	v0,1
    86ac:	ae220000 	sw	v0,0(s1)
			86ac: R_MIPS_LO16	bmiDone
    86b0:	afa20010 	sw	v0,16(sp)
    86b4:	3c020000 	lui	v0,0x0
			86b4: R_MIPS_HI16	bmiBufferSend
    86b8:	02402021 	move	a0,s2
    86bc:	27a50010 	addiu	a1,sp,16
    86c0:	24420000 	addiu	v0,v0,0
			86c0: R_MIPS_LO16	bmiBufferSend
    86c4:	0040f809 	jalr	v0
    86c8:	24060004 	li	a2,4
    86cc:	1440002c 	bnez	v0,8780 <BMIDone+0x13c>
    86d0:	8e020000 	lw	v0,0(s0)
			86d0: R_MIPS_LO16	debughtc
    86d4:	30420110 	andi	v0,v0,0x110
    86d8:	1040ffe9 	beqz	v0,8680 <BMIDone+0x3c>
    86dc:	00001021 	move	v0,zero
    86e0:	3c040000 	lui	a0,0x0
			86e0: R_MIPS_HI16	$LC10
    86e4:	3c020000 	lui	v0,0x0
			86e4: R_MIPS_HI16	printk
    86e8:	24420000 	addiu	v0,v0,0
			86e8: R_MIPS_LO16	printk
    86ec:	0040f809 	jalr	v0
    86f0:	24840000 	addiu	a0,a0,0
			86f0: R_MIPS_LO16	$LC10
    86f4:	8fbf0024 	lw	ra,36(sp)
    86f8:	8fb20020 	lw	s2,32(sp)
    86fc:	8fb1001c 	lw	s1,28(sp)
    8700:	8fb00018 	lw	s0,24(sp)
    8704:	00001021 	move	v0,zero
    8708:	03e00008 	jr	ra
    870c:	27bd0028 	addiu	sp,sp,40
    8710:	3c040000 	lui	a0,0x0
			8710: R_MIPS_HI16	$LC7
    8714:	24420000 	addiu	v0,v0,0
			8714: R_MIPS_LO16	printk
    8718:	0040f809 	jalr	v0
    871c:	24840000 	addiu	a0,a0,0
			871c: R_MIPS_LO16	$LC7
    8720:	8fbf0024 	lw	ra,36(sp)
    8724:	8fb20020 	lw	s2,32(sp)
    8728:	8fb1001c 	lw	s1,28(sp)
    872c:	8fb00018 	lw	s0,24(sp)
    8730:	00001021 	move	v0,zero
    8734:	03e00008 	jr	ra
    8738:	27bd0028 	addiu	sp,sp,40
    873c:	3c040000 	lui	a0,0x0
			873c: R_MIPS_HI16	$LC8
    8740:	3c020000 	lui	v0,0x0
			8740: R_MIPS_HI16	printk
    8744:	24840000 	addiu	a0,a0,0
			8744: R_MIPS_LO16	$LC8
    8748:	24420000 	addiu	v0,v0,0
			8748: R_MIPS_LO16	printk
    874c:	0040f809 	jalr	v0
    8750:	02402821 	move	a1,s2
    8754:	24020001 	li	v0,1
    8758:	ae220000 	sw	v0,0(s1)
			8758: R_MIPS_LO16	bmiDone
    875c:	afa20010 	sw	v0,16(sp)
    8760:	3c020000 	lui	v0,0x0
			8760: R_MIPS_HI16	bmiBufferSend
    8764:	02402021 	move	a0,s2
    8768:	27a50010 	addiu	a1,sp,16
    876c:	24420000 	addiu	v0,v0,0
			876c: R_MIPS_LO16	bmiBufferSend
    8770:	0040f809 	jalr	v0
    8774:	24060004 	li	a2,4
    8778:	1040ffd6 	beqz	v0,86d4 <BMIDone+0x90>
    877c:	8e020000 	lw	v0,0(s0)
			877c: R_MIPS_LO16	debughtc
    8780:	30420080 	andi	v0,v0,0x80
    8784:	14400003 	bnez	v0,8794 <BMIDone+0x150>
    8788:	00000000 	nop
    878c:	080021a0 	j	8680 <BMIDone+0x3c>
			878c: R_MIPS_26	.text
    8790:	2402ffff 	li	v0,-1
    8794:	3c040000 	lui	a0,0x0
			8794: R_MIPS_HI16	$LC9
    8798:	3c020000 	lui	v0,0x0
			8798: R_MIPS_HI16	printk
    879c:	24420000 	addiu	v0,v0,0
			879c: R_MIPS_LO16	printk
    87a0:	0040f809 	jalr	v0
    87a4:	24840000 	addiu	a0,a0,0
			87a4: R_MIPS_LO16	$LC9
    87a8:	080021a0 	j	8680 <BMIDone+0x3c>
			87a8: R_MIPS_26	.text
    87ac:	2402ffff 	li	v0,-1

000087b0 <BMILZStreamStart>:
    87b0:	27bdffd0 	addiu	sp,sp,-48
    87b4:	afb30024 	sw	s3,36(sp)
    87b8:	afbf0028 	sw	ra,40(sp)
    87bc:	afb20020 	sw	s2,32(sp)
    87c0:	afb1001c 	sw	s1,28(sp)
    87c4:	afb00018 	sw	s0,24(sp)
    87c8:	3c020000 	lui	v0,0x0
			87c8: R_MIPS_HI16	bmiDone
    87cc:	8c430000 	lw	v1,0(v0)
			87cc: R_MIPS_LO16	bmiDone
    87d0:	00809821 	move	s3,a0
    87d4:	1460003a 	bnez	v1,88c0 <BMILZStreamStart+0x110>
    87d8:	afa50034 	sw	a1,52(sp)
    87dc:	3c120000 	lui	s2,0x0
			87dc: R_MIPS_HI16	debughtc
    87e0:	8e420000 	lw	v0,0(s2)
			87e0: R_MIPS_LO16	debughtc
    87e4:	30420110 	andi	v0,v0,0x110
    87e8:	1440002d 	bnez	v0,88a0 <BMILZStreamStart+0xf0>
    87ec:	3c040000 	lui	a0,0x0
			87ec: R_MIPS_HI16	$LC12
    87f0:	3c110000 	lui	s1,0x0
			87f0: R_MIPS_HI16	.bss
    87f4:	2402000d 	li	v0,13
    87f8:	3c100000 	lui	s0,0x0
			87f8: R_MIPS_HI16	memcpy
    87fc:	26100000 	addiu	s0,s0,0
			87fc: R_MIPS_LO16	memcpy
    8800:	262402e4 	addiu	a0,s1,740
			8800: R_MIPS_LO16	.bss
    8804:	27a50010 	addiu	a1,sp,16
    8808:	24060004 	li	a2,4
    880c:	0200f809 	jalr	s0
    8810:	afa20010 	sw	v0,16(sp)
    8814:	3c040000 	lui	a0,0x0
			8814: R_MIPS_HI16	.bss
    8818:	248402e8 	addiu	a0,a0,744
			8818: R_MIPS_LO16	.bss
    881c:	27a50034 	addiu	a1,sp,52
    8820:	0200f809 	jalr	s0
    8824:	24060004 	li	a2,4
    8828:	3c020000 	lui	v0,0x0
			8828: R_MIPS_HI16	bmiBufferSend
    882c:	02602021 	move	a0,s3
    8830:	262502e4 	addiu	a1,s1,740
			8830: R_MIPS_LO16	.bss
    8834:	24420000 	addiu	v0,v0,0
			8834: R_MIPS_LO16	bmiBufferSend
    8838:	0040f809 	jalr	v0
    883c:	24060008 	li	a2,8
    8840:	1440002c 	bnez	v0,88f4 <BMILZStreamStart+0x144>
    8844:	8e420000 	lw	v0,0(s2)
			8844: R_MIPS_LO16	debughtc
    8848:	30420110 	andi	v0,v0,0x110
    884c:	14400008 	bnez	v0,8870 <BMILZStreamStart+0xc0>
    8850:	3c040000 	lui	a0,0x0
			8850: R_MIPS_HI16	$LC14
    8854:	8fbf0028 	lw	ra,40(sp)
    8858:	8fb30024 	lw	s3,36(sp)
    885c:	8fb20020 	lw	s2,32(sp)
    8860:	8fb1001c 	lw	s1,28(sp)
    8864:	8fb00018 	lw	s0,24(sp)
    8868:	03e00008 	jr	ra
    886c:	27bd0030 	addiu	sp,sp,48
    8870:	3c020000 	lui	v0,0x0
			8870: R_MIPS_HI16	printk
    8874:	24420000 	addiu	v0,v0,0
			8874: R_MIPS_LO16	printk
    8878:	0040f809 	jalr	v0
    887c:	24840000 	addiu	a0,a0,0
			887c: R_MIPS_LO16	$LC14
    8880:	8fbf0028 	lw	ra,40(sp)
    8884:	8fb30024 	lw	s3,36(sp)
    8888:	8fb20020 	lw	s2,32(sp)
    888c:	8fb1001c 	lw	s1,28(sp)
    8890:	8fb00018 	lw	s0,24(sp)
    8894:	00001021 	move	v0,zero
    8898:	03e00008 	jr	ra
    889c:	27bd0030 	addiu	sp,sp,48
    88a0:	3c020000 	lui	v0,0x0
			88a0: R_MIPS_HI16	printk
    88a4:	00a03021 	move	a2,a1
    88a8:	24840000 	addiu	a0,a0,0
			88a8: R_MIPS_LO16	$LC12
    88ac:	24420000 	addiu	v0,v0,0
			88ac: R_MIPS_LO16	printk
    88b0:	0040f809 	jalr	v0
    88b4:	02602821 	move	a1,s3
    88b8:	080021fd 	j	87f4 <BMILZStreamStart+0x44>
			88b8: R_MIPS_26	.text
    88bc:	3c110000 	lui	s1,0x0
			88bc: R_MIPS_HI16	.bss
    88c0:	3c030000 	lui	v1,0x0
			88c0: R_MIPS_HI16	debughtc
    88c4:	8c620000 	lw	v0,0(v1)
			88c4: R_MIPS_LO16	debughtc
    88c8:	30420080 	andi	v0,v0,0x80
    88cc:	14400003 	bnez	v0,88dc <BMILZStreamStart+0x12c>
    88d0:	3c040000 	lui	a0,0x0
			88d0: R_MIPS_HI16	$LC11
    88d4:	08002215 	j	8854 <BMILZStreamStart+0xa4>
			88d4: R_MIPS_26	.text
    88d8:	2402ffff 	li	v0,-1
    88dc:	3c020000 	lui	v0,0x0
			88dc: R_MIPS_HI16	printk
    88e0:	24420000 	addiu	v0,v0,0
			88e0: R_MIPS_LO16	printk
    88e4:	0040f809 	jalr	v0
    88e8:	24840000 	addiu	a0,a0,0
			88e8: R_MIPS_LO16	$LC11
    88ec:	08002215 	j	8854 <BMILZStreamStart+0xa4>
			88ec: R_MIPS_26	.text
    88f0:	2402ffff 	li	v0,-1
    88f4:	30420080 	andi	v0,v0,0x80
    88f8:	1040fff6 	beqz	v0,88d4 <BMILZStreamStart+0x124>
    88fc:	3c040000 	lui	a0,0x0
			88fc: R_MIPS_HI16	$LC13
    8900:	3c020000 	lui	v0,0x0
			8900: R_MIPS_HI16	printk
    8904:	24420000 	addiu	v0,v0,0
			8904: R_MIPS_LO16	printk
    8908:	0040f809 	jalr	v0
    890c:	24840000 	addiu	a0,a0,0
			890c: R_MIPS_LO16	$LC13
    8910:	08002215 	j	8854 <BMILZStreamStart+0xa4>
			8910: R_MIPS_26	.text
    8914:	2402ffff 	li	v0,-1

00008918 <BMILZData>:
    8918:	27bdffc0 	addiu	sp,sp,-64
    891c:	afb20020 	sw	s2,32(sp)
    8920:	3c020000 	lui	v0,0x0
			8920: R_MIPS_HI16	memset
    8924:	3c120000 	lui	s2,0x0
			8924: R_MIPS_HI16	.bss
    8928:	afb30024 	sw	s3,36(sp)
    892c:	afa40040 	sw	a0,64(sp)
    8930:	afa50044 	sw	a1,68(sp)
    8934:	afbf003c 	sw	ra,60(sp)
    8938:	afbe0038 	sw	s8,56(sp)
    893c:	afb70034 	sw	s7,52(sp)
    8940:	afb60030 	sw	s6,48(sp)
    8944:	afb5002c 	sw	s5,44(sp)
    8948:	afb40028 	sw	s4,40(sp)
    894c:	afb1001c 	sw	s1,28(sp)
    8950:	afb00018 	sw	s0,24(sp)
    8954:	00c09821 	move	s3,a2
    8958:	264402ec 	addiu	a0,s2,748
			8958: R_MIPS_LO16	.bss
    895c:	00002821 	move	a1,zero
    8960:	24420000 	addiu	v0,v0,0
			8960: R_MIPS_LO16	memset
    8964:	0040f809 	jalr	v0
    8968:	24060108 	li	a2,264
    896c:	3c030000 	lui	v1,0x0
			896c: R_MIPS_HI16	bmiDone
    8970:	8c620000 	lw	v0,0(v1)
			8970: R_MIPS_LO16	bmiDone
    8974:	14400068 	bnez	v0,8b18 <BMILZData+0x200>
    8978:	3c030000 	lui	v1,0x0
			8978: R_MIPS_HI16	debughtc
    897c:	8c620000 	lw	v0,0(v1)
			897c: R_MIPS_LO16	debughtc
    8980:	30420110 	andi	v0,v0,0x110
    8984:	14400056 	bnez	v0,8ae0 <BMILZData+0x1c8>
    8988:	3c040000 	lui	a0,0x0
			8988: R_MIPS_HI16	$LC15
    898c:	2402000e 	li	v0,14
    8990:	1260003c 	beqz	s3,8a84 <BMILZData+0x16c>
    8994:	afa20010 	sw	v0,16(sp)
    8998:	3c030000 	lui	v1,0x0
			8998: R_MIPS_HI16	.bss
    899c:	3c020000 	lui	v0,0x0
			899c: R_MIPS_HI16	memcpy
    89a0:	247e02f4 	addiu	s8,v1,756
			89a0: R_MIPS_LO16	.bss
    89a4:	24510000 	addiu	s1,v0,0
			89a4: R_MIPS_LO16	memcpy
    89a8:	02608021 	move	s0,s3
    89ac:	27b70010 	addiu	s7,sp,16
    89b0:	27b60014 	addiu	s6,sp,20
    89b4:	3c150000 	lui	s5,0x0
			89b4: R_MIPS_HI16	bmiBufferSend
    89b8:	08002273 	j	89cc <BMILZData+0xb4>
			89b8: R_MIPS_26	.text
    89bc:	241400f8 	li	s4,248
    89c0:	02028023 	subu	s0,s0,v0
    89c4:	12000030 	beqz	s0,8a88 <BMILZData+0x170>
    89c8:	3c030000 	lui	v1,0x0
			89c8: R_MIPS_HI16	debughtc
    89cc:	2e0200f9 	sltiu	v0,s0,249
    89d0:	02801821 	move	v1,s4
    89d4:	0202180b 	movn	v1,s0,v0
    89d8:	afa30014 	sw	v1,20(sp)
    89dc:	24060004 	li	a2,4
    89e0:	264402ec 	addiu	a0,s2,748
			89e0: R_MIPS_LO16	.bss
    89e4:	0220f809 	jalr	s1
    89e8:	02e02821 	move	a1,s7
    89ec:	3c020000 	lui	v0,0x0
			89ec: R_MIPS_HI16	$LC17
    89f0:	24420000 	addiu	v0,v0,0
			89f0: R_MIPS_LO16	$LC17
    89f4:	8c440000 	lw	a0,0(v0)
    89f8:	02c02821 	move	a1,s6
    89fc:	0220f809 	jalr	s1
    8a00:	24060004 	li	a2,4
    8a04:	8fa30044 	lw	v1,68(sp)
    8a08:	8fa60014 	lw	a2,20(sp)
    8a0c:	02702823 	subu	a1,s3,s0
    8a10:	00a32821 	addu	a1,a1,v1
    8a14:	0220f809 	jalr	s1
    8a18:	03c02021 	move	a0,s8
    8a1c:	8fa60014 	lw	a2,20(sp)
    8a20:	8fa40040 	lw	a0,64(sp)
    8a24:	24c60008 	addiu	a2,a2,8
    8a28:	26a20000 	addiu	v0,s5,0
			8a28: R_MIPS_LO16	bmiBufferSend
    8a2c:	0040f809 	jalr	v0
    8a30:	264502ec 	addiu	a1,s2,748
			8a30: R_MIPS_LO16	.bss
    8a34:	1040ffe2 	beqz	v0,89c0 <BMILZData+0xa8>
    8a38:	8fa20014 	lw	v0,20(sp)
    8a3c:	3c030000 	lui	v1,0x0
			8a3c: R_MIPS_HI16	debughtc
    8a40:	8c620000 	lw	v0,0(v1)
			8a40: R_MIPS_LO16	debughtc
    8a44:	30420080 	andi	v0,v0,0x80
    8a48:	1440002d 	bnez	v0,8b00 <BMILZData+0x1e8>
    8a4c:	3c040000 	lui	a0,0x0
			8a4c: R_MIPS_HI16	$LC9
    8a50:	2402ffff 	li	v0,-1
    8a54:	8fbf003c 	lw	ra,60(sp)
    8a58:	8fbe0038 	lw	s8,56(sp)
    8a5c:	8fb70034 	lw	s7,52(sp)
    8a60:	8fb60030 	lw	s6,48(sp)
    8a64:	8fb5002c 	lw	s5,44(sp)
    8a68:	8fb40028 	lw	s4,40(sp)
    8a6c:	8fb30024 	lw	s3,36(sp)
    8a70:	8fb20020 	lw	s2,32(sp)
    8a74:	8fb1001c 	lw	s1,28(sp)
    8a78:	8fb00018 	lw	s0,24(sp)
    8a7c:	03e00008 	jr	ra
    8a80:	27bd0040 	addiu	sp,sp,64
    8a84:	3c030000 	lui	v1,0x0
			8a84: R_MIPS_HI16	debughtc
    8a88:	8c620000 	lw	v0,0(v1)
			8a88: R_MIPS_LO16	debughtc
    8a8c:	30420110 	andi	v0,v0,0x110
    8a90:	1040fff1 	beqz	v0,8a58 <BMILZData+0x140>
    8a94:	8fbf003c 	lw	ra,60(sp)
    8a98:	3c040000 	lui	a0,0x0
			8a98: R_MIPS_HI16	$LC16
    8a9c:	3c020000 	lui	v0,0x0
			8a9c: R_MIPS_HI16	printk
    8aa0:	24420000 	addiu	v0,v0,0
			8aa0: R_MIPS_LO16	printk
    8aa4:	0040f809 	jalr	v0
    8aa8:	24840000 	addiu	a0,a0,0
			8aa8: R_MIPS_LO16	$LC16
    8aac:	8fbf003c 	lw	ra,60(sp)
    8ab0:	8fbe0038 	lw	s8,56(sp)
    8ab4:	8fb70034 	lw	s7,52(sp)
    8ab8:	8fb60030 	lw	s6,48(sp)
    8abc:	8fb5002c 	lw	s5,44(sp)
    8ac0:	8fb40028 	lw	s4,40(sp)
    8ac4:	8fb30024 	lw	s3,36(sp)
    8ac8:	8fb20020 	lw	s2,32(sp)
    8acc:	8fb1001c 	lw	s1,28(sp)
    8ad0:	8fb00018 	lw	s0,24(sp)
    8ad4:	00001021 	move	v0,zero
    8ad8:	03e00008 	jr	ra
    8adc:	27bd0040 	addiu	sp,sp,64
    8ae0:	8fa50040 	lw	a1,64(sp)
    8ae4:	3c020000 	lui	v0,0x0
			8ae4: R_MIPS_HI16	printk
    8ae8:	24840000 	addiu	a0,a0,0
			8ae8: R_MIPS_LO16	$LC15
    8aec:	24420000 	addiu	v0,v0,0
			8aec: R_MIPS_LO16	printk
    8af0:	0040f809 	jalr	v0
    8af4:	02603021 	move	a2,s3
    8af8:	08002264 	j	8990 <BMILZData+0x78>
			8af8: R_MIPS_26	.text
    8afc:	2402000e 	li	v0,14
    8b00:	3c020000 	lui	v0,0x0
			8b00: R_MIPS_HI16	printk
    8b04:	24420000 	addiu	v0,v0,0
			8b04: R_MIPS_LO16	printk
    8b08:	0040f809 	jalr	v0
    8b0c:	24840000 	addiu	a0,a0,0
			8b0c: R_MIPS_LO16	$LC9
    8b10:	08002295 	j	8a54 <BMILZData+0x13c>
			8b10: R_MIPS_26	.text
    8b14:	2402ffff 	li	v0,-1
    8b18:	8c620000 	lw	v0,0(v1)
			8b18: R_MIPS_LO16	debughtc
    8b1c:	30420080 	andi	v0,v0,0x80
    8b20:	1040ffcb 	beqz	v0,8a50 <BMILZData+0x138>
    8b24:	3c040000 	lui	a0,0x0
			8b24: R_MIPS_HI16	$LC11
    8b28:	3c020000 	lui	v0,0x0
			8b28: R_MIPS_HI16	printk
    8b2c:	24420000 	addiu	v0,v0,0
			8b2c: R_MIPS_LO16	printk
    8b30:	0040f809 	jalr	v0
    8b34:	24840000 	addiu	a0,a0,0
			8b34: R_MIPS_LO16	$LC11
    8b38:	08002295 	j	8a54 <BMILZData+0x13c>
			8b38: R_MIPS_26	.text
    8b3c:	2402ffff 	li	v0,-1

00008b40 <_BMIrompatchChangeActivation>:
    8b40:	27bdffc8 	addiu	sp,sp,-56
    8b44:	afb20020 	sw	s2,32(sp)
    8b48:	3c020000 	lui	v0,0x0
			8b48: R_MIPS_HI16	memset
    8b4c:	3c120000 	lui	s2,0x0
			8b4c: R_MIPS_HI16	.bss
    8b50:	afb5002c 	sw	s5,44(sp)
    8b54:	afb40028 	sw	s4,40(sp)
    8b58:	afb00018 	sw	s0,24(sp)
    8b5c:	afa5003c 	sw	a1,60(sp)
    8b60:	afbf0030 	sw	ra,48(sp)
    8b64:	afb30024 	sw	s3,36(sp)
    8b68:	afb1001c 	sw	s1,28(sp)
    8b6c:	0080a021 	move	s4,a0
    8b70:	00c0a821 	move	s5,a2
    8b74:	264403f4 	addiu	a0,s2,1012
			8b74: R_MIPS_LO16	.bss
    8b78:	00002821 	move	a1,zero
    8b7c:	24060108 	li	a2,264
    8b80:	24420000 	addiu	v0,v0,0
			8b80: R_MIPS_LO16	memset
    8b84:	0040f809 	jalr	v0
    8b88:	00e08021 	move	s0,a3
    8b8c:	3c030000 	lui	v1,0x0
			8b8c: R_MIPS_HI16	bmiDone
    8b90:	8c620000 	lw	v0,0(v1)
			8b90: R_MIPS_LO16	bmiDone
    8b94:	14400045 	bnez	v0,8cac <_BMIrompatchChangeActivation+0x16c>
    8b98:	3c130000 	lui	s3,0x0
			8b98: R_MIPS_HI16	debughtc
    8b9c:	8e620000 	lw	v0,0(s3)
			8b9c: R_MIPS_LO16	debughtc
    8ba0:	30420110 	andi	v0,v0,0x110
    8ba4:	14400039 	bnez	v0,8c8c <_BMIrompatchChangeActivation+0x14c>
    8ba8:	8fa6003c 	lw	a2,60(sp)
    8bac:	2402000c 	li	v0,12
    8bb0:	2403000b 	li	v1,11
    8bb4:	0050180a 	movz	v1,v0,s0
    8bb8:	3c110000 	lui	s1,0x0
			8bb8: R_MIPS_HI16	memcpy
    8bbc:	26310000 	addiu	s1,s1,0
			8bbc: R_MIPS_LO16	memcpy
    8bc0:	afa30010 	sw	v1,16(sp)
    8bc4:	264403f4 	addiu	a0,s2,1012
			8bc4: R_MIPS_LO16	.bss
    8bc8:	27a50010 	addiu	a1,sp,16
    8bcc:	0220f809 	jalr	s1
    8bd0:	24060004 	li	a2,4
    8bd4:	3c040000 	lui	a0,0x0
			8bd4: R_MIPS_HI16	.bss
    8bd8:	248403f8 	addiu	a0,a0,1016
			8bd8: R_MIPS_LO16	.bss
    8bdc:	27a5003c 	addiu	a1,sp,60
    8be0:	0220f809 	jalr	s1
    8be4:	24060004 	li	a2,4
    8be8:	8fb0003c 	lw	s0,60(sp)
    8bec:	3c040000 	lui	a0,0x0
			8bec: R_MIPS_HI16	.bss
    8bf0:	00108080 	sll	s0,s0,0x2
    8bf4:	02a02821 	move	a1,s5
    8bf8:	248403fc 	addiu	a0,a0,1020
			8bf8: R_MIPS_LO16	.bss
    8bfc:	0220f809 	jalr	s1
    8c00:	02003021 	move	a2,s0
    8c04:	3c020000 	lui	v0,0x0
			8c04: R_MIPS_HI16	bmiBufferSend
    8c08:	02802021 	move	a0,s4
    8c0c:	264503f4 	addiu	a1,s2,1012
			8c0c: R_MIPS_LO16	.bss
    8c10:	24420000 	addiu	v0,v0,0
			8c10: R_MIPS_LO16	bmiBufferSend
    8c14:	0040f809 	jalr	v0
    8c18:	26060008 	addiu	a2,s0,8
    8c1c:	14400030 	bnez	v0,8ce0 <_BMIrompatchChangeActivation+0x1a0>
    8c20:	8e620000 	lw	v0,0(s3)
			8c20: R_MIPS_LO16	debughtc
    8c24:	30420110 	andi	v0,v0,0x110
    8c28:	1440000a 	bnez	v0,8c54 <_BMIrompatchChangeActivation+0x114>
    8c2c:	3c040000 	lui	a0,0x0
			8c2c: R_MIPS_HI16	$LC19
    8c30:	8fbf0030 	lw	ra,48(sp)
    8c34:	8fb5002c 	lw	s5,44(sp)
    8c38:	8fb40028 	lw	s4,40(sp)
    8c3c:	8fb30024 	lw	s3,36(sp)
    8c40:	8fb20020 	lw	s2,32(sp)
    8c44:	8fb1001c 	lw	s1,28(sp)
    8c48:	8fb00018 	lw	s0,24(sp)
    8c4c:	03e00008 	jr	ra
    8c50:	27bd0038 	addiu	sp,sp,56
    8c54:	3c020000 	lui	v0,0x0
			8c54: R_MIPS_HI16	printk
    8c58:	24420000 	addiu	v0,v0,0
			8c58: R_MIPS_LO16	printk
    8c5c:	0040f809 	jalr	v0
    8c60:	24840000 	addiu	a0,a0,0
			8c60: R_MIPS_LO16	$LC19
    8c64:	8fbf0030 	lw	ra,48(sp)
    8c68:	8fb5002c 	lw	s5,44(sp)
    8c6c:	8fb40028 	lw	s4,40(sp)
    8c70:	8fb30024 	lw	s3,36(sp)
    8c74:	8fb20020 	lw	s2,32(sp)
    8c78:	8fb1001c 	lw	s1,28(sp)
    8c7c:	8fb00018 	lw	s0,24(sp)
    8c80:	00001021 	move	v0,zero
    8c84:	03e00008 	jr	ra
    8c88:	27bd0038 	addiu	sp,sp,56
    8c8c:	3c040000 	lui	a0,0x0
			8c8c: R_MIPS_HI16	$LC18
    8c90:	3c020000 	lui	v0,0x0
			8c90: R_MIPS_HI16	printk
    8c94:	24840000 	addiu	a0,a0,0
			8c94: R_MIPS_LO16	$LC18
    8c98:	24420000 	addiu	v0,v0,0
			8c98: R_MIPS_LO16	printk
    8c9c:	0040f809 	jalr	v0
    8ca0:	02802821 	move	a1,s4
    8ca4:	080022ec 	j	8bb0 <_BMIrompatchChangeActivation+0x70>
			8ca4: R_MIPS_26	.text
    8ca8:	2402000c 	li	v0,12
    8cac:	3c030000 	lui	v1,0x0
			8cac: R_MIPS_HI16	debughtc
    8cb0:	8c620000 	lw	v0,0(v1)
			8cb0: R_MIPS_LO16	debughtc
    8cb4:	30420080 	andi	v0,v0,0x80
    8cb8:	14400003 	bnez	v0,8cc8 <_BMIrompatchChangeActivation+0x188>
    8cbc:	3c040000 	lui	a0,0x0
			8cbc: R_MIPS_HI16	$LC11
    8cc0:	0800230c 	j	8c30 <_BMIrompatchChangeActivation+0xf0>
			8cc0: R_MIPS_26	.text
    8cc4:	2402ffff 	li	v0,-1
    8cc8:	3c020000 	lui	v0,0x0
			8cc8: R_MIPS_HI16	printk
    8ccc:	24420000 	addiu	v0,v0,0
			8ccc: R_MIPS_LO16	printk
    8cd0:	0040f809 	jalr	v0
    8cd4:	24840000 	addiu	a0,a0,0
			8cd4: R_MIPS_LO16	$LC11
    8cd8:	0800230c 	j	8c30 <_BMIrompatchChangeActivation+0xf0>
			8cd8: R_MIPS_26	.text
    8cdc:	2402ffff 	li	v0,-1
    8ce0:	30420080 	andi	v0,v0,0x80
    8ce4:	1040fff6 	beqz	v0,8cc0 <_BMIrompatchChangeActivation+0x180>
    8ce8:	3c040000 	lui	a0,0x0
			8ce8: R_MIPS_HI16	$LC9
    8cec:	3c020000 	lui	v0,0x0
			8cec: R_MIPS_HI16	printk
    8cf0:	24420000 	addiu	v0,v0,0
			8cf0: R_MIPS_LO16	printk
    8cf4:	0040f809 	jalr	v0
    8cf8:	24840000 	addiu	a0,a0,0
			8cf8: R_MIPS_LO16	$LC9
    8cfc:	0800230c 	j	8c30 <_BMIrompatchChangeActivation+0xf0>
			8cfc: R_MIPS_26	.text
    8d00:	2402ffff 	li	v0,-1

00008d04 <BMIrompatchDeactivate>:
    8d04:	3c190001 	lui	t9,0x1
			8d04: R_MIPS_HI16	.text
    8d08:	27398b40 	addiu	t9,t9,-29888
			8d08: R_MIPS_LO16	.text
    8d0c:	03200008 	jr	t9
    8d10:	00003821 	move	a3,zero

00008d14 <BMIrompatchActivate>:
    8d14:	3c190001 	lui	t9,0x1
			8d14: R_MIPS_HI16	.text
    8d18:	27398b40 	addiu	t9,t9,-29888
			8d18: R_MIPS_LO16	.text
    8d1c:	03200008 	jr	t9
    8d20:	24070001 	li	a3,1

00008d24 <BMIrompatchUninstall>:
    8d24:	27bdffd0 	addiu	sp,sp,-48
    8d28:	afb1001c 	sw	s1,28(sp)
    8d2c:	3c020000 	lui	v0,0x0
			8d2c: R_MIPS_HI16	memset
    8d30:	3c110000 	lui	s1,0x0
			8d30: R_MIPS_HI16	.bss
    8d34:	afb30024 	sw	s3,36(sp)
    8d38:	afa50034 	sw	a1,52(sp)
    8d3c:	afbf0028 	sw	ra,40(sp)
    8d40:	afb20020 	sw	s2,32(sp)
    8d44:	afb00018 	sw	s0,24(sp)
    8d48:	00809821 	move	s3,a0
    8d4c:	00002821 	move	a1,zero
    8d50:	262404fc 	addiu	a0,s1,1276
			8d50: R_MIPS_LO16	.bss
    8d54:	24420000 	addiu	v0,v0,0
			8d54: R_MIPS_LO16	memset
    8d58:	0040f809 	jalr	v0
    8d5c:	24060008 	li	a2,8
    8d60:	3c030000 	lui	v1,0x0
			8d60: R_MIPS_HI16	bmiDone
    8d64:	8c620000 	lw	v0,0(v1)
			8d64: R_MIPS_LO16	bmiDone
    8d68:	14400039 	bnez	v0,8e50 <BMIrompatchUninstall+0x12c>
    8d6c:	3c120000 	lui	s2,0x0
			8d6c: R_MIPS_HI16	debughtc
    8d70:	8e420000 	lw	v0,0(s2)
			8d70: R_MIPS_LO16	debughtc
    8d74:	30420110 	andi	v0,v0,0x110
    8d78:	1440002d 	bnez	v0,8e30 <BMIrompatchUninstall+0x10c>
    8d7c:	3c040000 	lui	a0,0x0
			8d7c: R_MIPS_HI16	$LC20
    8d80:	2402000a 	li	v0,10
    8d84:	3c100000 	lui	s0,0x0
			8d84: R_MIPS_HI16	memcpy
    8d88:	26100000 	addiu	s0,s0,0
			8d88: R_MIPS_LO16	memcpy
    8d8c:	262404fc 	addiu	a0,s1,1276
			8d8c: R_MIPS_LO16	.bss
    8d90:	27a50010 	addiu	a1,sp,16
    8d94:	24060004 	li	a2,4
    8d98:	0200f809 	jalr	s0
    8d9c:	afa20010 	sw	v0,16(sp)
    8da0:	3c040000 	lui	a0,0x0
			8da0: R_MIPS_HI16	.bss
    8da4:	24840500 	addiu	a0,a0,1280
			8da4: R_MIPS_LO16	.bss
    8da8:	27a50034 	addiu	a1,sp,52
    8dac:	0200f809 	jalr	s0
    8db0:	24060004 	li	a2,4
    8db4:	3c020000 	lui	v0,0x0
			8db4: R_MIPS_HI16	bmiBufferSend
    8db8:	02602021 	move	a0,s3
    8dbc:	262504fc 	addiu	a1,s1,1276
			8dbc: R_MIPS_LO16	.bss
    8dc0:	24420000 	addiu	v0,v0,0
			8dc0: R_MIPS_LO16	bmiBufferSend
    8dc4:	0040f809 	jalr	v0
    8dc8:	24060008 	li	a2,8
    8dcc:	1440002d 	bnez	v0,8e84 <BMIrompatchUninstall+0x160>
    8dd0:	8e420000 	lw	v0,0(s2)
			8dd0: R_MIPS_LO16	debughtc
    8dd4:	30420110 	andi	v0,v0,0x110
    8dd8:	14400008 	bnez	v0,8dfc <BMIrompatchUninstall+0xd8>
    8ddc:	8fa50034 	lw	a1,52(sp)
    8de0:	8fbf0028 	lw	ra,40(sp)
    8de4:	8fb30024 	lw	s3,36(sp)
    8de8:	8fb20020 	lw	s2,32(sp)
    8dec:	8fb1001c 	lw	s1,28(sp)
    8df0:	8fb00018 	lw	s0,24(sp)
    8df4:	03e00008 	jr	ra
    8df8:	27bd0030 	addiu	sp,sp,48
    8dfc:	3c040000 	lui	a0,0x0
			8dfc: R_MIPS_HI16	$LC21
    8e00:	3c020000 	lui	v0,0x0
			8e00: R_MIPS_HI16	printk
    8e04:	24420000 	addiu	v0,v0,0
			8e04: R_MIPS_LO16	printk
    8e08:	0040f809 	jalr	v0
    8e0c:	24840000 	addiu	a0,a0,0
			8e0c: R_MIPS_LO16	$LC21
    8e10:	8fbf0028 	lw	ra,40(sp)
    8e14:	8fb30024 	lw	s3,36(sp)
    8e18:	8fb20020 	lw	s2,32(sp)
    8e1c:	8fb1001c 	lw	s1,28(sp)
    8e20:	8fb00018 	lw	s0,24(sp)
    8e24:	00001021 	move	v0,zero
    8e28:	03e00008 	jr	ra
    8e2c:	27bd0030 	addiu	sp,sp,48
    8e30:	8fa60034 	lw	a2,52(sp)
    8e34:	3c020000 	lui	v0,0x0
			8e34: R_MIPS_HI16	printk
    8e38:	24840000 	addiu	a0,a0,0
			8e38: R_MIPS_LO16	$LC20
    8e3c:	24420000 	addiu	v0,v0,0
			8e3c: R_MIPS_LO16	printk
    8e40:	0040f809 	jalr	v0
    8e44:	02602821 	move	a1,s3
    8e48:	08002361 	j	8d84 <BMIrompatchUninstall+0x60>
			8e48: R_MIPS_26	.text
    8e4c:	2402000a 	li	v0,10
    8e50:	3c030000 	lui	v1,0x0
			8e50: R_MIPS_HI16	debughtc
    8e54:	8c620000 	lw	v0,0(v1)
			8e54: R_MIPS_LO16	debughtc
    8e58:	30420080 	andi	v0,v0,0x80
    8e5c:	14400003 	bnez	v0,8e6c <BMIrompatchUninstall+0x148>
    8e60:	3c040000 	lui	a0,0x0
			8e60: R_MIPS_HI16	$LC11
    8e64:	08002378 	j	8de0 <BMIrompatchUninstall+0xbc>
			8e64: R_MIPS_26	.text
    8e68:	2402ffff 	li	v0,-1
    8e6c:	3c020000 	lui	v0,0x0
			8e6c: R_MIPS_HI16	printk
    8e70:	24420000 	addiu	v0,v0,0
			8e70: R_MIPS_LO16	printk
    8e74:	0040f809 	jalr	v0
    8e78:	24840000 	addiu	a0,a0,0
			8e78: R_MIPS_LO16	$LC11
    8e7c:	08002378 	j	8de0 <BMIrompatchUninstall+0xbc>
			8e7c: R_MIPS_26	.text
    8e80:	2402ffff 	li	v0,-1
    8e84:	30420080 	andi	v0,v0,0x80
    8e88:	1040fff6 	beqz	v0,8e64 <BMIrompatchUninstall+0x140>
    8e8c:	3c040000 	lui	a0,0x0
			8e8c: R_MIPS_HI16	$LC9
    8e90:	3c020000 	lui	v0,0x0
			8e90: R_MIPS_HI16	printk
    8e94:	24420000 	addiu	v0,v0,0
			8e94: R_MIPS_LO16	printk
    8e98:	0040f809 	jalr	v0
    8e9c:	24840000 	addiu	a0,a0,0
			8e9c: R_MIPS_LO16	$LC9
    8ea0:	08002378 	j	8de0 <BMIrompatchUninstall+0xbc>
			8ea0: R_MIPS_26	.text
    8ea4:	2402ffff 	li	v0,-1

00008ea8 <BMIrompatchInstall>:
    8ea8:	27bdffc8 	addiu	sp,sp,-56
    8eac:	afb10024 	sw	s1,36(sp)
    8eb0:	3c020000 	lui	v0,0x0
			8eb0: R_MIPS_HI16	memset
    8eb4:	3c110000 	lui	s1,0x0
			8eb4: R_MIPS_HI16	.bss
    8eb8:	afb40030 	sw	s4,48(sp)
    8ebc:	afb20028 	sw	s2,40(sp)
    8ec0:	afa5003c 	sw	a1,60(sp)
    8ec4:	afa60040 	sw	a2,64(sp)
    8ec8:	afbf0034 	sw	ra,52(sp)
    8ecc:	afb3002c 	sw	s3,44(sp)
    8ed0:	afb00020 	sw	s0,32(sp)
    8ed4:	00809021 	move	s2,a0
    8ed8:	00002821 	move	a1,zero
    8edc:	26240504 	addiu	a0,s1,1284
			8edc: R_MIPS_LO16	.bss
    8ee0:	24060014 	li	a2,20
    8ee4:	afa70044 	sw	a3,68(sp)
    8ee8:	24420000 	addiu	v0,v0,0
			8ee8: R_MIPS_LO16	memset
    8eec:	0040f809 	jalr	v0
    8ef0:	8fb4004c 	lw	s4,76(sp)
    8ef4:	3c030000 	lui	v1,0x0
			8ef4: R_MIPS_HI16	bmiDone
    8ef8:	8c620000 	lw	v0,0(v1)
			8ef8: R_MIPS_LO16	bmiDone
    8efc:	1440006a 	bnez	v0,90a8 <BMIrompatchInstall+0x200>
    8f00:	3c130000 	lui	s3,0x0
			8f00: R_MIPS_HI16	debughtc
    8f04:	8e620000 	lw	v0,0(s3)
			8f04: R_MIPS_LO16	debughtc
    8f08:	30420110 	andi	v0,v0,0x110
    8f0c:	14400046 	bnez	v0,9028 <BMIrompatchInstall+0x180>
    8f10:	8fa20044 	lw	v0,68(sp)
    8f14:	24020009 	li	v0,9
    8f18:	3c100000 	lui	s0,0x0
			8f18: R_MIPS_HI16	memcpy
    8f1c:	26100000 	addiu	s0,s0,0
			8f1c: R_MIPS_LO16	memcpy
    8f20:	26240504 	addiu	a0,s1,1284
			8f20: R_MIPS_LO16	.bss
    8f24:	27a50018 	addiu	a1,sp,24
    8f28:	24060004 	li	a2,4
    8f2c:	0200f809 	jalr	s0
    8f30:	afa20018 	sw	v0,24(sp)
    8f34:	3c040000 	lui	a0,0x0
			8f34: R_MIPS_HI16	.bss
    8f38:	24840508 	addiu	a0,a0,1288
			8f38: R_MIPS_LO16	.bss
    8f3c:	27a5003c 	addiu	a1,sp,60
    8f40:	0200f809 	jalr	s0
    8f44:	24060004 	li	a2,4
    8f48:	3c040000 	lui	a0,0x0
			8f48: R_MIPS_HI16	.bss
    8f4c:	2484050c 	addiu	a0,a0,1292
			8f4c: R_MIPS_LO16	.bss
    8f50:	27a50040 	addiu	a1,sp,64
    8f54:	0200f809 	jalr	s0
    8f58:	24060004 	li	a2,4
    8f5c:	3c040000 	lui	a0,0x0
			8f5c: R_MIPS_HI16	.bss
    8f60:	24840510 	addiu	a0,a0,1296
			8f60: R_MIPS_LO16	.bss
    8f64:	27a50044 	addiu	a1,sp,68
    8f68:	0200f809 	jalr	s0
    8f6c:	24060004 	li	a2,4
    8f70:	3c040000 	lui	a0,0x0
			8f70: R_MIPS_HI16	.bss
    8f74:	24840514 	addiu	a0,a0,1300
			8f74: R_MIPS_LO16	.bss
    8f78:	27a50048 	addiu	a1,sp,72
    8f7c:	0200f809 	jalr	s0
    8f80:	24060004 	li	a2,4
    8f84:	3c020000 	lui	v0,0x0
			8f84: R_MIPS_HI16	bmiBufferSend
    8f88:	02402021 	move	a0,s2
    8f8c:	26250504 	addiu	a1,s1,1284
			8f8c: R_MIPS_LO16	.bss
    8f90:	24420000 	addiu	v0,v0,0
			8f90: R_MIPS_LO16	bmiBufferSend
    8f94:	0040f809 	jalr	v0
    8f98:	24060014 	li	a2,20
    8f9c:	1440002f 	bnez	v0,905c <BMIrompatchInstall+0x1b4>
    8fa0:	3c020000 	lui	v0,0x0
			8fa0: R_MIPS_HI16	bmiBufferReceive
    8fa4:	02402021 	move	a0,s2
    8fa8:	02802821 	move	a1,s4
    8fac:	24060004 	li	a2,4
    8fb0:	24420000 	addiu	v0,v0,0
			8fb0: R_MIPS_LO16	bmiBufferReceive
    8fb4:	0040f809 	jalr	v0
    8fb8:	24070001 	li	a3,1
    8fbc:	14400046 	bnez	v0,90d8 <BMIrompatchInstall+0x230>
    8fc0:	8e620000 	lw	v0,0(s3)
			8fc0: R_MIPS_LO16	debughtc
    8fc4:	30420110 	andi	v0,v0,0x110
    8fc8:	14400009 	bnez	v0,8ff0 <BMIrompatchInstall+0x148>
    8fcc:	3c040000 	lui	a0,0x0
			8fcc: R_MIPS_HI16	$LC24
    8fd0:	8fbf0034 	lw	ra,52(sp)
    8fd4:	8fb40030 	lw	s4,48(sp)
    8fd8:	8fb3002c 	lw	s3,44(sp)
    8fdc:	8fb20028 	lw	s2,40(sp)
    8fe0:	8fb10024 	lw	s1,36(sp)
    8fe4:	8fb00020 	lw	s0,32(sp)
    8fe8:	03e00008 	jr	ra
    8fec:	27bd0038 	addiu	sp,sp,56
    8ff0:	8e850000 	lw	a1,0(s4)
    8ff4:	3c020000 	lui	v0,0x0
			8ff4: R_MIPS_HI16	printk
    8ff8:	24420000 	addiu	v0,v0,0
			8ff8: R_MIPS_LO16	printk
    8ffc:	0040f809 	jalr	v0
    9000:	24840000 	addiu	a0,a0,0
			9000: R_MIPS_LO16	$LC24
    9004:	8fbf0034 	lw	ra,52(sp)
    9008:	8fb40030 	lw	s4,48(sp)
    900c:	8fb3002c 	lw	s3,44(sp)
    9010:	8fb20028 	lw	s2,40(sp)
    9014:	8fb10024 	lw	s1,36(sp)
    9018:	8fb00020 	lw	s0,32(sp)
    901c:	00001021 	move	v0,zero
    9020:	03e00008 	jr	ra
    9024:	27bd0038 	addiu	sp,sp,56
    9028:	8fa30048 	lw	v1,72(sp)
    902c:	afa20010 	sw	v0,16(sp)
    9030:	3c040000 	lui	a0,0x0
			9030: R_MIPS_HI16	$LC22
    9034:	8fa6003c 	lw	a2,60(sp)
    9038:	8fa70040 	lw	a3,64(sp)
    903c:	3c020000 	lui	v0,0x0
			903c: R_MIPS_HI16	printk
    9040:	24840000 	addiu	a0,a0,0
			9040: R_MIPS_LO16	$LC22
    9044:	02402821 	move	a1,s2
    9048:	24420000 	addiu	v0,v0,0
			9048: R_MIPS_LO16	printk
    904c:	0040f809 	jalr	v0
    9050:	afa30014 	sw	v1,20(sp)
    9054:	080023c6 	j	8f18 <BMIrompatchInstall+0x70>
			9054: R_MIPS_26	.text
    9058:	24020009 	li	v0,9
    905c:	8e620000 	lw	v0,0(s3)
			905c: R_MIPS_LO16	debughtc
    9060:	30420080 	andi	v0,v0,0x80
    9064:	1440000a 	bnez	v0,9090 <BMIrompatchInstall+0x1e8>
    9068:	3c040000 	lui	a0,0x0
			9068: R_MIPS_HI16	$LC9
    906c:	8fbf0034 	lw	ra,52(sp)
    9070:	8fb40030 	lw	s4,48(sp)
    9074:	8fb3002c 	lw	s3,44(sp)
    9078:	8fb20028 	lw	s2,40(sp)
    907c:	8fb10024 	lw	s1,36(sp)
    9080:	8fb00020 	lw	s0,32(sp)
    9084:	2402ffff 	li	v0,-1
    9088:	03e00008 	jr	ra
    908c:	27bd0038 	addiu	sp,sp,56
    9090:	3c020000 	lui	v0,0x0
			9090: R_MIPS_HI16	printk
    9094:	24420000 	addiu	v0,v0,0
			9094: R_MIPS_LO16	printk
    9098:	0040f809 	jalr	v0
    909c:	24840000 	addiu	a0,a0,0
			909c: R_MIPS_LO16	$LC9
    90a0:	080023f4 	j	8fd0 <BMIrompatchInstall+0x128>
			90a0: R_MIPS_26	.text
    90a4:	2402ffff 	li	v0,-1
    90a8:	3c030000 	lui	v1,0x0
			90a8: R_MIPS_HI16	debughtc
    90ac:	8c620000 	lw	v0,0(v1)
			90ac: R_MIPS_LO16	debughtc
    90b0:	30420080 	andi	v0,v0,0x80
    90b4:	1040ffee 	beqz	v0,9070 <BMIrompatchInstall+0x1c8>
    90b8:	8fbf0034 	lw	ra,52(sp)
    90bc:	3c040000 	lui	a0,0x0
			90bc: R_MIPS_HI16	$LC11
    90c0:	3c020000 	lui	v0,0x0
			90c0: R_MIPS_HI16	printk
    90c4:	24420000 	addiu	v0,v0,0
			90c4: R_MIPS_LO16	printk
    90c8:	0040f809 	jalr	v0
    90cc:	24840000 	addiu	a0,a0,0
			90cc: R_MIPS_LO16	$LC11
    90d0:	080023f4 	j	8fd0 <BMIrompatchInstall+0x128>
			90d0: R_MIPS_26	.text
    90d4:	2402ffff 	li	v0,-1
    90d8:	30420080 	andi	v0,v0,0x80
    90dc:	1040ffe4 	beqz	v0,9070 <BMIrompatchInstall+0x1c8>
    90e0:	8fbf0034 	lw	ra,52(sp)
    90e4:	3c040000 	lui	a0,0x0
			90e4: R_MIPS_HI16	$LC23
    90e8:	3c020000 	lui	v0,0x0
			90e8: R_MIPS_HI16	printk
    90ec:	24420000 	addiu	v0,v0,0
			90ec: R_MIPS_LO16	printk
    90f0:	0040f809 	jalr	v0
    90f4:	24840000 	addiu	a0,a0,0
			90f4: R_MIPS_LO16	$LC23
    90f8:	080023f4 	j	8fd0 <BMIrompatchInstall+0x128>
			90f8: R_MIPS_26	.text
    90fc:	2402ffff 	li	v0,-1

00009100 <BMIWriteSOCRegister>:
    9100:	27bdffd0 	addiu	sp,sp,-48
    9104:	afb1001c 	sw	s1,28(sp)
    9108:	3c020000 	lui	v0,0x0
			9108: R_MIPS_HI16	memset
    910c:	3c110000 	lui	s1,0x0
			910c: R_MIPS_HI16	.bss
    9110:	afb30024 	sw	s3,36(sp)
    9114:	afa50034 	sw	a1,52(sp)
    9118:	afa60038 	sw	a2,56(sp)
    911c:	afbf0028 	sw	ra,40(sp)
    9120:	afb20020 	sw	s2,32(sp)
    9124:	afb00018 	sw	s0,24(sp)
    9128:	00809821 	move	s3,a0
    912c:	00002821 	move	a1,zero
    9130:	26240518 	addiu	a0,s1,1304
			9130: R_MIPS_LO16	.bss
    9134:	24420000 	addiu	v0,v0,0
			9134: R_MIPS_LO16	memset
    9138:	0040f809 	jalr	v0
    913c:	2406000c 	li	a2,12
    9140:	3c030000 	lui	v1,0x0
			9140: R_MIPS_HI16	bmiDone
    9144:	8c620000 	lw	v0,0(v1)
			9144: R_MIPS_LO16	bmiDone
    9148:	1440003e 	bnez	v0,9244 <BMIWriteSOCRegister+0x144>
    914c:	3c120000 	lui	s2,0x0
			914c: R_MIPS_HI16	debughtc
    9150:	8e420000 	lw	v0,0(s2)
			9150: R_MIPS_LO16	debughtc
    9154:	30420110 	andi	v0,v0,0x110
    9158:	14400031 	bnez	v0,9220 <BMIWriteSOCRegister+0x120>
    915c:	8fa70038 	lw	a3,56(sp)
    9160:	24020007 	li	v0,7
    9164:	3c100000 	lui	s0,0x0
			9164: R_MIPS_HI16	memcpy
    9168:	26100000 	addiu	s0,s0,0
			9168: R_MIPS_LO16	memcpy
    916c:	26240518 	addiu	a0,s1,1304
			916c: R_MIPS_LO16	.bss
    9170:	27a50010 	addiu	a1,sp,16
    9174:	24060004 	li	a2,4
    9178:	0200f809 	jalr	s0
    917c:	afa20010 	sw	v0,16(sp)
    9180:	3c040000 	lui	a0,0x0
			9180: R_MIPS_HI16	.bss
    9184:	2484051c 	addiu	a0,a0,1308
			9184: R_MIPS_LO16	.bss
    9188:	27a50034 	addiu	a1,sp,52
    918c:	0200f809 	jalr	s0
    9190:	24060004 	li	a2,4
    9194:	3c040000 	lui	a0,0x0
			9194: R_MIPS_HI16	.bss
    9198:	24840520 	addiu	a0,a0,1312
			9198: R_MIPS_LO16	.bss
    919c:	27a50038 	addiu	a1,sp,56
    91a0:	0200f809 	jalr	s0
    91a4:	24060004 	li	a2,4
    91a8:	3c020000 	lui	v0,0x0
			91a8: R_MIPS_HI16	bmiBufferSend
    91ac:	02602021 	move	a0,s3
    91b0:	26250518 	addiu	a1,s1,1304
			91b0: R_MIPS_LO16	.bss
    91b4:	24420000 	addiu	v0,v0,0
			91b4: R_MIPS_LO16	bmiBufferSend
    91b8:	0040f809 	jalr	v0
    91bc:	2406000c 	li	a2,12
    91c0:	1440002d 	bnez	v0,9278 <BMIWriteSOCRegister+0x178>
    91c4:	8e420000 	lw	v0,0(s2)
			91c4: R_MIPS_LO16	debughtc
    91c8:	30420110 	andi	v0,v0,0x110
    91cc:	14400008 	bnez	v0,91f0 <BMIWriteSOCRegister+0xf0>
    91d0:	3c040000 	lui	a0,0x0
			91d0: R_MIPS_HI16	$LC26
    91d4:	8fbf0028 	lw	ra,40(sp)
    91d8:	8fb30024 	lw	s3,36(sp)
    91dc:	8fb20020 	lw	s2,32(sp)
    91e0:	8fb1001c 	lw	s1,28(sp)
    91e4:	8fb00018 	lw	s0,24(sp)
    91e8:	03e00008 	jr	ra
    91ec:	27bd0030 	addiu	sp,sp,48
    91f0:	3c020000 	lui	v0,0x0
			91f0: R_MIPS_HI16	printk
    91f4:	24420000 	addiu	v0,v0,0
			91f4: R_MIPS_LO16	printk
    91f8:	0040f809 	jalr	v0
    91fc:	24840000 	addiu	a0,a0,0
			91fc: R_MIPS_LO16	$LC26
    9200:	8fbf0028 	lw	ra,40(sp)
    9204:	8fb30024 	lw	s3,36(sp)
    9208:	8fb20020 	lw	s2,32(sp)
    920c:	8fb1001c 	lw	s1,28(sp)
    9210:	8fb00018 	lw	s0,24(sp)
    9214:	00001021 	move	v0,zero
    9218:	03e00008 	jr	ra
    921c:	27bd0030 	addiu	sp,sp,48
    9220:	8fa60034 	lw	a2,52(sp)
    9224:	3c040000 	lui	a0,0x0
			9224: R_MIPS_HI16	$LC25
    9228:	3c020000 	lui	v0,0x0
			9228: R_MIPS_HI16	printk
    922c:	24840000 	addiu	a0,a0,0
			922c: R_MIPS_LO16	$LC25
    9230:	24420000 	addiu	v0,v0,0
			9230: R_MIPS_LO16	printk
    9234:	0040f809 	jalr	v0
    9238:	02602821 	move	a1,s3
    923c:	08002459 	j	9164 <BMIWriteSOCRegister+0x64>
			923c: R_MIPS_26	.text
    9240:	24020007 	li	v0,7
    9244:	3c030000 	lui	v1,0x0
			9244: R_MIPS_HI16	debughtc
    9248:	8c620000 	lw	v0,0(v1)
			9248: R_MIPS_LO16	debughtc
    924c:	30420080 	andi	v0,v0,0x80
    9250:	14400003 	bnez	v0,9260 <BMIWriteSOCRegister+0x160>
    9254:	3c040000 	lui	a0,0x0
			9254: R_MIPS_HI16	$LC11
    9258:	08002475 	j	91d4 <BMIWriteSOCRegister+0xd4>
			9258: R_MIPS_26	.text
    925c:	2402ffff 	li	v0,-1
    9260:	3c020000 	lui	v0,0x0
			9260: R_MIPS_HI16	printk
    9264:	24420000 	addiu	v0,v0,0
			9264: R_MIPS_LO16	printk
    9268:	0040f809 	jalr	v0
    926c:	24840000 	addiu	a0,a0,0
			926c: R_MIPS_LO16	$LC11
    9270:	08002475 	j	91d4 <BMIWriteSOCRegister+0xd4>
			9270: R_MIPS_26	.text
    9274:	2402ffff 	li	v0,-1
    9278:	30420080 	andi	v0,v0,0x80
    927c:	1040fff6 	beqz	v0,9258 <BMIWriteSOCRegister+0x158>
    9280:	3c040000 	lui	a0,0x0
			9280: R_MIPS_HI16	$LC9
    9284:	3c020000 	lui	v0,0x0
			9284: R_MIPS_HI16	printk
    9288:	24420000 	addiu	v0,v0,0
			9288: R_MIPS_LO16	printk
    928c:	0040f809 	jalr	v0
    9290:	24840000 	addiu	a0,a0,0
			9290: R_MIPS_LO16	$LC9
    9294:	08002475 	j	91d4 <BMIWriteSOCRegister+0xd4>
			9294: R_MIPS_26	.text
    9298:	2402ffff 	li	v0,-1

0000929c <BMIReadSOCRegister>:
    929c:	27bdffd0 	addiu	sp,sp,-48
    92a0:	afb1001c 	sw	s1,28(sp)
    92a4:	3c020000 	lui	v0,0x0
			92a4: R_MIPS_HI16	memset
    92a8:	3c110000 	lui	s1,0x0
			92a8: R_MIPS_HI16	.bss
    92ac:	afb40028 	sw	s4,40(sp)
    92b0:	afb20020 	sw	s2,32(sp)
    92b4:	afa50034 	sw	a1,52(sp)
    92b8:	afbf002c 	sw	ra,44(sp)
    92bc:	afb30024 	sw	s3,36(sp)
    92c0:	afb00018 	sw	s0,24(sp)
    92c4:	00809021 	move	s2,a0
    92c8:	00c0a021 	move	s4,a2
    92cc:	26240524 	addiu	a0,s1,1316
			92cc: R_MIPS_LO16	.bss
    92d0:	00002821 	move	a1,zero
    92d4:	24420000 	addiu	v0,v0,0
			92d4: R_MIPS_LO16	memset
    92d8:	0040f809 	jalr	v0
    92dc:	24060008 	li	a2,8
    92e0:	3c030000 	lui	v1,0x0
			92e0: R_MIPS_HI16	bmiDone
    92e4:	8c620000 	lw	v0,0(v1)
			92e4: R_MIPS_LO16	bmiDone
    92e8:	1440005f 	bnez	v0,9468 <BMIReadSOCRegister+0x1cc>
    92ec:	3c130000 	lui	s3,0x0
			92ec: R_MIPS_HI16	debughtc
    92f0:	8e620000 	lw	v0,0(s3)
			92f0: R_MIPS_LO16	debughtc
    92f4:	30420110 	andi	v0,v0,0x110
    92f8:	14400035 	bnez	v0,93d0 <BMIReadSOCRegister+0x134>
    92fc:	3c040000 	lui	a0,0x0
			92fc: R_MIPS_HI16	$LC27
    9300:	3c020000 	lui	v0,0x0
			9300: R_MIPS_HI16	memcpy
    9304:	24500000 	addiu	s0,v0,0
			9304: R_MIPS_LO16	memcpy
    9308:	24020006 	li	v0,6
    930c:	26240524 	addiu	a0,s1,1316
			930c: R_MIPS_LO16	.bss
    9310:	27a50010 	addiu	a1,sp,16
    9314:	24060004 	li	a2,4
    9318:	0200f809 	jalr	s0
    931c:	afa20010 	sw	v0,16(sp)
    9320:	3c040000 	lui	a0,0x0
			9320: R_MIPS_HI16	.bss
    9324:	24840528 	addiu	a0,a0,1320
			9324: R_MIPS_LO16	.bss
    9328:	27a50034 	addiu	a1,sp,52
    932c:	0200f809 	jalr	s0
    9330:	24060004 	li	a2,4
    9334:	3c020000 	lui	v0,0x0
			9334: R_MIPS_HI16	bmiBufferSend
    9338:	02402021 	move	a0,s2
    933c:	26250524 	addiu	a1,s1,1316
			933c: R_MIPS_LO16	.bss
    9340:	24420000 	addiu	v0,v0,0
			9340: R_MIPS_LO16	bmiBufferSend
    9344:	0040f809 	jalr	v0
    9348:	24060008 	li	a2,8
    934c:	14400028 	bnez	v0,93f0 <BMIReadSOCRegister+0x154>
    9350:	3c020000 	lui	v0,0x0
			9350: R_MIPS_HI16	bmiBufferReceive
    9354:	02402021 	move	a0,s2
    9358:	26250524 	addiu	a1,s1,1316
			9358: R_MIPS_LO16	.bss
    935c:	24060004 	li	a2,4
    9360:	24420000 	addiu	v0,v0,0
			9360: R_MIPS_LO16	bmiBufferReceive
    9364:	0040f809 	jalr	v0
    9368:	24070001 	li	a3,1
    936c:	1440002d 	bnez	v0,9424 <BMIReadSOCRegister+0x188>
    9370:	26250524 	addiu	a1,s1,1316
			9370: R_MIPS_LO16	.bss
    9374:	02802021 	move	a0,s4
    9378:	0200f809 	jalr	s0
    937c:	24060004 	li	a2,4
    9380:	8e630000 	lw	v1,0(s3)
			9380: R_MIPS_LO16	debughtc
    9384:	30630110 	andi	v1,v1,0x110
    9388:	1460000a 	bnez	v1,93b4 <BMIReadSOCRegister+0x118>
    938c:	3c040000 	lui	a0,0x0
			938c: R_MIPS_HI16	$LC28
    9390:	00001021 	move	v0,zero
    9394:	8fbf002c 	lw	ra,44(sp)
    9398:	8fb40028 	lw	s4,40(sp)
    939c:	8fb30024 	lw	s3,36(sp)
    93a0:	8fb20020 	lw	s2,32(sp)
    93a4:	8fb1001c 	lw	s1,28(sp)
    93a8:	8fb00018 	lw	s0,24(sp)
    93ac:	03e00008 	jr	ra
    93b0:	27bd0030 	addiu	sp,sp,48
    93b4:	8e850000 	lw	a1,0(s4)
    93b8:	3c020000 	lui	v0,0x0
			93b8: R_MIPS_HI16	printk
    93bc:	24420000 	addiu	v0,v0,0
			93bc: R_MIPS_LO16	printk
    93c0:	0040f809 	jalr	v0
    93c4:	24840000 	addiu	a0,a0,0
			93c4: R_MIPS_LO16	$LC28
    93c8:	080024e5 	j	9394 <BMIReadSOCRegister+0xf8>
			93c8: R_MIPS_26	.text
    93cc:	00001021 	move	v0,zero
    93d0:	8fa60034 	lw	a2,52(sp)
    93d4:	3c020000 	lui	v0,0x0
			93d4: R_MIPS_HI16	printk
    93d8:	24840000 	addiu	a0,a0,0
			93d8: R_MIPS_LO16	$LC27
    93dc:	24420000 	addiu	v0,v0,0
			93dc: R_MIPS_LO16	printk
    93e0:	0040f809 	jalr	v0
    93e4:	02402821 	move	a1,s2
    93e8:	080024c1 	j	9304 <BMIReadSOCRegister+0x68>
			93e8: R_MIPS_26	.text
    93ec:	3c020000 	lui	v0,0x0
			93ec: R_MIPS_HI16	memcpy
    93f0:	8e620000 	lw	v0,0(s3)
			93f0: R_MIPS_LO16	debughtc
    93f4:	30420080 	andi	v0,v0,0x80
    93f8:	14400015 	bnez	v0,9450 <BMIReadSOCRegister+0x1b4>
    93fc:	3c040000 	lui	a0,0x0
			93fc: R_MIPS_HI16	$LC9
    9400:	8fbf002c 	lw	ra,44(sp)
    9404:	8fb40028 	lw	s4,40(sp)
    9408:	8fb30024 	lw	s3,36(sp)
    940c:	8fb20020 	lw	s2,32(sp)
    9410:	8fb1001c 	lw	s1,28(sp)
    9414:	8fb00018 	lw	s0,24(sp)
    9418:	2402ffff 	li	v0,-1
    941c:	03e00008 	jr	ra
    9420:	27bd0030 	addiu	sp,sp,48
    9424:	8e620000 	lw	v0,0(s3)
			9424: R_MIPS_LO16	debughtc
    9428:	30420080 	andi	v0,v0,0x80
    942c:	1040fff5 	beqz	v0,9404 <BMIReadSOCRegister+0x168>
    9430:	8fbf002c 	lw	ra,44(sp)
    9434:	3c040000 	lui	a0,0x0
			9434: R_MIPS_HI16	$LC23
    9438:	3c020000 	lui	v0,0x0
			9438: R_MIPS_HI16	printk
    943c:	24420000 	addiu	v0,v0,0
			943c: R_MIPS_LO16	printk
    9440:	0040f809 	jalr	v0
    9444:	24840000 	addiu	a0,a0,0
			9444: R_MIPS_LO16	$LC23
    9448:	080024e5 	j	9394 <BMIReadSOCRegister+0xf8>
			9448: R_MIPS_26	.text
    944c:	2402ffff 	li	v0,-1
    9450:	3c020000 	lui	v0,0x0
			9450: R_MIPS_HI16	printk
    9454:	24420000 	addiu	v0,v0,0
			9454: R_MIPS_LO16	printk
    9458:	0040f809 	jalr	v0
    945c:	24840000 	addiu	a0,a0,0
			945c: R_MIPS_LO16	$LC9
    9460:	080024e5 	j	9394 <BMIReadSOCRegister+0xf8>
			9460: R_MIPS_26	.text
    9464:	2402ffff 	li	v0,-1
    9468:	3c030000 	lui	v1,0x0
			9468: R_MIPS_HI16	debughtc
    946c:	8c620000 	lw	v0,0(v1)
			946c: R_MIPS_LO16	debughtc
    9470:	30420080 	andi	v0,v0,0x80
    9474:	1040ffe3 	beqz	v0,9404 <BMIReadSOCRegister+0x168>
    9478:	8fbf002c 	lw	ra,44(sp)
    947c:	3c040000 	lui	a0,0x0
			947c: R_MIPS_HI16	$LC11
    9480:	3c020000 	lui	v0,0x0
			9480: R_MIPS_HI16	printk
    9484:	24420000 	addiu	v0,v0,0
			9484: R_MIPS_LO16	printk
    9488:	0040f809 	jalr	v0
    948c:	24840000 	addiu	a0,a0,0
			948c: R_MIPS_LO16	$LC11
    9490:	080024e5 	j	9394 <BMIReadSOCRegister+0xf8>
			9490: R_MIPS_26	.text
    9494:	2402ffff 	li	v0,-1

00009498 <BMISetAppStart>:
    9498:	27bdffd0 	addiu	sp,sp,-48
    949c:	afb1001c 	sw	s1,28(sp)
    94a0:	3c020000 	lui	v0,0x0
			94a0: R_MIPS_HI16	memset
    94a4:	3c110000 	lui	s1,0x0
			94a4: R_MIPS_HI16	.bss
    94a8:	afb30024 	sw	s3,36(sp)
    94ac:	afa50034 	sw	a1,52(sp)
    94b0:	afbf0028 	sw	ra,40(sp)
    94b4:	afb20020 	sw	s2,32(sp)
    94b8:	afb00018 	sw	s0,24(sp)
    94bc:	00809821 	move	s3,a0
    94c0:	00002821 	move	a1,zero
    94c4:	2624052c 	addiu	a0,s1,1324
			94c4: R_MIPS_LO16	.bss
    94c8:	24420000 	addiu	v0,v0,0
			94c8: R_MIPS_LO16	memset
    94cc:	0040f809 	jalr	v0
    94d0:	24060008 	li	a2,8
    94d4:	3c030000 	lui	v1,0x0
			94d4: R_MIPS_HI16	bmiDone
    94d8:	8c620000 	lw	v0,0(v1)
			94d8: R_MIPS_LO16	bmiDone
    94dc:	14400038 	bnez	v0,95c0 <BMISetAppStart+0x128>
    94e0:	3c120000 	lui	s2,0x0
			94e0: R_MIPS_HI16	debughtc
    94e4:	8e420000 	lw	v0,0(s2)
			94e4: R_MIPS_LO16	debughtc
    94e8:	30420110 	andi	v0,v0,0x110
    94ec:	1440002c 	bnez	v0,95a0 <BMISetAppStart+0x108>
    94f0:	3c040000 	lui	a0,0x0
			94f0: R_MIPS_HI16	$LC29
    94f4:	24020005 	li	v0,5
    94f8:	3c100000 	lui	s0,0x0
			94f8: R_MIPS_HI16	memcpy
    94fc:	26100000 	addiu	s0,s0,0
			94fc: R_MIPS_LO16	memcpy
    9500:	2624052c 	addiu	a0,s1,1324
			9500: R_MIPS_LO16	.bss
    9504:	27a50010 	addiu	a1,sp,16
    9508:	24060004 	li	a2,4
    950c:	0200f809 	jalr	s0
    9510:	afa20010 	sw	v0,16(sp)
    9514:	3c040000 	lui	a0,0x0
			9514: R_MIPS_HI16	.bss
    9518:	24840530 	addiu	a0,a0,1328
			9518: R_MIPS_LO16	.bss
    951c:	27a50034 	addiu	a1,sp,52
    9520:	0200f809 	jalr	s0
    9524:	24060004 	li	a2,4
    9528:	3c020000 	lui	v0,0x0
			9528: R_MIPS_HI16	bmiBufferSend
    952c:	02602021 	move	a0,s3
    9530:	2625052c 	addiu	a1,s1,1324
			9530: R_MIPS_LO16	.bss
    9534:	24420000 	addiu	v0,v0,0
			9534: R_MIPS_LO16	bmiBufferSend
    9538:	0040f809 	jalr	v0
    953c:	24060008 	li	a2,8
    9540:	1440002c 	bnez	v0,95f4 <BMISetAppStart+0x15c>
    9544:	8e420000 	lw	v0,0(s2)
			9544: R_MIPS_LO16	debughtc
    9548:	30420110 	andi	v0,v0,0x110
    954c:	14400008 	bnez	v0,9570 <BMISetAppStart+0xd8>
    9550:	3c040000 	lui	a0,0x0
			9550: R_MIPS_HI16	$LC30
    9554:	8fbf0028 	lw	ra,40(sp)
    9558:	8fb30024 	lw	s3,36(sp)
    955c:	8fb20020 	lw	s2,32(sp)
    9560:	8fb1001c 	lw	s1,28(sp)
    9564:	8fb00018 	lw	s0,24(sp)
    9568:	03e00008 	jr	ra
    956c:	27bd0030 	addiu	sp,sp,48
    9570:	3c020000 	lui	v0,0x0
			9570: R_MIPS_HI16	printk
    9574:	24420000 	addiu	v0,v0,0
			9574: R_MIPS_LO16	printk
    9578:	0040f809 	jalr	v0
    957c:	24840000 	addiu	a0,a0,0
			957c: R_MIPS_LO16	$LC30
    9580:	8fbf0028 	lw	ra,40(sp)
    9584:	8fb30024 	lw	s3,36(sp)
    9588:	8fb20020 	lw	s2,32(sp)
    958c:	8fb1001c 	lw	s1,28(sp)
    9590:	8fb00018 	lw	s0,24(sp)
    9594:	00001021 	move	v0,zero
    9598:	03e00008 	jr	ra
    959c:	27bd0030 	addiu	sp,sp,48
    95a0:	8fa60034 	lw	a2,52(sp)
    95a4:	3c020000 	lui	v0,0x0
			95a4: R_MIPS_HI16	printk
    95a8:	24840000 	addiu	a0,a0,0
			95a8: R_MIPS_LO16	$LC29
    95ac:	24420000 	addiu	v0,v0,0
			95ac: R_MIPS_LO16	printk
    95b0:	0040f809 	jalr	v0
    95b4:	02602821 	move	a1,s3
    95b8:	0800253e 	j	94f8 <BMISetAppStart+0x60>
			95b8: R_MIPS_26	.text
    95bc:	24020005 	li	v0,5
    95c0:	3c030000 	lui	v1,0x0
			95c0: R_MIPS_HI16	debughtc
    95c4:	8c620000 	lw	v0,0(v1)
			95c4: R_MIPS_LO16	debughtc
    95c8:	30420080 	andi	v0,v0,0x80
    95cc:	14400003 	bnez	v0,95dc <BMISetAppStart+0x144>
    95d0:	3c040000 	lui	a0,0x0
			95d0: R_MIPS_HI16	$LC11
    95d4:	08002555 	j	9554 <BMISetAppStart+0xbc>
			95d4: R_MIPS_26	.text
    95d8:	2402ffff 	li	v0,-1
    95dc:	3c020000 	lui	v0,0x0
			95dc: R_MIPS_HI16	printk
    95e0:	24420000 	addiu	v0,v0,0
			95e0: R_MIPS_LO16	printk
    95e4:	0040f809 	jalr	v0
    95e8:	24840000 	addiu	a0,a0,0
			95e8: R_MIPS_LO16	$LC11
    95ec:	08002555 	j	9554 <BMISetAppStart+0xbc>
			95ec: R_MIPS_26	.text
    95f0:	2402ffff 	li	v0,-1
    95f4:	30420080 	andi	v0,v0,0x80
    95f8:	1040fff6 	beqz	v0,95d4 <BMISetAppStart+0x13c>
    95fc:	3c040000 	lui	a0,0x0
			95fc: R_MIPS_HI16	$LC9
    9600:	3c020000 	lui	v0,0x0
			9600: R_MIPS_HI16	printk
    9604:	24420000 	addiu	v0,v0,0
			9604: R_MIPS_LO16	printk
    9608:	0040f809 	jalr	v0
    960c:	24840000 	addiu	a0,a0,0
			960c: R_MIPS_LO16	$LC9
    9610:	08002555 	j	9554 <BMISetAppStart+0xbc>
			9610: R_MIPS_26	.text
    9614:	2402ffff 	li	v0,-1

00009618 <BMIExecute>:
    9618:	27bdffd0 	addiu	sp,sp,-48
    961c:	afb1001c 	sw	s1,28(sp)
    9620:	3c020000 	lui	v0,0x0
			9620: R_MIPS_HI16	memset
    9624:	3c110000 	lui	s1,0x0
			9624: R_MIPS_HI16	.bss
    9628:	afb40028 	sw	s4,40(sp)
    962c:	afb20020 	sw	s2,32(sp)
    9630:	afa50034 	sw	a1,52(sp)
    9634:	afbf002c 	sw	ra,44(sp)
    9638:	afb30024 	sw	s3,36(sp)
    963c:	afb00018 	sw	s0,24(sp)
    9640:	00809021 	move	s2,a0
    9644:	00c0a021 	move	s4,a2
    9648:	26240534 	addiu	a0,s1,1332
			9648: R_MIPS_LO16	.bss
    964c:	00002821 	move	a1,zero
    9650:	24420000 	addiu	v0,v0,0
			9650: R_MIPS_LO16	memset
    9654:	0040f809 	jalr	v0
    9658:	2406000c 	li	a2,12
    965c:	3c030000 	lui	v1,0x0
			965c: R_MIPS_HI16	bmiDone
    9660:	8c620000 	lw	v0,0(v1)
			9660: R_MIPS_LO16	bmiDone
    9664:	14400065 	bnez	v0,97fc <BMIExecute+0x1e4>
    9668:	3c130000 	lui	s3,0x0
			9668: R_MIPS_HI16	debughtc
    966c:	8e620000 	lw	v0,0(s3)
			966c: R_MIPS_LO16	debughtc
    9670:	30420110 	andi	v0,v0,0x110
    9674:	1440003a 	bnez	v0,9760 <BMIExecute+0x148>
    9678:	3c040000 	lui	a0,0x0
			9678: R_MIPS_HI16	$LC31
    967c:	3c020000 	lui	v0,0x0
			967c: R_MIPS_HI16	memcpy
    9680:	24500000 	addiu	s0,v0,0
			9680: R_MIPS_LO16	memcpy
    9684:	24020004 	li	v0,4
    9688:	26240534 	addiu	a0,s1,1332
			9688: R_MIPS_LO16	.bss
    968c:	27a50010 	addiu	a1,sp,16
    9690:	24060004 	li	a2,4
    9694:	0200f809 	jalr	s0
    9698:	afa20010 	sw	v0,16(sp)
    969c:	3c040000 	lui	a0,0x0
			969c: R_MIPS_HI16	.bss
    96a0:	24840538 	addiu	a0,a0,1336
			96a0: R_MIPS_LO16	.bss
    96a4:	27a50034 	addiu	a1,sp,52
    96a8:	0200f809 	jalr	s0
    96ac:	24060004 	li	a2,4
    96b0:	3c040000 	lui	a0,0x0
			96b0: R_MIPS_HI16	.bss
    96b4:	2484053c 	addiu	a0,a0,1340
			96b4: R_MIPS_LO16	.bss
    96b8:	02802821 	move	a1,s4
    96bc:	0200f809 	jalr	s0
    96c0:	24060004 	li	a2,4
    96c4:	3c020000 	lui	v0,0x0
			96c4: R_MIPS_HI16	bmiBufferSend
    96c8:	02402021 	move	a0,s2
    96cc:	26250534 	addiu	a1,s1,1332
			96cc: R_MIPS_LO16	.bss
    96d0:	24420000 	addiu	v0,v0,0
			96d0: R_MIPS_LO16	bmiBufferSend
    96d4:	0040f809 	jalr	v0
    96d8:	2406000c 	li	a2,12
    96dc:	14400029 	bnez	v0,9784 <BMIExecute+0x16c>
    96e0:	3c020000 	lui	v0,0x0
			96e0: R_MIPS_HI16	bmiBufferReceive
    96e4:	02402021 	move	a0,s2
    96e8:	26250534 	addiu	a1,s1,1332
			96e8: R_MIPS_LO16	.bss
    96ec:	24060004 	li	a2,4
    96f0:	24420000 	addiu	v0,v0,0
			96f0: R_MIPS_LO16	bmiBufferReceive
    96f4:	0040f809 	jalr	v0
    96f8:	00003821 	move	a3,zero
    96fc:	1440002e 	bnez	v0,97b8 <BMIExecute+0x1a0>
    9700:	26250534 	addiu	a1,s1,1332
			9700: R_MIPS_LO16	.bss
    9704:	02802021 	move	a0,s4
    9708:	0200f809 	jalr	s0
    970c:	24060004 	li	a2,4
    9710:	8e630000 	lw	v1,0(s3)
			9710: R_MIPS_LO16	debughtc
    9714:	30630110 	andi	v1,v1,0x110
    9718:	1460000a 	bnez	v1,9744 <BMIExecute+0x12c>
    971c:	3c040000 	lui	a0,0x0
			971c: R_MIPS_HI16	$LC32
    9720:	00001021 	move	v0,zero
    9724:	8fbf002c 	lw	ra,44(sp)
    9728:	8fb40028 	lw	s4,40(sp)
    972c:	8fb30024 	lw	s3,36(sp)
    9730:	8fb20020 	lw	s2,32(sp)
    9734:	8fb1001c 	lw	s1,28(sp)
    9738:	8fb00018 	lw	s0,24(sp)
    973c:	03e00008 	jr	ra
    9740:	27bd0030 	addiu	sp,sp,48
    9744:	8e850000 	lw	a1,0(s4)
    9748:	3c020000 	lui	v0,0x0
			9748: R_MIPS_HI16	printk
    974c:	24420000 	addiu	v0,v0,0
			974c: R_MIPS_LO16	printk
    9750:	0040f809 	jalr	v0
    9754:	24840000 	addiu	a0,a0,0
			9754: R_MIPS_LO16	$LC32
    9758:	080025c9 	j	9724 <BMIExecute+0x10c>
			9758: R_MIPS_26	.text
    975c:	00001021 	move	v0,zero
    9760:	8fa60034 	lw	a2,52(sp)
    9764:	8e870000 	lw	a3,0(s4)
    9768:	3c020000 	lui	v0,0x0
			9768: R_MIPS_HI16	printk
    976c:	24840000 	addiu	a0,a0,0
			976c: R_MIPS_LO16	$LC31
    9770:	24420000 	addiu	v0,v0,0
			9770: R_MIPS_LO16	printk
    9774:	0040f809 	jalr	v0
    9778:	02402821 	move	a1,s2
    977c:	080025a0 	j	9680 <BMIExecute+0x68>
			977c: R_MIPS_26	.text
    9780:	3c020000 	lui	v0,0x0
			9780: R_MIPS_HI16	memcpy
    9784:	8e620000 	lw	v0,0(s3)
			9784: R_MIPS_LO16	debughtc
    9788:	30420080 	andi	v0,v0,0x80
    978c:	14400015 	bnez	v0,97e4 <BMIExecute+0x1cc>
    9790:	3c040000 	lui	a0,0x0
			9790: R_MIPS_HI16	$LC9
    9794:	8fbf002c 	lw	ra,44(sp)
    9798:	8fb40028 	lw	s4,40(sp)
    979c:	8fb30024 	lw	s3,36(sp)
    97a0:	8fb20020 	lw	s2,32(sp)
    97a4:	8fb1001c 	lw	s1,28(sp)
    97a8:	8fb00018 	lw	s0,24(sp)
    97ac:	2402ffff 	li	v0,-1
    97b0:	03e00008 	jr	ra
    97b4:	27bd0030 	addiu	sp,sp,48
    97b8:	8e620000 	lw	v0,0(s3)
			97b8: R_MIPS_LO16	debughtc
    97bc:	30420080 	andi	v0,v0,0x80
    97c0:	1040fff5 	beqz	v0,9798 <BMIExecute+0x180>
    97c4:	8fbf002c 	lw	ra,44(sp)
    97c8:	3c040000 	lui	a0,0x0
			97c8: R_MIPS_HI16	$LC23
    97cc:	3c020000 	lui	v0,0x0
			97cc: R_MIPS_HI16	printk
    97d0:	24420000 	addiu	v0,v0,0
			97d0: R_MIPS_LO16	printk
    97d4:	0040f809 	jalr	v0
    97d8:	24840000 	addiu	a0,a0,0
			97d8: R_MIPS_LO16	$LC23
    97dc:	080025c9 	j	9724 <BMIExecute+0x10c>
			97dc: R_MIPS_26	.text
    97e0:	2402ffff 	li	v0,-1
    97e4:	3c020000 	lui	v0,0x0
			97e4: R_MIPS_HI16	printk
    97e8:	24420000 	addiu	v0,v0,0
			97e8: R_MIPS_LO16	printk
    97ec:	0040f809 	jalr	v0
    97f0:	24840000 	addiu	a0,a0,0
			97f0: R_MIPS_LO16	$LC9
    97f4:	080025c9 	j	9724 <BMIExecute+0x10c>
			97f4: R_MIPS_26	.text
    97f8:	2402ffff 	li	v0,-1
    97fc:	3c030000 	lui	v1,0x0
			97fc: R_MIPS_HI16	debughtc
    9800:	8c620000 	lw	v0,0(v1)
			9800: R_MIPS_LO16	debughtc
    9804:	30420080 	andi	v0,v0,0x80
    9808:	1040ffe3 	beqz	v0,9798 <BMIExecute+0x180>
    980c:	8fbf002c 	lw	ra,44(sp)
    9810:	3c040000 	lui	a0,0x0
			9810: R_MIPS_HI16	$LC11
    9814:	3c020000 	lui	v0,0x0
			9814: R_MIPS_HI16	printk
    9818:	24420000 	addiu	v0,v0,0
			9818: R_MIPS_LO16	printk
    981c:	0040f809 	jalr	v0
    9820:	24840000 	addiu	a0,a0,0
			9820: R_MIPS_LO16	$LC11
    9824:	080025c9 	j	9724 <BMIExecute+0x10c>
			9824: R_MIPS_26	.text
    9828:	2402ffff 	li	v0,-1

0000982c <BMIWriteMemory>:
    982c:	27bdffc0 	addiu	sp,sp,-64
    9830:	afb20020 	sw	s2,32(sp)
    9834:	3c020000 	lui	v0,0x0
			9834: R_MIPS_HI16	memset
    9838:	3c120000 	lui	s2,0x0
			9838: R_MIPS_HI16	.bss
    983c:	afb30024 	sw	s3,36(sp)
    9840:	afa50044 	sw	a1,68(sp)
    9844:	afa40040 	sw	a0,64(sp)
    9848:	afa60048 	sw	a2,72(sp)
    984c:	afbf003c 	sw	ra,60(sp)
    9850:	afbe0038 	sw	s8,56(sp)
    9854:	afb70034 	sw	s7,52(sp)
    9858:	afb60030 	sw	s6,48(sp)
    985c:	afb5002c 	sw	s5,44(sp)
    9860:	afb40028 	sw	s4,40(sp)
    9864:	afb1001c 	sw	s1,28(sp)
    9868:	afb00018 	sw	s0,24(sp)
    986c:	26440540 	addiu	a0,s2,1344
			986c: R_MIPS_LO16	.bss
    9870:	00002821 	move	a1,zero
    9874:	2406010c 	li	a2,268
    9878:	24420000 	addiu	v0,v0,0
			9878: R_MIPS_LO16	memset
    987c:	0040f809 	jalr	v0
    9880:	00e09821 	move	s3,a3
    9884:	3c030000 	lui	v1,0x0
			9884: R_MIPS_HI16	bmiDone
    9888:	8c620000 	lw	v0,0(v1)
			9888: R_MIPS_LO16	bmiDone
    988c:	14400072 	bnez	v0,9a58 <BMIWriteMemory+0x22c>
    9890:	3c030000 	lui	v1,0x0
			9890: R_MIPS_HI16	debughtc
    9894:	8c620000 	lw	v0,0(v1)
			9894: R_MIPS_LO16	debughtc
    9898:	30420110 	andi	v0,v0,0x110
    989c:	1440005f 	bnez	v0,9a1c <BMIWriteMemory+0x1f0>
    98a0:	8fa60044 	lw	a2,68(sp)
    98a4:	24020003 	li	v0,3
    98a8:	12600045 	beqz	s3,99c0 <BMIWriteMemory+0x194>
    98ac:	afa20010 	sw	v0,16(sp)
    98b0:	3c030000 	lui	v1,0x0
			98b0: R_MIPS_HI16	memcpy
    98b4:	24710000 	addiu	s1,v1,0
			98b4: R_MIPS_LO16	memcpy
    98b8:	02608021 	move	s0,s3
    98bc:	27be0010 	addiu	s8,sp,16
    98c0:	27b70044 	addiu	s7,sp,68
    98c4:	27b60014 	addiu	s6,sp,20
    98c8:	3c150000 	lui	s5,0x0
			98c8: R_MIPS_HI16	bmiBufferSend
    98cc:	0800263a 	j	98e8 <BMIWriteMemory+0xbc>
			98cc: R_MIPS_26	.text
    98d0:	241400f4 	li	s4,244
    98d4:	8fa20044 	lw	v0,68(sp)
    98d8:	02038023 	subu	s0,s0,v1
    98dc:	00431021 	addu	v0,v0,v1
    98e0:	12000037 	beqz	s0,99c0 <BMIWriteMemory+0x194>
    98e4:	afa20044 	sw	v0,68(sp)
    98e8:	2e0200f5 	sltiu	v0,s0,245
    98ec:	02801821 	move	v1,s4
    98f0:	0202180b 	movn	v1,s0,v0
    98f4:	afa30014 	sw	v1,20(sp)
    98f8:	24060004 	li	a2,4
    98fc:	26440540 	addiu	a0,s2,1344
			98fc: R_MIPS_LO16	.bss
    9900:	0220f809 	jalr	s1
    9904:	03c02821 	move	a1,s8
    9908:	3c020000 	lui	v0,0x0
			9908: R_MIPS_HI16	$LC35
    990c:	24420000 	addiu	v0,v0,0
			990c: R_MIPS_LO16	$LC35
    9910:	8c440000 	lw	a0,0(v0)
    9914:	02e02821 	move	a1,s7
    9918:	0220f809 	jalr	s1
    991c:	24060004 	li	a2,4
    9920:	3c030000 	lui	v1,0x0
			9920: R_MIPS_HI16	$LC36
    9924:	24630000 	addiu	v1,v1,0
			9924: R_MIPS_LO16	$LC36
    9928:	8c640000 	lw	a0,0(v1)
    992c:	02c02821 	move	a1,s6
    9930:	0220f809 	jalr	s1
    9934:	24060004 	li	a2,4
    9938:	3c030000 	lui	v1,0x0
			9938: R_MIPS_HI16	$LC37
    993c:	8fa20048 	lw	v0,72(sp)
    9940:	24630000 	addiu	v1,v1,0
			9940: R_MIPS_LO16	$LC37
    9944:	8fa60014 	lw	a2,20(sp)
    9948:	8c640000 	lw	a0,0(v1)
    994c:	02702823 	subu	a1,s3,s0
    9950:	0220f809 	jalr	s1
    9954:	00a22821 	addu	a1,a1,v0
    9958:	8fa60014 	lw	a2,20(sp)
    995c:	8fa40040 	lw	a0,64(sp)
    9960:	24c6000c 	addiu	a2,a2,12
    9964:	26a20000 	addiu	v0,s5,0
			9964: R_MIPS_LO16	bmiBufferSend
    9968:	0040f809 	jalr	v0
    996c:	26450540 	addiu	a1,s2,1344
			996c: R_MIPS_LO16	.bss
    9970:	1040ffd8 	beqz	v0,98d4 <BMIWriteMemory+0xa8>
    9974:	8fa30014 	lw	v1,20(sp)
    9978:	3c030000 	lui	v1,0x0
			9978: R_MIPS_HI16	debughtc
    997c:	8c620000 	lw	v0,0(v1)
			997c: R_MIPS_LO16	debughtc
    9980:	30420080 	andi	v0,v0,0x80
    9984:	1440002e 	bnez	v0,9a40 <BMIWriteMemory+0x214>
    9988:	3c040000 	lui	a0,0x0
			9988: R_MIPS_HI16	$LC9
    998c:	2402ffff 	li	v0,-1
    9990:	8fbf003c 	lw	ra,60(sp)
    9994:	8fbe0038 	lw	s8,56(sp)
    9998:	8fb70034 	lw	s7,52(sp)
    999c:	8fb60030 	lw	s6,48(sp)
    99a0:	8fb5002c 	lw	s5,44(sp)
    99a4:	8fb40028 	lw	s4,40(sp)
    99a8:	8fb30024 	lw	s3,36(sp)
    99ac:	8fb20020 	lw	s2,32(sp)
    99b0:	8fb1001c 	lw	s1,28(sp)
    99b4:	8fb00018 	lw	s0,24(sp)
    99b8:	03e00008 	jr	ra
    99bc:	27bd0040 	addiu	sp,sp,64
    99c0:	3c030000 	lui	v1,0x0
			99c0: R_MIPS_HI16	debughtc
    99c4:	8c620000 	lw	v0,0(v1)
			99c4: R_MIPS_LO16	debughtc
    99c8:	30420110 	andi	v0,v0,0x110
    99cc:	1040fff1 	beqz	v0,9994 <BMIWriteMemory+0x168>
    99d0:	8fbf003c 	lw	ra,60(sp)
    99d4:	3c040000 	lui	a0,0x0
			99d4: R_MIPS_HI16	$LC34
    99d8:	3c020000 	lui	v0,0x0
			99d8: R_MIPS_HI16	printk
    99dc:	24420000 	addiu	v0,v0,0
			99dc: R_MIPS_LO16	printk
    99e0:	0040f809 	jalr	v0
    99e4:	24840000 	addiu	a0,a0,0
			99e4: R_MIPS_LO16	$LC34
    99e8:	8fbf003c 	lw	ra,60(sp)
    99ec:	8fbe0038 	lw	s8,56(sp)
    99f0:	8fb70034 	lw	s7,52(sp)
    99f4:	8fb60030 	lw	s6,48(sp)
    99f8:	8fb5002c 	lw	s5,44(sp)
    99fc:	8fb40028 	lw	s4,40(sp)
    9a00:	8fb30024 	lw	s3,36(sp)
    9a04:	8fb20020 	lw	s2,32(sp)
    9a08:	8fb1001c 	lw	s1,28(sp)
    9a0c:	8fb00018 	lw	s0,24(sp)
    9a10:	00001021 	move	v0,zero
    9a14:	03e00008 	jr	ra
    9a18:	27bd0040 	addiu	sp,sp,64
    9a1c:	3c040000 	lui	a0,0x0
			9a1c: R_MIPS_HI16	$LC33
    9a20:	8fa50040 	lw	a1,64(sp)
    9a24:	3c020000 	lui	v0,0x0
			9a24: R_MIPS_HI16	printk
    9a28:	24840000 	addiu	a0,a0,0
			9a28: R_MIPS_LO16	$LC33
    9a2c:	24420000 	addiu	v0,v0,0
			9a2c: R_MIPS_LO16	printk
    9a30:	0040f809 	jalr	v0
    9a34:	02603821 	move	a3,s3
    9a38:	0800262a 	j	98a8 <BMIWriteMemory+0x7c>
			9a38: R_MIPS_26	.text
    9a3c:	24020003 	li	v0,3
    9a40:	3c020000 	lui	v0,0x0
			9a40: R_MIPS_HI16	printk
    9a44:	24420000 	addiu	v0,v0,0
			9a44: R_MIPS_LO16	printk
    9a48:	0040f809 	jalr	v0
    9a4c:	24840000 	addiu	a0,a0,0
			9a4c: R_MIPS_LO16	$LC9
    9a50:	08002664 	j	9990 <BMIWriteMemory+0x164>
			9a50: R_MIPS_26	.text
    9a54:	2402ffff 	li	v0,-1
    9a58:	8c620000 	lw	v0,0(v1)
			9a58: R_MIPS_LO16	debughtc
    9a5c:	30420080 	andi	v0,v0,0x80
    9a60:	1040ffca 	beqz	v0,998c <BMIWriteMemory+0x160>
    9a64:	3c040000 	lui	a0,0x0
			9a64: R_MIPS_HI16	$LC11
    9a68:	3c020000 	lui	v0,0x0
			9a68: R_MIPS_HI16	printk
    9a6c:	24420000 	addiu	v0,v0,0
			9a6c: R_MIPS_LO16	printk
    9a70:	0040f809 	jalr	v0
    9a74:	24840000 	addiu	a0,a0,0
			9a74: R_MIPS_LO16	$LC11
    9a78:	08002664 	j	9990 <BMIWriteMemory+0x164>
			9a78: R_MIPS_26	.text
    9a7c:	2402ffff 	li	v0,-1

00009a80 <BMIReadMemory>:
    9a80:	27bdffc0 	addiu	sp,sp,-64
    9a84:	afb20020 	sw	s2,32(sp)
    9a88:	3c020000 	lui	v0,0x0
			9a88: R_MIPS_HI16	memset
    9a8c:	3c120000 	lui	s2,0x0
			9a8c: R_MIPS_HI16	.bss
    9a90:	afb5002c 	sw	s5,44(sp)
    9a94:	afb30024 	sw	s3,36(sp)
    9a98:	afa50044 	sw	a1,68(sp)
    9a9c:	afa60048 	sw	a2,72(sp)
    9aa0:	afbf003c 	sw	ra,60(sp)
    9aa4:	afbe0038 	sw	s8,56(sp)
    9aa8:	afb70034 	sw	s7,52(sp)
    9aac:	afb60030 	sw	s6,48(sp)
    9ab0:	afb40028 	sw	s4,40(sp)
    9ab4:	afb1001c 	sw	s1,28(sp)
    9ab8:	afb00018 	sw	s0,24(sp)
    9abc:	00809821 	move	s3,a0
    9ac0:	00002821 	move	a1,zero
    9ac4:	2644064c 	addiu	a0,s2,1612
			9ac4: R_MIPS_LO16	.bss
    9ac8:	2406010c 	li	a2,268
    9acc:	24420000 	addiu	v0,v0,0
			9acc: R_MIPS_LO16	memset
    9ad0:	0040f809 	jalr	v0
    9ad4:	00e0a821 	move	s5,a3
    9ad8:	3c030000 	lui	v1,0x0
			9ad8: R_MIPS_HI16	bmiDone
    9adc:	8c620000 	lw	v0,0(v1)
			9adc: R_MIPS_LO16	bmiDone
    9ae0:	14400081 	bnez	v0,9ce8 <BMIReadMemory+0x268>
    9ae4:	3c030000 	lui	v1,0x0
			9ae4: R_MIPS_HI16	debughtc
    9ae8:	8c620000 	lw	v0,0(v1)
			9ae8: R_MIPS_LO16	debughtc
    9aec:	30420110 	andi	v0,v0,0x110
    9af0:	1440006e 	bnez	v0,9cac <BMIReadMemory+0x22c>
    9af4:	8fa60044 	lw	a2,68(sp)
    9af8:	24020002 	li	v0,2
    9afc:	12a00049 	beqz	s5,9c24 <BMIReadMemory+0x1a4>
    9b00:	afa20010 	sw	v0,16(sp)
    9b04:	3c020000 	lui	v0,0x0
			9b04: R_MIPS_HI16	memcpy
    9b08:	24510000 	addiu	s1,v0,0
			9b08: R_MIPS_LO16	memcpy
    9b0c:	02a08021 	move	s0,s5
    9b10:	27be0044 	addiu	s8,sp,68
    9b14:	27b70014 	addiu	s7,sp,20
    9b18:	3c160000 	lui	s6,0x0
			9b18: R_MIPS_HI16	bmiBufferSend
    9b1c:	080026da 	j	9b68 <BMIReadMemory+0xe8>
			9b1c: R_MIPS_26	.text
    9b20:	0240a021 	move	s4,s2
    9b24:	3c030000 	lui	v1,0x0
			9b24: R_MIPS_HI16	bmiBufferReceive
    9b28:	24630000 	addiu	v1,v1,0
			9b28: R_MIPS_LO16	bmiBufferReceive
    9b2c:	0060f809 	jalr	v1
    9b30:	8fa60014 	lw	a2,20(sp)
    9b34:	8fa30048 	lw	v1,72(sp)
    9b38:	02b02023 	subu	a0,s5,s0
    9b3c:	00832021 	addu	a0,a0,v1
    9b40:	1440004f 	bnez	v0,9c80 <BMIReadMemory+0x200>
    9b44:	2685064c 	addiu	a1,s4,1612
			9b44: R_MIPS_LO16	.bss
    9b48:	0220f809 	jalr	s1
    9b4c:	8fa60014 	lw	a2,20(sp)
    9b50:	8fa30014 	lw	v1,20(sp)
    9b54:	8fa20044 	lw	v0,68(sp)
    9b58:	02038023 	subu	s0,s0,v1
    9b5c:	00431021 	addu	v0,v0,v1
    9b60:	12000030 	beqz	s0,9c24 <BMIReadMemory+0x1a4>
    9b64:	afa20044 	sw	v0,68(sp)
    9b68:	2e030101 	sltiu	v1,s0,257
    9b6c:	24020100 	li	v0,256
    9b70:	0203100b 	movn	v0,s0,v1
    9b74:	24060004 	li	a2,4
    9b78:	2644064c 	addiu	a0,s2,1612
			9b78: R_MIPS_LO16	.bss
    9b7c:	27a50010 	addiu	a1,sp,16
    9b80:	0220f809 	jalr	s1
    9b84:	afa20014 	sw	v0,20(sp)
    9b88:	3c020000 	lui	v0,0x0
			9b88: R_MIPS_HI16	$LC40
    9b8c:	24420000 	addiu	v0,v0,0
			9b8c: R_MIPS_LO16	$LC40
    9b90:	8c440000 	lw	a0,0(v0)
    9b94:	03c02821 	move	a1,s8
    9b98:	0220f809 	jalr	s1
    9b9c:	24060004 	li	a2,4
    9ba0:	3c030000 	lui	v1,0x0
			9ba0: R_MIPS_HI16	$LC41
    9ba4:	24630000 	addiu	v1,v1,0
			9ba4: R_MIPS_LO16	$LC41
    9ba8:	8c640000 	lw	a0,0(v1)
    9bac:	02e02821 	move	a1,s7
    9bb0:	0220f809 	jalr	s1
    9bb4:	24060004 	li	a2,4
    9bb8:	02602021 	move	a0,s3
    9bbc:	2645064c 	addiu	a1,s2,1612
			9bbc: R_MIPS_LO16	.bss
    9bc0:	26c20000 	addiu	v0,s6,0
			9bc0: R_MIPS_LO16	bmiBufferSend
    9bc4:	0040f809 	jalr	v0
    9bc8:	2406000c 	li	a2,12
    9bcc:	02602021 	move	a0,s3
    9bd0:	2685064c 	addiu	a1,s4,1612
			9bd0: R_MIPS_LO16	.bss
    9bd4:	1040ffd3 	beqz	v0,9b24 <BMIReadMemory+0xa4>
    9bd8:	24070001 	li	a3,1
    9bdc:	3c030000 	lui	v1,0x0
			9bdc: R_MIPS_HI16	debughtc
    9be0:	8c620000 	lw	v0,0(v1)
			9be0: R_MIPS_LO16	debughtc
    9be4:	30420080 	andi	v0,v0,0x80
    9be8:	14400039 	bnez	v0,9cd0 <BMIReadMemory+0x250>
    9bec:	3c030000 	lui	v1,0x0
			9bec: R_MIPS_HI16	printk
    9bf0:	2402ffff 	li	v0,-1
    9bf4:	8fbf003c 	lw	ra,60(sp)
    9bf8:	8fbe0038 	lw	s8,56(sp)
    9bfc:	8fb70034 	lw	s7,52(sp)
    9c00:	8fb60030 	lw	s6,48(sp)
    9c04:	8fb5002c 	lw	s5,44(sp)
    9c08:	8fb40028 	lw	s4,40(sp)
    9c0c:	8fb30024 	lw	s3,36(sp)
    9c10:	8fb20020 	lw	s2,32(sp)
    9c14:	8fb1001c 	lw	s1,28(sp)
    9c18:	8fb00018 	lw	s0,24(sp)
    9c1c:	03e00008 	jr	ra
    9c20:	27bd0040 	addiu	sp,sp,64
    9c24:	3c030000 	lui	v1,0x0
			9c24: R_MIPS_HI16	debughtc
    9c28:	8c620000 	lw	v0,0(v1)
			9c28: R_MIPS_LO16	debughtc
    9c2c:	30420110 	andi	v0,v0,0x110
    9c30:	1040fff1 	beqz	v0,9bf8 <BMIReadMemory+0x178>
    9c34:	8fbf003c 	lw	ra,60(sp)
    9c38:	3c040000 	lui	a0,0x0
			9c38: R_MIPS_HI16	$LC39
    9c3c:	3c020000 	lui	v0,0x0
			9c3c: R_MIPS_HI16	printk
    9c40:	24420000 	addiu	v0,v0,0
			9c40: R_MIPS_LO16	printk
    9c44:	0040f809 	jalr	v0
    9c48:	24840000 	addiu	a0,a0,0
			9c48: R_MIPS_LO16	$LC39
    9c4c:	8fbf003c 	lw	ra,60(sp)
    9c50:	8fbe0038 	lw	s8,56(sp)
    9c54:	8fb70034 	lw	s7,52(sp)
    9c58:	8fb60030 	lw	s6,48(sp)
    9c5c:	8fb5002c 	lw	s5,44(sp)
    9c60:	8fb40028 	lw	s4,40(sp)
    9c64:	8fb30024 	lw	s3,36(sp)
    9c68:	8fb20020 	lw	s2,32(sp)
    9c6c:	8fb1001c 	lw	s1,28(sp)
    9c70:	8fb00018 	lw	s0,24(sp)
    9c74:	00001021 	move	v0,zero
    9c78:	03e00008 	jr	ra
    9c7c:	27bd0040 	addiu	sp,sp,64
    9c80:	3c030000 	lui	v1,0x0
			9c80: R_MIPS_HI16	debughtc
    9c84:	8c620000 	lw	v0,0(v1)
			9c84: R_MIPS_LO16	debughtc
    9c88:	30420080 	andi	v0,v0,0x80
    9c8c:	1040ffd8 	beqz	v0,9bf0 <BMIReadMemory+0x170>
    9c90:	3c030000 	lui	v1,0x0
			9c90: R_MIPS_HI16	printk
    9c94:	3c040000 	lui	a0,0x0
			9c94: R_MIPS_HI16	$LC23
    9c98:	24630000 	addiu	v1,v1,0
			9c98: R_MIPS_LO16	printk
    9c9c:	0060f809 	jalr	v1
    9ca0:	24840000 	addiu	a0,a0,0
			9ca0: R_MIPS_LO16	$LC23
    9ca4:	080026fd 	j	9bf4 <BMIReadMemory+0x174>
			9ca4: R_MIPS_26	.text
    9ca8:	2402ffff 	li	v0,-1
    9cac:	3c040000 	lui	a0,0x0
			9cac: R_MIPS_HI16	$LC38
    9cb0:	3c020000 	lui	v0,0x0
			9cb0: R_MIPS_HI16	printk
    9cb4:	24840000 	addiu	a0,a0,0
			9cb4: R_MIPS_LO16	$LC38
    9cb8:	02602821 	move	a1,s3
    9cbc:	24420000 	addiu	v0,v0,0
			9cbc: R_MIPS_LO16	printk
    9cc0:	0040f809 	jalr	v0
    9cc4:	02a03821 	move	a3,s5
    9cc8:	080026bf 	j	9afc <BMIReadMemory+0x7c>
			9cc8: R_MIPS_26	.text
    9ccc:	24020002 	li	v0,2
    9cd0:	3c040000 	lui	a0,0x0
			9cd0: R_MIPS_HI16	$LC9
    9cd4:	24630000 	addiu	v1,v1,0
			9cd4: R_MIPS_LO16	printk
    9cd8:	0060f809 	jalr	v1
    9cdc:	24840000 	addiu	a0,a0,0
			9cdc: R_MIPS_LO16	$LC9
    9ce0:	080026fd 	j	9bf4 <BMIReadMemory+0x174>
			9ce0: R_MIPS_26	.text
    9ce4:	2402ffff 	li	v0,-1
    9ce8:	8c620000 	lw	v0,0(v1)
			9ce8: R_MIPS_LO16	debughtc
    9cec:	30420080 	andi	v0,v0,0x80
    9cf0:	1040ffbf 	beqz	v0,9bf0 <BMIReadMemory+0x170>
    9cf4:	3c020000 	lui	v0,0x0
			9cf4: R_MIPS_HI16	printk
    9cf8:	3c040000 	lui	a0,0x0
			9cf8: R_MIPS_HI16	$LC11
    9cfc:	24420000 	addiu	v0,v0,0
			9cfc: R_MIPS_LO16	printk
    9d00:	0040f809 	jalr	v0
    9d04:	24840000 	addiu	a0,a0,0
			9d04: R_MIPS_LO16	$LC11
    9d08:	080026fd 	j	9bf4 <BMIReadMemory+0x174>
			9d08: R_MIPS_26	.text
    9d0c:	2402ffff 	li	v0,-1

00009d10 <BMIGetTargetInfo>:
    9d10:	27bdffd0 	addiu	sp,sp,-48
    9d14:	afb30024 	sw	s3,36(sp)
    9d18:	afb00018 	sw	s0,24(sp)
    9d1c:	afbf002c 	sw	ra,44(sp)
    9d20:	afb40028 	sw	s4,40(sp)
    9d24:	afb20020 	sw	s2,32(sp)
    9d28:	afb1001c 	sw	s1,28(sp)
    9d2c:	3c020000 	lui	v0,0x0
			9d2c: R_MIPS_HI16	bmiDone
    9d30:	8c430000 	lw	v1,0(v0)
			9d30: R_MIPS_LO16	bmiDone
    9d34:	00809821 	move	s3,a0
    9d38:	1460006f 	bnez	v1,9ef8 <BMIGetTargetInfo+0x1e8>
    9d3c:	00a08021 	move	s0,a1
    9d40:	3c140000 	lui	s4,0x0
			9d40: R_MIPS_HI16	debughtc
    9d44:	8e820000 	lw	v0,0(s4)
			9d44: R_MIPS_LO16	debughtc
    9d48:	30420110 	andi	v0,v0,0x110
    9d4c:	14400035 	bnez	v0,9e24 <BMIGetTargetInfo+0x114>
    9d50:	3c040000 	lui	a0,0x0
			9d50: R_MIPS_HI16	$LC42
    9d54:	24020008 	li	v0,8
    9d58:	afa20010 	sw	v0,16(sp)
    9d5c:	3c020000 	lui	v0,0x0
			9d5c: R_MIPS_HI16	bmiBufferSend
    9d60:	02602021 	move	a0,s3
    9d64:	27a50010 	addiu	a1,sp,16
    9d68:	24420000 	addiu	v0,v0,0
			9d68: R_MIPS_LO16	bmiBufferSend
    9d6c:	0040f809 	jalr	v0
    9d70:	24060004 	li	a2,4
    9d74:	1440004d 	bnez	v0,9eac <BMIGetTargetInfo+0x19c>
    9d78:	26120004 	addiu	s2,s0,4
    9d7c:	3c020000 	lui	v0,0x0
			9d7c: R_MIPS_HI16	bmiBufferReceive
    9d80:	24510000 	addiu	s1,v0,0
			9d80: R_MIPS_LO16	bmiBufferReceive
    9d84:	02602021 	move	a0,s3
    9d88:	02402821 	move	a1,s2
    9d8c:	24060004 	li	a2,4
    9d90:	0220f809 	jalr	s1
    9d94:	24070001 	li	a3,1
    9d98:	14400063 	bnez	v0,9f28 <BMIGetTargetInfo+0x218>
    9d9c:	2402ffff 	li	v0,-1
    9da0:	8e030004 	lw	v1,4(s0)
    9da4:	10620026 	beq	v1,v0,9e40 <BMIGetTargetInfo+0x130>
    9da8:	2402000c 	li	v0,12
    9dac:	24030001 	li	v1,1
    9db0:	ae020000 	sw	v0,0(s0)
    9db4:	ae030008 	sw	v1,8(s0)
    9db8:	8e820000 	lw	v0,0(s4)
			9db8: R_MIPS_LO16	debughtc
    9dbc:	30420110 	andi	v0,v0,0x110
    9dc0:	14400009 	bnez	v0,9de8 <BMIGetTargetInfo+0xd8>
    9dc4:	3c040000 	lui	a0,0x0
			9dc4: R_MIPS_HI16	$LC48
    9dc8:	8fbf002c 	lw	ra,44(sp)
    9dcc:	8fb40028 	lw	s4,40(sp)
    9dd0:	8fb30024 	lw	s3,36(sp)
    9dd4:	8fb20020 	lw	s2,32(sp)
    9dd8:	8fb1001c 	lw	s1,28(sp)
    9ddc:	8fb00018 	lw	s0,24(sp)
    9de0:	03e00008 	jr	ra
    9de4:	27bd0030 	addiu	sp,sp,48
    9de8:	8e060008 	lw	a2,8(s0)
    9dec:	8e050004 	lw	a1,4(s0)
    9df0:	3c020000 	lui	v0,0x0
			9df0: R_MIPS_HI16	printk
    9df4:	24420000 	addiu	v0,v0,0
			9df4: R_MIPS_LO16	printk
    9df8:	0040f809 	jalr	v0
    9dfc:	24840000 	addiu	a0,a0,0
			9dfc: R_MIPS_LO16	$LC48
    9e00:	8fbf002c 	lw	ra,44(sp)
    9e04:	8fb40028 	lw	s4,40(sp)
    9e08:	8fb30024 	lw	s3,36(sp)
    9e0c:	8fb20020 	lw	s2,32(sp)
    9e10:	8fb1001c 	lw	s1,28(sp)
    9e14:	8fb00018 	lw	s0,24(sp)
    9e18:	00001021 	move	v0,zero
    9e1c:	03e00008 	jr	ra
    9e20:	27bd0030 	addiu	sp,sp,48
    9e24:	3c020000 	lui	v0,0x0
			9e24: R_MIPS_HI16	printk
    9e28:	24840000 	addiu	a0,a0,0
			9e28: R_MIPS_LO16	$LC42
    9e2c:	24420000 	addiu	v0,v0,0
			9e2c: R_MIPS_LO16	printk
    9e30:	0040f809 	jalr	v0
    9e34:	02602821 	move	a1,s3
    9e38:	08002756 	j	9d58 <BMIGetTargetInfo+0x48>
			9e38: R_MIPS_26	.text
    9e3c:	24020008 	li	v0,8
    9e40:	02602021 	move	a0,s3
    9e44:	02002821 	move	a1,s0
    9e48:	24060004 	li	a2,4
    9e4c:	0220f809 	jalr	s1
    9e50:	24070001 	li	a3,1
    9e54:	1440003f 	bnez	v0,9f54 <BMIGetTargetInfo+0x244>
    9e58:	2402000c 	li	v0,12
    9e5c:	8e030000 	lw	v1,0(s0)
    9e60:	14620047 	bne	v1,v0,9f80 <BMIGetTargetInfo+0x270>
    9e64:	02402821 	move	a1,s2
    9e68:	02602021 	move	a0,s3
    9e6c:	24060008 	li	a2,8
    9e70:	0220f809 	jalr	s1
    9e74:	24070001 	li	a3,1
    9e78:	1040ffd0 	beqz	v0,9dbc <BMIGetTargetInfo+0xac>
    9e7c:	8e820000 	lw	v0,0(s4)
			9e7c: R_MIPS_LO16	debughtc
    9e80:	30420080 	andi	v0,v0,0x80
    9e84:	1040000e 	beqz	v0,9ec0 <BMIGetTargetInfo+0x1b0>
    9e88:	8fbf002c 	lw	ra,44(sp)
    9e8c:	8e050000 	lw	a1,0(s0)
    9e90:	3c040000 	lui	a0,0x0
			9e90: R_MIPS_HI16	$LC47
    9e94:	3c020000 	lui	v0,0x0
			9e94: R_MIPS_HI16	printk
    9e98:	24420000 	addiu	v0,v0,0
			9e98: R_MIPS_LO16	printk
    9e9c:	0040f809 	jalr	v0
    9ea0:	24840000 	addiu	a0,a0,0
			9ea0: R_MIPS_LO16	$LC47
    9ea4:	08002772 	j	9dc8 <BMIGetTargetInfo+0xb8>
			9ea4: R_MIPS_26	.text
    9ea8:	2402ffff 	li	v0,-1
    9eac:	8e820000 	lw	v0,0(s4)
			9eac: R_MIPS_LO16	debughtc
    9eb0:	30420080 	andi	v0,v0,0x80
    9eb4:	1440000a 	bnez	v0,9ee0 <BMIGetTargetInfo+0x1d0>
    9eb8:	3c040000 	lui	a0,0x0
			9eb8: R_MIPS_HI16	$LC9
    9ebc:	8fbf002c 	lw	ra,44(sp)
    9ec0:	8fb40028 	lw	s4,40(sp)
    9ec4:	8fb30024 	lw	s3,36(sp)
    9ec8:	8fb20020 	lw	s2,32(sp)
    9ecc:	8fb1001c 	lw	s1,28(sp)
    9ed0:	8fb00018 	lw	s0,24(sp)
    9ed4:	2402ffff 	li	v0,-1
    9ed8:	03e00008 	jr	ra
    9edc:	27bd0030 	addiu	sp,sp,48
    9ee0:	3c020000 	lui	v0,0x0
			9ee0: R_MIPS_HI16	printk
    9ee4:	24420000 	addiu	v0,v0,0
			9ee4: R_MIPS_LO16	printk
    9ee8:	0040f809 	jalr	v0
    9eec:	24840000 	addiu	a0,a0,0
			9eec: R_MIPS_LO16	$LC9
    9ef0:	08002772 	j	9dc8 <BMIGetTargetInfo+0xb8>
			9ef0: R_MIPS_26	.text
    9ef4:	2402ffff 	li	v0,-1
    9ef8:	3c030000 	lui	v1,0x0
			9ef8: R_MIPS_HI16	debughtc
    9efc:	8c620000 	lw	v0,0(v1)
			9efc: R_MIPS_LO16	debughtc
    9f00:	30420080 	andi	v0,v0,0x80
    9f04:	1040ffee 	beqz	v0,9ec0 <BMIGetTargetInfo+0x1b0>
    9f08:	8fbf002c 	lw	ra,44(sp)
    9f0c:	3c040000 	lui	a0,0x0
			9f0c: R_MIPS_HI16	$LC11
    9f10:	3c020000 	lui	v0,0x0
			9f10: R_MIPS_HI16	printk
    9f14:	24420000 	addiu	v0,v0,0
			9f14: R_MIPS_LO16	printk
    9f18:	0040f809 	jalr	v0
    9f1c:	24840000 	addiu	a0,a0,0
			9f1c: R_MIPS_LO16	$LC11
    9f20:	08002772 	j	9dc8 <BMIGetTargetInfo+0xb8>
			9f20: R_MIPS_26	.text
    9f24:	2402ffff 	li	v0,-1
    9f28:	8e820000 	lw	v0,0(s4)
			9f28: R_MIPS_LO16	debughtc
    9f2c:	30420080 	andi	v0,v0,0x80
    9f30:	1040ffe3 	beqz	v0,9ec0 <BMIGetTargetInfo+0x1b0>
    9f34:	8fbf002c 	lw	ra,44(sp)
    9f38:	3c040000 	lui	a0,0x0
			9f38: R_MIPS_HI16	$LC43
    9f3c:	3c020000 	lui	v0,0x0
			9f3c: R_MIPS_HI16	printk
    9f40:	24420000 	addiu	v0,v0,0
			9f40: R_MIPS_LO16	printk
    9f44:	0040f809 	jalr	v0
    9f48:	24840000 	addiu	a0,a0,0
			9f48: R_MIPS_LO16	$LC43
    9f4c:	08002772 	j	9dc8 <BMIGetTargetInfo+0xb8>
			9f4c: R_MIPS_26	.text
    9f50:	2402ffff 	li	v0,-1
    9f54:	8e820000 	lw	v0,0(s4)
			9f54: R_MIPS_LO16	debughtc
    9f58:	30420080 	andi	v0,v0,0x80
    9f5c:	1040ffd8 	beqz	v0,9ec0 <BMIGetTargetInfo+0x1b0>
    9f60:	8fbf002c 	lw	ra,44(sp)
    9f64:	3c040000 	lui	a0,0x0
			9f64: R_MIPS_HI16	$LC44
    9f68:	3c020000 	lui	v0,0x0
			9f68: R_MIPS_HI16	printk
    9f6c:	24420000 	addiu	v0,v0,0
			9f6c: R_MIPS_LO16	printk
    9f70:	0040f809 	jalr	v0
    9f74:	24840000 	addiu	a0,a0,0
			9f74: R_MIPS_LO16	$LC44
    9f78:	08002772 	j	9dc8 <BMIGetTargetInfo+0xb8>
			9f78: R_MIPS_26	.text
    9f7c:	2402ffff 	li	v0,-1
    9f80:	3c040000 	lui	a0,0x0
			9f80: R_MIPS_HI16	$LC45
    9f84:	3c020000 	lui	v0,0x0
			9f84: R_MIPS_HI16	printk
    9f88:	24840000 	addiu	a0,a0,0
			9f88: R_MIPS_LO16	$LC45
    9f8c:	24420000 	addiu	v0,v0,0
			9f8c: R_MIPS_LO16	printk
    9f90:	0040f809 	jalr	v0
    9f94:	24050071 	li	a1,113
    9f98:	3c040000 	lui	a0,0x0
			9f98: R_MIPS_HI16	$LC46
    9f9c:	3c020000 	lui	v0,0x0
			9f9c: R_MIPS_HI16	panic
    9fa0:	24420000 	addiu	v0,v0,0
			9fa0: R_MIPS_LO16	panic
    9fa4:	0040f809 	jalr	v0
    9fa8:	24840000 	addiu	a0,a0,0
			9fa8: R_MIPS_LO16	$LC46
    9fac:	00000000 	nop

00009fb0 <ar6000_dbglog_init_done>:
    9fb0:	24020001 	li	v0,1
    9fb4:	03e00008 	jr	ra
    9fb8:	ac820b44 	sw	v0,2884(a0)

00009fbc <dbglog_get_debug_fragment>:
    9fbc:	00c5102b 	sltu	v0,a2,a1
    9fc0:	1040000d 	beqz	v0,9ff8 <dbglog_get_debug_fragment+0x3c>
    9fc4:	00803821 	move	a3,a0
    9fc8:	00063082 	srl	a2,a2,0x2
    9fcc:	10c0000c 	beqz	a2,a000 <dbglog_get_debug_fragment+0x44>
    9fd0:	00002021 	move	a0,zero
    9fd4:	00042880 	sll	a1,a0,0x2
    9fd8:	00a71821 	addu	v1,a1,a3
    9fdc:	8c620000 	lw	v0,0(v1)
    9fe0:	24840001 	addiu	a0,a0,1
    9fe4:	00021782 	srl	v0,v0,0x1e
    9fe8:	00442021 	addu	a0,v0,a0
    9fec:	0086182b 	sltu	v1,a0,a2
    9ff0:	1460fff8 	bnez	v1,9fd4 <dbglog_get_debug_fragment+0x18>
    9ff4:	00000000 	nop
    9ff8:	03e00008 	jr	ra
    9ffc:	00a01021 	move	v0,a1
    a000:	080027fe 	j	9ff8 <dbglog_get_debug_fragment+0x3c>
			a000: R_MIPS_26	.text
    a004:	00002821 	move	a1,zero

0000a008 <ar6000_ac2_endpoint_id>:
    a008:	30a500ff 	andi	a1,a1,0xff
    a00c:	00052880 	sll	a1,a1,0x2
    a010:	00a42821 	addu	a1,a1,a0
    a014:	03e00008 	jr	ra
    a018:	8ca20510 	lw	v0,1296(a1)

0000a01c <ar6000_endpoint_id2_ac>:
    a01c:	00a42021 	addu	a0,a1,a0
    a020:	03e00008 	jr	ra
    a024:	90820535 	lbu	v0,1333(a0)

0000a028 <ieee80211_find_conn_for_aid>:
    a028:	00804021 	move	t0,a0
    a02c:	30a500ff 	andi	a1,a1,0xff
    a030:	00003021 	move	a2,zero
    a034:	24070008 	li	a3,8
    a038:	90820cfc 	lbu	v0,3324(a0)
    a03c:	30c300ff 	andi	v1,a2,0xff
    a040:	24840118 	addiu	a0,a0,280
    a044:	10450005 	beq	v0,a1,a05c <ieee80211_find_conn_for_aid+0x34>
    a048:	24c60001 	addiu	a2,a2,1
    a04c:	14c7fffa 	bne	a2,a3,a038 <ieee80211_find_conn_for_aid+0x10>
    a050:	00001021 	move	v0,zero
    a054:	03e00008 	jr	ra
    a058:	00000000 	nop
    a05c:	00032140 	sll	a0,v1,0x5
    a060:	000318c0 	sll	v1,v1,0x3
    a064:	00641821 	addu	v1,v1,a0
    a068:	000310c0 	sll	v0,v1,0x3
    a06c:	00431023 	subu	v0,v0,v1
    a070:	00481021 	addu	v0,v0,t0
    a074:	03e00008 	jr	ra
    a078:	24420cf4 	addiu	v0,v0,3316

0000a07c <ar6000_cookie_cleanup>:
    a07c:	03e00008 	jr	ra
    a080:	ac8004cc 	sw	zero,1228(a0)

0000a084 <ar6000_alloc_cookie>:
    a084:	8c8304cc 	lw	v1,1228(a0)
    a088:	10600003 	beqz	v1,a098 <ar6000_alloc_cookie+0x14>
    a08c:	00000000 	nop
    a090:	8c62003c 	lw	v0,60(v1)
    a094:	ac8204cc 	sw	v0,1228(a0)
    a098:	03e00008 	jr	ra
    a09c:	00601021 	move	v0,v1

0000a0a0 <ar6000_get_driver_cfg>:
    a0a0:	30a5ffff 	andi	a1,a1,0xffff
    a0a4:	34028001 	li	v0,0x8001
    a0a8:	10a20006 	beq	a1,v0,a0c4 <ar6000_get_driver_cfg+0x24>
    a0ac:	00002021 	move	a0,zero
    a0b0:	34028002 	li	v0,0x8002
    a0b4:	10a20008 	beq	a1,v0,a0d8 <ar6000_get_driver_cfg+0x38>
    a0b8:	24040016 	li	a0,22
    a0bc:	03e00008 	jr	ra
    a0c0:	00801021 	move	v0,a0
    a0c4:	3c020000 	lui	v0,0x0
			a0c4: R_MIPS_HI16	wlanNodeCaching
    a0c8:	8c430000 	lw	v1,0(v0)
			a0c8: R_MIPS_LO16	wlanNodeCaching
    a0cc:	00801021 	move	v0,a0
    a0d0:	03e00008 	jr	ra
    a0d4:	acc30000 	sw	v1,0(a2)
    a0d8:	3c020000 	lui	v0,0x0
			a0d8: R_MIPS_HI16	logWmiRawMsgs
    a0dc:	8c430000 	lw	v1,0(v0)
			a0dc: R_MIPS_LO16	logWmiRawMsgs
    a0e0:	00002021 	move	a0,zero
    a0e4:	00801021 	move	v0,a0
    a0e8:	03e00008 	jr	ra
    a0ec:	acc30000 	sw	v1,0(a2)

0000a0f0 <ar6000_dset_open_req>:
    a0f0:	03e00008 	jr	ra
    a0f4:	00000000 	nop

0000a0f8 <ar6000_dset_close>:
    a0f8:	03e00008 	jr	ra
    a0fc:	00000000 	nop

0000a100 <ar6000_dset_data_req>:
    a100:	03e00008 	jr	ra
    a104:	00000000 	nop

0000a108 <is_iwioctl_allowed>:
    a108:	30a5ffff 	andi	a1,a1,0xffff
    a10c:	24a27500 	addiu	v0,a1,29952
    a110:	3046ffff 	andi	a2,v0,0xffff
    a114:	2cc3002e 	sltiu	v1,a2,46
    a118:	1060000f 	beqz	v1,a158 <is_iwioctl_allowed+0x50>
    a11c:	308400ff 	andi	a0,a0,0xff
    a120:	3c020000 	lui	v0,0x0
			a120: R_MIPS_HI16	sioctl_filter
    a124:	24420000 	addiu	v0,v0,0
			a124: R_MIPS_LO16	sioctl_filter
    a128:	00c21021 	addu	v0,a2,v0
    a12c:	90420000 	lbu	v0,0(v0)
    a130:	240300ff 	li	v1,255
    a134:	10430004 	beq	v0,v1,a148 <is_iwioctl_allowed+0x40>
    a138:	00000000 	nop
    a13c:	00441024 	and	v0,v0,a0
    a140:	10400003 	beqz	v0,a150 <is_iwioctl_allowed+0x48>
    a144:	00000000 	nop
    a148:	03e00008 	jr	ra
    a14c:	00001021 	move	v0,zero
    a150:	03e00008 	jr	ra
    a154:	24020011 	li	v0,17
    a158:	24a27420 	addiu	v0,a1,29728
    a15c:	3045ffff 	andi	a1,v0,0xffff
    a160:	2ca3001f 	sltiu	v1,a1,31
    a164:	10600009 	beqz	v1,a18c <is_iwioctl_allowed+0x84>
    a168:	240300ff 	li	v1,255
    a16c:	3c020000 	lui	v0,0x0
			a16c: R_MIPS_HI16	pioctl_filter
    a170:	24420000 	addiu	v0,v0,0
			a170: R_MIPS_LO16	pioctl_filter
    a174:	00a21021 	addu	v0,a1,v0
    a178:	90420000 	lbu	v0,0(v0)
    a17c:	1443ffef 	bne	v0,v1,a13c <is_iwioctl_allowed+0x34>
    a180:	00000000 	nop
    a184:	08002852 	j	a148 <is_iwioctl_allowed+0x40>
			a184: R_MIPS_26	.text
    a188:	00000000 	nop
    a18c:	03e00008 	jr	ra
    a190:	2402ffff 	li	v0,-1

0000a194 <ar6000_peer_event>:
    a194:	27bdffd8 	addiu	sp,sp,-40
    a198:	3c020000 	lui	v0,0x0
			a198: R_MIPS_HI16	printk
    a19c:	afb40020 	sw	s4,32(sp)
    a1a0:	afb3001c 	sw	s3,28(sp)
    a1a4:	afb20018 	sw	s2,24(sp)
    a1a8:	afb10014 	sw	s1,20(sp)
    a1ac:	afb00010 	sw	s0,16(sp)
    a1b0:	afbf0024 	sw	ra,36(sp)
    a1b4:	00c08821 	move	s1,a2
    a1b8:	24540000 	addiu	s4,v0,0
			a1b8: R_MIPS_LO16	printk
    a1bc:	00008021 	move	s0,zero
    a1c0:	3c130000 	lui	s3,0x0
			a1c0: R_MIPS_HI16	$LC0
    a1c4:	24120006 	li	s2,6
    a1c8:	02301021 	addu	v0,s1,s0
    a1cc:	90450000 	lbu	a1,0(v0)
    a1d0:	26100001 	addiu	s0,s0,1
    a1d4:	0280f809 	jalr	s4
    a1d8:	26640000 	addiu	a0,s3,0
			a1d8: R_MIPS_LO16	$LC0
    a1dc:	1612fffb 	bne	s0,s2,a1cc <ar6000_peer_event+0x38>
    a1e0:	02301021 	addu	v0,s1,s0
    a1e4:	3c040000 	lui	a0,0x0
			a1e4: R_MIPS_HI16	$LC1
    a1e8:	0280c821 	move	t9,s4
    a1ec:	8fbf0024 	lw	ra,36(sp)
    a1f0:	8fb40020 	lw	s4,32(sp)
    a1f4:	8fb3001c 	lw	s3,28(sp)
    a1f8:	8fb20018 	lw	s2,24(sp)
    a1fc:	8fb10014 	lw	s1,20(sp)
    a200:	8fb00010 	lw	s0,16(sp)
    a204:	24840000 	addiu	a0,a0,0
			a204: R_MIPS_LO16	$LC1
    a208:	03200008 	jr	t9
    a20c:	27bd0028 	addiu	sp,sp,40

0000a210 <is_xioctl_allowed>:
    a210:	3c030000 	lui	v1,0x0
			a210: R_MIPS_HI16	xioctl_filter
    a214:	27bdffe8 	addiu	sp,sp,-24
    a218:	24630000 	addiu	v1,v1,0
			a218: R_MIPS_LO16	xioctl_filter
    a21c:	308600ff 	andi	a2,a0,0xff
    a220:	2ca20072 	sltiu	v0,a1,114
    a224:	3c040000 	lui	a0,0x0
			a224: R_MIPS_HI16	$LC2
    a228:	afbf0010 	sw	ra,16(sp)
    a22c:	00a31821 	addu	v1,a1,v1
    a230:	1040000a 	beqz	v0,a25c <is_xioctl_allowed+0x4c>
    a234:	24840000 	addiu	a0,a0,0
			a234: R_MIPS_LO16	$LC2
    a238:	90630000 	lbu	v1,0(v1)
    a23c:	240200ff 	li	v0,255
    a240:	00002821 	move	a1,zero
    a244:	1462000e 	bne	v1,v0,a280 <is_xioctl_allowed+0x70>
    a248:	00662024 	and	a0,v1,a2
    a24c:	8fbf0010 	lw	ra,16(sp)
    a250:	00a01021 	move	v0,a1
    a254:	03e00008 	jr	ra
    a258:	27bd0018 	addiu	sp,sp,24
    a25c:	3c020000 	lui	v0,0x0
			a25c: R_MIPS_HI16	printk
    a260:	24420000 	addiu	v0,v0,0
			a260: R_MIPS_LO16	printk
    a264:	0040f809 	jalr	v0
    a268:	00000000 	nop
    a26c:	00002821 	move	a1,zero
    a270:	8fbf0010 	lw	ra,16(sp)
    a274:	00a01021 	move	v0,a1
    a278:	03e00008 	jr	ra
    a27c:	27bd0018 	addiu	sp,sp,24
    a280:	1480fff3 	bnez	a0,a250 <is_xioctl_allowed+0x40>
    a284:	8fbf0010 	lw	ra,16(sp)
    a288:	08002894 	j	a250 <is_xioctl_allowed+0x40>
			a288: R_MIPS_26	.text
    a28c:	2405ffff 	li	a1,-1

0000a290 <ar6000_pmkid_list_event>:
    a290:	27bdffc0 	addiu	sp,sp,-64
    a294:	30a500ff 	andi	a1,a1,0xff
    a298:	3c020000 	lui	v0,0x0
			a298: R_MIPS_HI16	printk
    a29c:	3c040000 	lui	a0,0x0
			a29c: R_MIPS_HI16	$LC3
    a2a0:	afb40028 	sw	s4,40(sp)
    a2a4:	afb30024 	sw	s3,36(sp)
    a2a8:	afb00018 	sw	s0,24(sp)
    a2ac:	afbf003c 	sw	ra,60(sp)
    a2b0:	afbe0038 	sw	s8,56(sp)
    a2b4:	afb70034 	sw	s7,52(sp)
    a2b8:	afb60030 	sw	s6,48(sp)
    a2bc:	afb5002c 	sw	s5,44(sp)
    a2c0:	afb20020 	sw	s2,32(sp)
    a2c4:	afb1001c 	sw	s1,28(sp)
    a2c8:	afa50010 	sw	a1,16(sp)
    a2cc:	24840000 	addiu	a0,a0,0
			a2cc: R_MIPS_LO16	$LC3
    a2d0:	24500000 	addiu	s0,v0,0
			a2d0: R_MIPS_LO16	printk
    a2d4:	00c09821 	move	s3,a2
    a2d8:	0200f809 	jalr	s0
    a2dc:	00e0a021 	move	s4,a3
    a2e0:	8fa20010 	lw	v0,16(sp)
    a2e4:	10400027 	beqz	v0,a384 <ar6000_pmkid_list_event+0xf4>
    a2e8:	0200b021 	move	s6,s0
    a2ec:	0000b821 	move	s7,zero
    a2f0:	3c150000 	lui	s5,0x0
			a2f0: R_MIPS_HI16	$LC5
    a2f4:	241e0006 	li	s8,6
    a2f8:	3c020000 	lui	v0,0x0
			a2f8: R_MIPS_HI16	$LC4
    a2fc:	24440000 	addiu	a0,v0,0
			a2fc: R_MIPS_LO16	$LC4
    a300:	02c0f809 	jalr	s6
    a304:	02e02821 	move	a1,s7
    a308:	00008021 	move	s0,zero
    a30c:	02901021 	addu	v0,s4,s0
    a310:	90450000 	lbu	a1,0(v0)
    a314:	26100001 	addiu	s0,s0,1
    a318:	02c0f809 	jalr	s6
    a31c:	26a40000 	addiu	a0,s5,0
			a31c: R_MIPS_LO16	$LC5
    a320:	161efffb 	bne	s0,s8,a310 <ar6000_pmkid_list_event+0x80>
    a324:	02901021 	addu	v0,s4,s0
    a328:	3c020000 	lui	v0,0x0
			a328: R_MIPS_HI16	$LC6
    a32c:	24440000 	addiu	a0,v0,0
			a32c: R_MIPS_LO16	$LC6
    a330:	02c0f809 	jalr	s6
    a334:	02e02821 	move	a1,s7
    a338:	3c020000 	lui	v0,0x0
			a338: R_MIPS_HI16	$LC7
    a33c:	24420000 	addiu	v0,v0,0
			a33c: R_MIPS_LO16	$LC7
    a340:	8c520000 	lw	s2,0(v0)
    a344:	00008021 	move	s0,zero
    a348:	24110010 	li	s1,16
    a34c:	02701021 	addu	v0,s3,s0
    a350:	90450000 	lbu	a1,0(v0)
    a354:	26100001 	addiu	s0,s0,1
    a358:	0240f809 	jalr	s2
    a35c:	26a40000 	addiu	a0,s5,0
			a35c: R_MIPS_LO16	$LC5
    a360:	1611fffb 	bne	s0,s1,a350 <ar6000_pmkid_list_event+0xc0>
    a364:	02701021 	addu	v0,s3,s0
    a368:	26e20001 	addiu	v0,s7,1
    a36c:	305700ff 	andi	s7,v0,0xff
    a370:	8fa20010 	lw	v0,16(sp)
    a374:	10570003 	beq	v0,s7,a384 <ar6000_pmkid_list_event+0xf4>
    a378:	26940016 	addiu	s4,s4,22
    a37c:	080028be 	j	a2f8 <ar6000_pmkid_list_event+0x68>
			a37c: R_MIPS_26	.text
    a380:	26730016 	addiu	s3,s3,22
    a384:	8fbf003c 	lw	ra,60(sp)
    a388:	8fbe0038 	lw	s8,56(sp)
    a38c:	8fb70034 	lw	s7,52(sp)
    a390:	8fb60030 	lw	s6,48(sp)
    a394:	8fb5002c 	lw	s5,44(sp)
    a398:	8fb40028 	lw	s4,40(sp)
    a39c:	8fb30024 	lw	s3,36(sp)
    a3a0:	8fb20020 	lw	s2,32(sp)
    a3a4:	8fb1001c 	lw	s1,28(sp)
    a3a8:	8fb00018 	lw	s0,24(sp)
    a3ac:	03e00008 	jr	ra
    a3b0:	27bd0040 	addiu	sp,sp,64

0000a3b4 <ar6000_lqThresholdEvent_rx>:
    a3b4:	3c020000 	lui	v0,0x0
			a3b4: R_MIPS_HI16	debugdriver
    a3b8:	8c430000 	lw	v1,0(v0)
			a3b8: R_MIPS_LO16	debugdriver
    a3bc:	3c040000 	lui	a0,0x0
			a3bc: R_MIPS_HI16	$LC8
    a3c0:	28630002 	slti	v1,v1,2
    a3c4:	24840000 	addiu	a0,a0,0
			a3c4: R_MIPS_LO16	$LC8
    a3c8:	14600005 	bnez	v1,a3e0 <ar6000_lqThresholdEvent_rx+0x2c>
    a3cc:	30c600ff 	andi	a2,a2,0xff
    a3d0:	3c190000 	lui	t9,0x0
			a3d0: R_MIPS_HI16	printk
    a3d4:	27390000 	addiu	t9,t9,0
			a3d4: R_MIPS_LO16	printk
    a3d8:	03200008 	jr	t9
    a3dc:	00000000 	nop
    a3e0:	03e00008 	jr	ra
    a3e4:	00000000 	nop

0000a3e8 <ar6000_tx_retry_err_event>:
    a3e8:	3c020000 	lui	v0,0x0
			a3e8: R_MIPS_HI16	debugdriver
    a3ec:	8c430000 	lw	v1,0(v0)
			a3ec: R_MIPS_LO16	debugdriver
    a3f0:	3c040000 	lui	a0,0x0
			a3f0: R_MIPS_HI16	$LC9
    a3f4:	28630002 	slti	v1,v1,2
    a3f8:	14600005 	bnez	v1,a410 <ar6000_tx_retry_err_event+0x28>
    a3fc:	24840000 	addiu	a0,a0,0
			a3fc: R_MIPS_LO16	$LC9
    a400:	3c190000 	lui	t9,0x0
			a400: R_MIPS_HI16	printk
    a404:	27390000 	addiu	t9,t9,0
			a404: R_MIPS_LO16	printk
    a408:	03200008 	jr	t9
    a40c:	00000000 	nop
    a410:	03e00008 	jr	ra
    a414:	00000000 	nop

0000a418 <ar6000_display_roam_time>:
    a418:	27bdffd0 	addiu	sp,sp,-48
    a41c:	afb00020 	sw	s0,32(sp)
    a420:	3c020000 	lui	v0,0x0
			a420: R_MIPS_HI16	printk
    a424:	00808021 	move	s0,a0
    a428:	3c040000 	lui	a0,0x0
			a428: R_MIPS_HI16	$LC10
    a42c:	afbf002c 	sw	ra,44(sp)
    a430:	afb20028 	sw	s2,40(sp)
    a434:	afb10024 	sw	s1,36(sp)
    a438:	24520000 	addiu	s2,v0,0
			a438: R_MIPS_LO16	printk
    a43c:	0240f809 	jalr	s2
    a440:	24840000 	addiu	a0,a0,0
			a440: R_MIPS_LO16	$LC10
    a444:	9203001c 	lbu	v1,28(s0)
    a448:	9208001d 	lbu	t0,29(s0)
    a44c:	9202001b 	lbu	v0,27(s0)
    a450:	92050018 	lbu	a1,24(s0)
    a454:	92060019 	lbu	a2,25(s0)
    a458:	9207001a 	lbu	a3,26(s0)
    a45c:	3c110000 	lui	s1,0x0
			a45c: R_MIPS_HI16	$LC11
    a460:	afa30014 	sw	v1,20(sp)
    a464:	afa80018 	sw	t0,24(sp)
    a468:	26240000 	addiu	a0,s1,0
			a468: R_MIPS_LO16	$LC11
    a46c:	0240f809 	jalr	s2
    a470:	afa20010 	sw	v0,16(sp)
    a474:	8a060003 	lwl	a2,3(s0)
    a478:	8a070007 	lwl	a3,7(s0)
    a47c:	9a060000 	lwr	a2,0(s0)
    a480:	9a070004 	lwr	a3,4(s0)
    a484:	8205001e 	lb	a1,30(s0)
    a488:	3c040000 	lui	a0,0x0
			a488: R_MIPS_HI16	$LC12
    a48c:	0240f809 	jalr	s2
    a490:	24840000 	addiu	a0,a0,0
			a490: R_MIPS_LO16	$LC12
    a494:	3c040000 	lui	a0,0x0
			a494: R_MIPS_HI16	$LC13
    a498:	0240f809 	jalr	s2
    a49c:	24840000 	addiu	a0,a0,0
			a49c: R_MIPS_LO16	$LC13
    a4a0:	92030023 	lbu	v1,35(s0)
    a4a4:	92080024 	lbu	t0,36(s0)
    a4a8:	92020022 	lbu	v0,34(s0)
    a4ac:	9205001f 	lbu	a1,31(s0)
    a4b0:	92060020 	lbu	a2,32(s0)
    a4b4:	92070021 	lbu	a3,33(s0)
    a4b8:	26240000 	addiu	a0,s1,0
			a4b8: R_MIPS_LO16	$LC11
    a4bc:	afa30014 	sw	v1,20(sp)
    a4c0:	afa80018 	sw	t0,24(sp)
    a4c4:	0240f809 	jalr	s2
    a4c8:	afa20010 	sw	v0,16(sp)
    a4cc:	8a06000b 	lwl	a2,11(s0)
    a4d0:	8a07000f 	lwl	a3,15(s0)
    a4d4:	9a060008 	lwr	a2,8(s0)
    a4d8:	82050025 	lb	a1,37(s0)
    a4dc:	9a07000c 	lwr	a3,12(s0)
    a4e0:	3c040000 	lui	a0,0x0
			a4e0: R_MIPS_HI16	$LC14
    a4e4:	0240f809 	jalr	s2
    a4e8:	24840000 	addiu	a0,a0,0
			a4e8: R_MIPS_LO16	$LC14
    a4ec:	8a050013 	lwl	a1,19(s0)
    a4f0:	8a060017 	lwl	a2,23(s0)
    a4f4:	9a050010 	lwr	a1,16(s0)
    a4f8:	9a060014 	lwr	a2,20(s0)
    a4fc:	3c040000 	lui	a0,0x0
			a4fc: R_MIPS_HI16	$LC15
    a500:	0240c821 	move	t9,s2
    a504:	8fbf002c 	lw	ra,44(sp)
    a508:	8fb20028 	lw	s2,40(sp)
    a50c:	8fb10024 	lw	s1,36(sp)
    a510:	8fb00020 	lw	s0,32(sp)
    a514:	24840000 	addiu	a0,a0,0
			a514: R_MIPS_LO16	$LC15
    a518:	03200008 	jr	t9
    a51c:	27bd0030 	addiu	sp,sp,48

0000a520 <ar6000_roam_data_event>:
    a520:	90a30026 	lbu	v1,38(a1)
    a524:	24020001 	li	v0,1
    a528:	10620003 	beq	v1,v0,a538 <ar6000_roam_data_event+0x18>
    a52c:	00a02021 	move	a0,a1
    a530:	03e00008 	jr	ra
    a534:	00000000 	nop
    a538:	3c190000 	lui	t9,0x0
			a538: R_MIPS_HI16	ar6000_display_roam_time
    a53c:	27390000 	addiu	t9,t9,0
			a53c: R_MIPS_LO16	ar6000_display_roam_time
    a540:	03200008 	jr	t9
    a544:	00000000 	nop

0000a548 <ar6000_wow_list_event>:
    a548:	27bdffd8 	addiu	sp,sp,-40
    a54c:	afb40020 	sw	s4,32(sp)
    a550:	afb10014 	sw	s1,20(sp)
    a554:	afbf0024 	sw	ra,36(sp)
    a558:	afb3001c 	sw	s3,28(sp)
    a55c:	afb20018 	sw	s2,24(sp)
    a560:	afb00010 	sw	s0,16(sp)
    a564:	00c08821 	move	s1,a2
    a568:	90c50001 	lbu	a1,1(a2)
    a56c:	3c140000 	lui	s4,0x0
			a56c: R_MIPS_HI16	printk
    a570:	90c60000 	lbu	a2,0(a2)
    a574:	3c040000 	lui	a0,0x0
			a574: R_MIPS_HI16	$LC16
    a578:	26820000 	addiu	v0,s4,0
			a578: R_MIPS_LO16	printk
    a57c:	0040f809 	jalr	v0
    a580:	24840000 	addiu	a0,a0,0
			a580: R_MIPS_LO16	$LC16
    a584:	92230002 	lbu	v1,2(s1)
    a588:	14600017 	bnez	v1,a5e8 <ar6000_wow_list_event+0xa0>
    a58c:	3c020000 	lui	v0,0x0
			a58c: R_MIPS_HI16	$LC18
    a590:	3c020000 	lui	v0,0x0
			a590: R_MIPS_HI16	$LC17
    a594:	92230003 	lbu	v1,3(s1)
    a598:	24450000 	addiu	a1,v0,0
			a598: R_MIPS_LO16	$LC17
    a59c:	24020001 	li	v0,1
    a5a0:	10620017 	beq	v1,v0,a600 <ar6000_wow_list_event+0xb8>
    a5a4:	3c020000 	lui	v0,0x0
			a5a4: R_MIPS_HI16	$LC19
    a5a8:	3c020000 	lui	v0,0x0
			a5a8: R_MIPS_HI16	$LC20
    a5ac:	3c040000 	lui	a0,0x0
			a5ac: R_MIPS_HI16	$LC21
    a5b0:	24460000 	addiu	a2,v0,0
			a5b0: R_MIPS_LO16	$LC20
    a5b4:	26900000 	addiu	s0,s4,0
			a5b4: R_MIPS_LO16	printk
    a5b8:	0200f809 	jalr	s0
    a5bc:	24840000 	addiu	a0,a0,0
			a5bc: R_MIPS_LO16	$LC21
    a5c0:	92230001 	lbu	v1,1(s1)
    a5c4:	14600016 	bnez	v1,a620 <ar6000_wow_list_event+0xd8>
    a5c8:	8fbf0024 	lw	ra,36(sp)
    a5cc:	8fb40020 	lw	s4,32(sp)
    a5d0:	8fb3001c 	lw	s3,28(sp)
    a5d4:	8fb20018 	lw	s2,24(sp)
    a5d8:	8fb10014 	lw	s1,20(sp)
    a5dc:	8fb00010 	lw	s0,16(sp)
    a5e0:	03e00008 	jr	ra
    a5e4:	27bd0028 	addiu	sp,sp,40
    a5e8:	92230003 	lbu	v1,3(s1)
    a5ec:	24450000 	addiu	a1,v0,0
			a5ec: R_MIPS_LO16	$LC18
    a5f0:	24020001 	li	v0,1
    a5f4:	1462ffed 	bne	v1,v0,a5ac <ar6000_wow_list_event+0x64>
    a5f8:	3c020000 	lui	v0,0x0
			a5f8: R_MIPS_HI16	$LC20
    a5fc:	3c020000 	lui	v0,0x0
			a5fc: R_MIPS_HI16	$LC19
    a600:	3c040000 	lui	a0,0x0
			a600: R_MIPS_HI16	$LC21
    a604:	24460000 	addiu	a2,v0,0
			a604: R_MIPS_LO16	$LC19
    a608:	26900000 	addiu	s0,s4,0
			a608: R_MIPS_LO16	printk
    a60c:	0200f809 	jalr	s0
    a610:	24840000 	addiu	a0,a0,0
			a610: R_MIPS_LO16	$LC21
    a614:	92230001 	lbu	v1,1(s1)
    a618:	1060ffec 	beqz	v1,a5cc <ar6000_wow_list_event+0x84>
    a61c:	8fbf0024 	lw	ra,36(sp)
    a620:	92250005 	lbu	a1,5(s1)
    a624:	92260006 	lbu	a2,6(s1)
    a628:	92270007 	lbu	a3,7(s1)
    a62c:	3c040000 	lui	a0,0x0
			a62c: R_MIPS_HI16	$LC22
    a630:	0200f809 	jalr	s0
    a634:	24840000 	addiu	a0,a0,0
			a634: R_MIPS_LO16	$LC22
    a638:	3c040000 	lui	a0,0x0
			a638: R_MIPS_HI16	$LC23
    a63c:	0200f809 	jalr	s0
    a640:	24840000 	addiu	a0,a0,0
			a640: R_MIPS_LO16	$LC23
    a644:	92230006 	lbu	v1,6(s1)
    a648:	1060000d 	beqz	v1,a680 <ar6000_wow_list_event+0x138>
    a64c:	02009821 	move	s3,s0
    a650:	3c120000 	lui	s2,0x0
			a650: R_MIPS_HI16	$LC5
    a654:	00008021 	move	s0,zero
    a658:	02301021 	addu	v0,s1,s0
    a65c:	90450048 	lbu	a1,72(v0)
    a660:	0260f809 	jalr	s3
    a664:	26440000 	addiu	a0,s2,0
			a664: R_MIPS_LO16	$LC5
    a668:	26030001 	addiu	v1,s0,1
    a66c:	92220006 	lbu	v0,6(s1)
    a670:	307000ff 	andi	s0,v1,0xff
    a674:	0202102b 	sltu	v0,s0,v0
    a678:	1440fff8 	bnez	v0,a65c <ar6000_wow_list_event+0x114>
    a67c:	02301021 	addu	v0,s1,s0
    a680:	3c040000 	lui	a0,0x0
			a680: R_MIPS_HI16	$LC24
    a684:	26900000 	addiu	s0,s4,0
			a684: R_MIPS_LO16	printk
    a688:	0200f809 	jalr	s0
    a68c:	24840000 	addiu	a0,a0,0
			a68c: R_MIPS_LO16	$LC24
    a690:	92230006 	lbu	v1,6(s1)
    a694:	1060000d 	beqz	v1,a6cc <ar6000_wow_list_event+0x184>
    a698:	02009821 	move	s3,s0
    a69c:	3c120000 	lui	s2,0x0
			a69c: R_MIPS_HI16	$LC5
    a6a0:	00008021 	move	s0,zero
    a6a4:	02301021 	addu	v0,s1,s0
    a6a8:	90450008 	lbu	a1,8(v0)
    a6ac:	0260f809 	jalr	s3
    a6b0:	26440000 	addiu	a0,s2,0
			a6b0: R_MIPS_LO16	$LC5
    a6b4:	26030001 	addiu	v1,s0,1
    a6b8:	92220006 	lbu	v0,6(s1)
    a6bc:	307000ff 	andi	s0,v1,0xff
    a6c0:	0202102b 	sltu	v0,s0,v0
    a6c4:	1440fff8 	bnez	v0,a6a8 <ar6000_wow_list_event+0x160>
    a6c8:	02301021 	addu	v0,s1,s0
    a6cc:	3c040000 	lui	a0,0x0
			a6cc: R_MIPS_HI16	$LC1
    a6d0:	26990000 	addiu	t9,s4,0
			a6d0: R_MIPS_LO16	printk
    a6d4:	8fbf0024 	lw	ra,36(sp)
    a6d8:	8fb40020 	lw	s4,32(sp)
    a6dc:	8fb3001c 	lw	s3,28(sp)
    a6e0:	8fb20018 	lw	s2,24(sp)
    a6e4:	8fb10014 	lw	s1,20(sp)
    a6e8:	8fb00010 	lw	s0,16(sp)
    a6ec:	24840000 	addiu	a0,a0,0
			a6ec: R_MIPS_LO16	$LC1
    a6f0:	03200008 	jr	t9
    a6f4:	27bd0028 	addiu	sp,sp,40

0000a6f8 <ar6000_roam_tbl_event>:
    a6f8:	27bdffc0 	addiu	sp,sp,-64
    a6fc:	afb20028 	sw	s2,40(sp)
    a700:	afb00020 	sw	s0,32(sp)
    a704:	afbf0038 	sw	ra,56(sp)
    a708:	afb50034 	sw	s5,52(sp)
    a70c:	afb40030 	sw	s4,48(sp)
    a710:	afb3002c 	sw	s3,44(sp)
    a714:	afb10024 	sw	s1,36(sp)
    a718:	00a09021 	move	s2,a1
    a71c:	90a50003 	lbu	a1,3(a1)
    a720:	92420002 	lbu	v0,2(s2)
    a724:	92460001 	lbu	a2,1(s2)
    a728:	92430000 	lbu	v1,0(s2)
    a72c:	00052a00 	sll	a1,a1,0x8
    a730:	00a22825 	or	a1,a1,v0
    a734:	00063200 	sll	a2,a2,0x8
    a738:	3c020000 	lui	v0,0x0
			a738: R_MIPS_HI16	printk
    a73c:	3c040000 	lui	a0,0x0
			a73c: R_MIPS_HI16	$LC25
    a740:	00c33025 	or	a2,a2,v1
    a744:	24500000 	addiu	s0,v0,0
			a744: R_MIPS_LO16	printk
    a748:	0200f809 	jalr	s0
    a74c:	24840000 	addiu	a0,a0,0
			a74c: R_MIPS_LO16	$LC25
    a750:	92430003 	lbu	v1,3(s2)
    a754:	92420002 	lbu	v0,2(s2)
    a758:	00031a00 	sll	v1,v1,0x8
    a75c:	00621825 	or	v1,v1,v0
    a760:	10600028 	beqz	v1,a804 <ar6000_roam_tbl_event+0x10c>
    a764:	02009821 	move	s3,s0
    a768:	00008821 	move	s1,zero
    a76c:	3c150000 	lui	s5,0x0
			a76c: R_MIPS_HI16	$LC26
    a770:	3c140000 	lui	s4,0x0
			a770: R_MIPS_HI16	$LC27
    a774:	00118100 	sll	s0,s1,0x4
    a778:	02128021 	addu	s0,s0,s2
    a77c:	9203000b 	lbu	v1,11(s0)
    a780:	9208000c 	lbu	t0,12(s0)
    a784:	9209000d 	lbu	t1,13(s0)
    a788:	9202000a 	lbu	v0,10(s0)
    a78c:	92060008 	lbu	a2,8(s0)
    a790:	92070009 	lbu	a3,9(s0)
    a794:	02202821 	move	a1,s1
    a798:	26a40000 	addiu	a0,s5,0
			a798: R_MIPS_LO16	$LC26
    a79c:	afa30014 	sw	v1,20(sp)
    a7a0:	afa80018 	sw	t0,24(sp)
    a7a4:	afa9001c 	sw	t1,28(sp)
    a7a8:	0260f809 	jalr	s3
    a7ac:	afa20010 	sw	v0,16(sp)
    a7b0:	8a030007 	lwl	v1,7(s0)
    a7b4:	82080012 	lb	t0,18(s0)
    a7b8:	9a030004 	lwr	v1,4(s0)
    a7bc:	82020011 	lb	v0,17(s0)
    a7c0:	8205000e 	lb	a1,14(s0)
    a7c4:	8206000f 	lb	a2,15(s0)
    a7c8:	82070010 	lb	a3,16(s0)
    a7cc:	26840000 	addiu	a0,s4,0
			a7cc: R_MIPS_LO16	$LC27
    a7d0:	afa30014 	sw	v1,20(sp)
    a7d4:	afa20010 	sw	v0,16(sp)
    a7d8:	0260f809 	jalr	s3
    a7dc:	afa80018 	sw	t0,24(sp)
    a7e0:	92430003 	lbu	v1,3(s2)
    a7e4:	92420002 	lbu	v0,2(s2)
    a7e8:	26240001 	addiu	a0,s1,1
    a7ec:	00031a00 	sll	v1,v1,0x8
    a7f0:	00621825 	or	v1,v1,v0
    a7f4:	309100ff 	andi	s1,a0,0xff
    a7f8:	0223182b 	sltu	v1,s1,v1
    a7fc:	1460ffde 	bnez	v1,a778 <ar6000_roam_tbl_event+0x80>
    a800:	00118100 	sll	s0,s1,0x4
    a804:	8fbf0038 	lw	ra,56(sp)
    a808:	8fb50034 	lw	s5,52(sp)
    a80c:	8fb40030 	lw	s4,48(sp)
    a810:	8fb3002c 	lw	s3,44(sp)
    a814:	8fb20028 	lw	s2,40(sp)
    a818:	8fb10024 	lw	s1,36(sp)
    a81c:	8fb00020 	lw	s0,32(sp)
    a820:	03e00008 	jr	ra
    a824:	27bd0040 	addiu	sp,sp,64

0000a828 <ar6000_channel_change_event>:
    a828:	3c040000 	lui	a0,0x0
			a828: R_MIPS_HI16	$LC28
    a82c:	3c190000 	lui	t9,0x0
			a82c: R_MIPS_HI16	printk
    a830:	24840000 	addiu	a0,a0,0
			a830: R_MIPS_LO16	$LC28
    a834:	30a5ffff 	andi	a1,a1,0xffff
    a838:	27390000 	addiu	t9,t9,0
			a838: R_MIPS_LO16	printk
    a83c:	03200008 	jr	t9
    a840:	30c6ffff 	andi	a2,a2,0xffff

0000a844 <ar6000_cac_event>:
    a844:	3c040000 	lui	a0,0x0
			a844: R_MIPS_HI16	$LC29
    a848:	3c190000 	lui	t9,0x0
			a848: R_MIPS_HI16	printk
    a84c:	24840000 	addiu	a0,a0,0
			a84c: R_MIPS_LO16	$LC29
    a850:	30a500ff 	andi	a1,a1,0xff
    a854:	30c600ff 	andi	a2,a2,0xff
    a858:	27390000 	addiu	t9,t9,0
			a858: R_MIPS_LO16	printk
    a85c:	03200008 	jr	t9
    a860:	30e700ff 	andi	a3,a3,0xff

0000a864 <ar6000_reportError_event>:
    a864:	27bdff98 	addiu	sp,sp,-104
    a868:	afb1005c 	sw	s1,92(sp)
    a86c:	3c040000 	lui	a0,0x0
			a86c: R_MIPS_HI16	$LC30
    a870:	3c110000 	lui	s1,0x0
			a870: R_MIPS_HI16	printk
    a874:	afb20060 	sw	s2,96(sp)
    a878:	afb00058 	sw	s0,88(sp)
    a87c:	24840000 	addiu	a0,a0,0
			a87c: R_MIPS_LO16	$LC30
    a880:	afbf0064 	sw	ra,100(sp)
    a884:	26320000 	addiu	s2,s1,0
			a884: R_MIPS_LO16	printk
    a888:	0240f809 	jalr	s2
    a88c:	00a08021 	move	s0,a1
    a890:	2602ffff 	addiu	v0,s0,-1
    a894:	3c040000 	lui	a0,0x0
			a894: R_MIPS_HI16	$LC31
    a898:	02021024 	and	v0,s0,v0
    a89c:	10400007 	beqz	v0,a8bc <ar6000_reportError_event+0x58>
    a8a0:	24840000 	addiu	a0,a0,0
			a8a0: R_MIPS_LO16	$LC31
    a8a4:	8fbf0064 	lw	ra,100(sp)
    a8a8:	8fb20060 	lw	s2,96(sp)
    a8ac:	8fb1005c 	lw	s1,92(sp)
    a8b0:	8fb00058 	lw	s0,88(sp)
    a8b4:	03e00008 	jr	ra
    a8b8:	27bd0068 	addiu	sp,sp,104
    a8bc:	0240f809 	jalr	s2
    a8c0:	00000000 	nop
    a8c4:	24030001 	li	v1,1
    a8c8:	3c020001 	lui	v0,0x1
    a8cc:	3c040000 	lui	a0,0x0
			a8cc: R_MIPS_HI16	$LC38
    a8d0:	02031804 	sllv	v1,v1,s0
    a8d4:	34420116 	ori	v0,v0,0x116
    a8d8:	2e050011 	sltiu	a1,s0,17
    a8dc:	24840000 	addiu	a0,a0,0
			a8dc: R_MIPS_LO16	$LC38
    a8e0:	0240c821 	move	t9,s2
    a8e4:	10a00005 	beqz	a1,a8fc <ar6000_reportError_event+0x98>
    a8e8:	00621824 	and	v1,v1,v0
    a8ec:	27b10010 	addiu	s1,sp,16
    a8f0:	00002821 	move	a1,zero
    a8f4:	14600007 	bnez	v1,a914 <ar6000_reportError_event+0xb0>
    a8f8:	24060044 	li	a2,68
    a8fc:	8fbf0064 	lw	ra,100(sp)
    a900:	8fb20060 	lw	s2,96(sp)
    a904:	8fb1005c 	lw	s1,92(sp)
    a908:	8fb00058 	lw	s0,88(sp)
    a90c:	03200008 	jr	t9
    a910:	27bd0068 	addiu	sp,sp,104
    a914:	3c020000 	lui	v0,0x0
			a914: R_MIPS_HI16	memset
    a918:	24420000 	addiu	v0,v0,0
			a918: R_MIPS_LO16	memset
    a91c:	0040f809 	jalr	v0
    a920:	02202021 	move	a0,s1
    a924:	3c020000 	lui	v0,0x0
			a924: R_MIPS_HI16	$LC32
    a928:	24420000 	addiu	v0,v0,0
			a928: R_MIPS_LO16	$LC32
    a92c:	afa20014 	sw	v0,20(sp)
    a930:	3c030000 	lui	v1,0x0
			a930: R_MIPS_HI16	$LC33
    a934:	3c020000 	lui	v0,0x0
			a934: R_MIPS_HI16	$LC34
    a938:	24630000 	addiu	v1,v1,0
			a938: R_MIPS_LO16	$LC33
    a93c:	24420000 	addiu	v0,v0,0
			a93c: R_MIPS_LO16	$LC34
    a940:	afa30018 	sw	v1,24(sp)
    a944:	afa20020 	sw	v0,32(sp)
    a948:	3c030000 	lui	v1,0x0
			a948: R_MIPS_HI16	$LC35
    a94c:	3c020000 	lui	v0,0x0
			a94c: R_MIPS_HI16	$LC36
    a950:	00102080 	sll	a0,s0,0x2
    a954:	24630000 	addiu	v1,v1,0
			a954: R_MIPS_LO16	$LC35
    a958:	24420000 	addiu	v0,v0,0
			a958: R_MIPS_LO16	$LC36
    a95c:	00912021 	addu	a0,a0,s1
    a960:	afa30030 	sw	v1,48(sp)
    a964:	afa20050 	sw	v0,80(sp)
    a968:	8c850000 	lw	a1,0(a0)
    a96c:	3c040000 	lui	a0,0x0
			a96c: R_MIPS_HI16	$LC37
    a970:	0240c821 	move	t9,s2
    a974:	8fbf0064 	lw	ra,100(sp)
    a978:	8fb20060 	lw	s2,96(sp)
    a97c:	8fb1005c 	lw	s1,92(sp)
    a980:	8fb00058 	lw	s0,88(sp)
    a984:	24840000 	addiu	a0,a0,0
			a984: R_MIPS_LO16	$LC37
    a988:	03200008 	jr	t9
    a98c:	27bd0068 	addiu	sp,sp,104

0000a990 <ar6000_regDomain_event>:
    a990:	27bdffe0 	addiu	sp,sp,-32
    a994:	afb10014 	sw	s1,20(sp)
    a998:	3c020000 	lui	v0,0x0
			a998: R_MIPS_HI16	printk
    a99c:	00808821 	move	s1,a0
    a9a0:	3c040000 	lui	a0,0x0
			a9a0: R_MIPS_HI16	$LC39
    a9a4:	afbf0018 	sw	ra,24(sp)
    a9a8:	afb00010 	sw	s0,16(sp)
    a9ac:	24840000 	addiu	a0,a0,0
			a9ac: R_MIPS_LO16	$LC39
    a9b0:	24420000 	addiu	v0,v0,0
			a9b0: R_MIPS_LO16	printk
    a9b4:	0040f809 	jalr	v0
    a9b8:	00a08021 	move	s0,a1
    a9bc:	ae30029c 	sw	s0,668(s1)
    a9c0:	8fbf0018 	lw	ra,24(sp)
    a9c4:	8fb10014 	lw	s1,20(sp)
    a9c8:	8fb00010 	lw	s0,16(sp)
    a9cc:	03e00008 	jr	ra
    a9d0:	27bd0020 	addiu	sp,sp,32

0000a9d4 <dbglog_parse_debug_logs>:
    a9d4:	27bdffc8 	addiu	sp,sp,-56
    a9d8:	afb20020 	sw	s2,32(sp)
    a9dc:	00059082 	srl	s2,a1,0x2
    a9e0:	afb40028 	sw	s4,40(sp)
    a9e4:	afbf0030 	sw	ra,48(sp)
    a9e8:	afb5002c 	sw	s5,44(sp)
    a9ec:	afb30024 	sw	s3,36(sp)
    a9f0:	afb1001c 	sw	s1,28(sp)
    a9f4:	afb00018 	sw	s0,24(sp)
    a9f8:	12400027 	beqz	s2,aa98 <dbglog_parse_debug_logs+0xc4>
    a9fc:	0080a021 	move	s4,a0
    aa00:	3c020000 	lui	v0,0x0
			aa00: R_MIPS_HI16	printk
    aa04:	24550000 	addiu	s5,v0,0
			aa04: R_MIPS_LO16	printk
    aa08:	00008821 	move	s1,zero
    aa0c:	08002a8e 	j	aa38 <dbglog_parse_debug_logs+0x64>
			aa0c: R_MIPS_26	.text
    aa10:	3c130000 	lui	s3,0x0
			aa10: R_MIPS_HI16	debugdriver
    aa14:	12020032 	beq	s0,v0,aae0 <dbglog_parse_debug_logs+0x10c>
    aa18:	8e620000 	lw	v0,0(s3)
			aa18: R_MIPS_LO16	debugdriver
    aa1c:	1440003a 	bnez	v0,ab08 <dbglog_parse_debug_logs+0x134>
    aa20:	3c040000 	lui	a0,0x0
			aa20: R_MIPS_HI16	$LC43
    aa24:	26220001 	addiu	v0,s1,1
    aa28:	02028821 	addu	s1,s0,v0
    aa2c:	0232182b 	sltu	v1,s1,s2
    aa30:	1060001a 	beqz	v1,aa9c <dbglog_parse_debug_logs+0xc8>
    aa34:	8fbf0030 	lw	ra,48(sp)
    aa38:	00111080 	sll	v0,s1,0x2
    aa3c:	02824021 	addu	t0,s4,v0
    aa40:	8d030000 	lw	v1,0(t0)
    aa44:	00031180 	sll	v0,v1,0x6
    aa48:	00032682 	srl	a0,v1,0x1a
    aa4c:	00023582 	srl	a2,v0,0x16
    aa50:	00038782 	srl	s0,v1,0x1e
    aa54:	24020001 	li	v0,1
    aa58:	3085000f 	andi	a1,a0,0xf
    aa5c:	12020017 	beq	s0,v0,aabc <dbglog_parse_debug_logs+0xe8>
    aa60:	3067ffff 	andi	a3,v1,0xffff
    aa64:	1600ffeb 	bnez	s0,aa14 <dbglog_parse_debug_logs+0x40>
    aa68:	24020002 	li	v0,2
    aa6c:	8e620000 	lw	v0,0(s3)
			aa6c: R_MIPS_LO16	debugdriver
    aa70:	1040ffed 	beqz	v0,aa28 <dbglog_parse_debug_logs+0x54>
    aa74:	26220001 	addiu	v0,s1,1
    aa78:	3c040000 	lui	a0,0x0
			aa78: R_MIPS_HI16	$LC40
    aa7c:	02a0f809 	jalr	s5
    aa80:	24840000 	addiu	a0,a0,0
			aa80: R_MIPS_LO16	$LC40
    aa84:	26220001 	addiu	v0,s1,1
    aa88:	02028821 	addu	s1,s0,v0
    aa8c:	0232182b 	sltu	v1,s1,s2
    aa90:	1460ffea 	bnez	v1,aa3c <dbglog_parse_debug_logs+0x68>
    aa94:	00111080 	sll	v0,s1,0x2
    aa98:	8fbf0030 	lw	ra,48(sp)
    aa9c:	8fb5002c 	lw	s5,44(sp)
    aaa0:	8fb40028 	lw	s4,40(sp)
    aaa4:	8fb30024 	lw	s3,36(sp)
    aaa8:	8fb20020 	lw	s2,32(sp)
    aaac:	8fb1001c 	lw	s1,28(sp)
    aab0:	8fb00018 	lw	s0,24(sp)
    aab4:	03e00008 	jr	ra
    aab8:	27bd0038 	addiu	sp,sp,56
    aabc:	8e620000 	lw	v0,0(s3)
			aabc: R_MIPS_LO16	debugdriver
    aac0:	1040ffd8 	beqz	v0,aa24 <dbglog_parse_debug_logs+0x50>
    aac4:	3c040000 	lui	a0,0x0
			aac4: R_MIPS_HI16	$LC41
    aac8:	8d020004 	lw	v0,4(t0)
    aacc:	24840000 	addiu	a0,a0,0
			aacc: R_MIPS_LO16	$LC41
    aad0:	02a0f809 	jalr	s5
    aad4:	afa20010 	sw	v0,16(sp)
    aad8:	08002a8a 	j	aa28 <dbglog_parse_debug_logs+0x54>
			aad8: R_MIPS_26	.text
    aadc:	26220001 	addiu	v0,s1,1
    aae0:	1040ffd0 	beqz	v0,aa24 <dbglog_parse_debug_logs+0x50>
    aae4:	3c040000 	lui	a0,0x0
			aae4: R_MIPS_HI16	$LC42
    aae8:	8d030008 	lw	v1,8(t0)
    aaec:	8d020004 	lw	v0,4(t0)
    aaf0:	24840000 	addiu	a0,a0,0
			aaf0: R_MIPS_LO16	$LC42
    aaf4:	afa20010 	sw	v0,16(sp)
    aaf8:	02a0f809 	jalr	s5
    aafc:	afa30014 	sw	v1,20(sp)
    ab00:	08002a8a 	j	aa28 <dbglog_parse_debug_logs+0x54>
			ab00: R_MIPS_26	.text
    ab04:	26220001 	addiu	v0,s1,1
    ab08:	24840000 	addiu	a0,a0,0
			ab08: R_MIPS_LO16	$LC43
    ab0c:	02a0f809 	jalr	s5
    ab10:	02002821 	move	a1,s0
    ab14:	08002a8a 	j	aa28 <dbglog_parse_debug_logs+0x54>
			ab14: R_MIPS_26	.text
    ab18:	26220001 	addiu	v0,s1,1

0000ab1c <ar6000_init_profile_info>:
    ab1c:	27bdffe0 	addiu	sp,sp,-32
    ab20:	afb00010 	sw	s0,16(sp)
    ab24:	3c100000 	lui	s0,0x0
			ab24: R_MIPS_HI16	memset
    ab28:	afb10014 	sw	s1,20(sp)
    ab2c:	afbf0018 	sw	ra,24(sp)
    ab30:	00808821 	move	s1,a0
    ab34:	ac800078 	sw	zero,120(a0)
    ab38:	00002821 	move	a1,zero
    ab3c:	2484007c 	addiu	a0,a0,124
    ab40:	26020000 	addiu	v0,s0,0
			ab40: R_MIPS_LO16	memset
    ab44:	0040f809 	jalr	v0
    ab48:	24060020 	li	a2,32
    ab4c:	3c030000 	lui	v1,0x0
			ab4c: R_MIPS_HI16	fwmode
    ab50:	8c630000 	lw	v1,0(v1)
			ab50: R_MIPS_LO16	fwmode
    ab54:	24020001 	li	v0,1
    ab58:	10620024 	beq	v1,v0,abec <ar6000_init_profile_info+0xd0>
    ab5c:	00000000 	nop
    ab60:	1460001d 	bnez	v1,abd8 <ar6000_init_profile_info+0xbc>
    ab64:	24020002 	li	v0,2
    ab68:	a222009d 	sb	v0,157(s1)
    ab6c:	a222009c 	sb	v0,156(s1)
    ab70:	24020001 	li	v0,1
    ab74:	26100000 	addiu	s0,s0,0
			ab74: R_MIPS_LO16	memset
    ab78:	262400a5 	addiu	a0,s1,165
    ab7c:	a22000a1 	sb	zero,161(s1)
    ab80:	a22200a2 	sb	v0,162(s1)
    ab84:	a222009e 	sb	v0,158(s1)
    ab88:	a222009f 	sb	v0,159(s1)
    ab8c:	a22200a0 	sb	v0,160(s1)
    ab90:	a22000a3 	sb	zero,163(s1)
    ab94:	00002821 	move	a1,zero
    ab98:	0200f809 	jalr	s0
    ab9c:	24060108 	li	a2,264
    aba0:	262401b3 	addiu	a0,s1,435
    aba4:	00002821 	move	a1,zero
    aba8:	0200f809 	jalr	s0
    abac:	24060006 	li	a2,6
    abb0:	262401ad 	addiu	a0,s1,429
    abb4:	00002821 	move	a1,zero
    abb8:	0200f809 	jalr	s0
    abbc:	24060006 	li	a2,6
    abc0:	a62001bc 	sh	zero,444(s1)
    abc4:	8fbf0018 	lw	ra,24(sp)
    abc8:	8fb10014 	lw	s1,20(sp)
    abcc:	8fb00010 	lw	s0,16(sp)
    abd0:	03e00008 	jr	ra
    abd4:	27bd0020 	addiu	sp,sp,32
    abd8:	24020002 	li	v0,2
    abdc:	1462ffe4 	bne	v1,v0,ab70 <ar6000_init_profile_info+0x54>
    abe0:	24020010 	li	v0,16
    abe4:	08002adb 	j	ab6c <ar6000_init_profile_info+0x50>
			abe4: R_MIPS_26	.text
    abe8:	a222009d 	sb	v0,157(s1)
    abec:	a223009d 	sb	v1,157(s1)
    abf0:	08002adc 	j	ab70 <ar6000_init_profile_info+0x54>
			abf0: R_MIPS_26	.text
    abf4:	a223009c 	sb	v1,156(s1)

0000abf8 <ar6000_ap_mode_profile_commit>:
    abf8:	27bdff90 	addiu	sp,sp,-112
    abfc:	afb10064 	sw	s1,100(sp)
    ac00:	afbf0068 	sw	ra,104(sp)
    ac04:	afb00060 	sw	s0,96(sp)
    ac08:	94820ca8 	lhu	v0,3240(a0)
    ac0c:	104000a1 	beqz	v0,ae94 <ar6000_ap_mode_profile_commit+0x29c>
    ac10:	00808821 	move	s1,a0
    ac14:	8c820078 	lw	v0,120(a0)
    ac18:	104000a5 	beqz	v0,aeb0 <ar6000_ap_mode_profile_commit+0x2b8>
    ac1c:	3c020000 	lui	v0,0x0
			ac1c: R_MIPS_HI16	printk
    ac20:	948201ba 	lhu	v0,442(a0)
    ac24:	104000a8 	beqz	v0,aec8 <ar6000_ap_mode_profile_commit+0x2d0>
    ac28:	3c020000 	lui	v0,0x0
			ac28: R_MIPS_HI16	printk
    ac2c:	908500a0 	lbu	a1,160(a0)
    ac30:	908200a2 	lbu	v0,162(a0)
    ac34:	14450091 	bne	v0,a1,ae7c <ar6000_ap_mode_profile_commit+0x284>
    ac38:	3c020000 	lui	v0,0x0
			ac38: R_MIPS_HI16	printk
    ac3c:	9083009f 	lbu	v1,159(a0)
    ac40:	2c620008 	sltiu	v0,v1,8
    ac44:	1440003a 	bnez	v0,ad30 <ar6000_ap_mode_profile_commit+0x138>
    ac48:	00031080 	sll	v0,v1,0x2
    ac4c:	9222009c 	lbu	v0,156(s1)
    ac50:	27b00028 	addiu	s0,sp,40
    ac54:	a222009d 	sb	v0,157(s1)
    ac58:	3c020000 	lui	v0,0x0
			ac58: R_MIPS_HI16	memset
    ac5c:	02002021 	move	a0,s0
    ac60:	00002821 	move	a1,zero
    ac64:	24420000 	addiu	v0,v0,0
			ac64: R_MIPS_LO16	memset
    ac68:	0040f809 	jalr	v0
    ac6c:	24060034 	li	a2,52
    ac70:	92230078 	lbu	v1,120(s1)
    ac74:	3c020000 	lui	v0,0x0
			ac74: R_MIPS_HI16	memcpy
    ac78:	00603021 	move	a2,v1
    ac7c:	27a40030 	addiu	a0,sp,48
    ac80:	2625007c 	addiu	a1,s1,124
    ac84:	24420000 	addiu	v0,v0,0
			ac84: R_MIPS_LO16	memcpy
    ac88:	0040f809 	jalr	v0
    ac8c:	a3a3002f 	sb	v1,47(sp)
    ac90:	9222009d 	lbu	v0,157(s1)
    ac94:	962301ba 	lhu	v1,442(s1)
    ac98:	9226009e 	lbu	a2,158(s1)
    ac9c:	9227009f 	lbu	a3,159(s1)
    aca0:	922800a0 	lbu	t0,160(s1)
    aca4:	922900a1 	lbu	t1,161(s1)
    aca8:	922a00a2 	lbu	t2,162(s1)
    acac:	922b00a3 	lbu	t3,163(s1)
    acb0:	8e2c0b48 	lw	t4,2888(s1)
    acb4:	8e240004 	lw	a0,4(s1)
    acb8:	a3a20028 	sb	v0,40(sp)
    acbc:	3c020000 	lui	v0,0x0
			acbc: R_MIPS_HI16	wmi_ap_profile_commit
    acc0:	a7a30050 	sh	v1,80(sp)
    acc4:	02002821 	move	a1,s0
    acc8:	a3a60029 	sb	a2,41(sp)
    accc:	a3a7002a 	sb	a3,42(sp)
    acd0:	a3a8002b 	sb	t0,43(sp)
    acd4:	a3a9002c 	sb	t1,44(sp)
    acd8:	a3aa002d 	sb	t2,45(sp)
    acdc:	a3ab002e 	sb	t3,46(sp)
    ace0:	24420000 	addiu	v0,v0,0
			ace0: R_MIPS_LO16	wmi_ap_profile_commit
    ace4:	0040f809 	jalr	v0
    ace8:	afac0058 	sw	t4,88(sp)
    acec:	9223009f 	lbu	v1,159(s1)
    acf0:	24040001 	li	a0,1
    acf4:	24020003 	li	v0,3
    acf8:	ae24003c 	sw	a0,60(s1)
    acfc:	10620012 	beq	v1,v0,ad48 <ar6000_ap_mode_profile_commit+0x150>
    ad00:	a6200ca8 	sh	zero,3240(s1)
    ad04:	24020005 	li	v0,5
    ad08:	1062000f 	beq	v1,v0,ad48 <ar6000_ap_mode_profile_commit+0x150>
    ad0c:	00000000 	nop
    ad10:	1064002c 	beq	v1,a0,adc4 <ar6000_ap_mode_profile_commit+0x1cc>
    ad14:	24020002 	li	v0,2
    ad18:	00001021 	move	v0,zero
    ad1c:	8fbf0068 	lw	ra,104(sp)
    ad20:	8fb10064 	lw	s1,100(sp)
    ad24:	8fb00060 	lw	s0,96(sp)
    ad28:	03e00008 	jr	ra
    ad2c:	27bd0070 	addiu	sp,sp,112
    ad30:	3c030000 	lui	v1,0x0
			ad30: R_MIPS_HI16	.rodata
    ad34:	24630080 	addiu	v1,v1,128
			ad34: R_MIPS_LO16	.rodata
    ad38:	00431021 	addu	v0,v0,v1
    ad3c:	8c440000 	lw	a0,0(v0)
    ad40:	00800008 	jr	a0
    ad44:	00000000 	nop
    ad48:	922315b8 	lbu	v1,5560(s1)
    ad4c:	24020001 	li	v0,1
    ad50:	10620048 	beq	v1,v0,ae74 <ar6000_ap_mode_profile_commit+0x27c>
    ad54:	262815b8 	addiu	t0,s1,5560
    ad58:	24020003 	li	v0,3
    ad5c:	1462ffef 	bne	v1,v0,ad1c <ar6000_ap_mode_profile_commit+0x124>
    ad60:	00001021 	move	v0,zero
    ad64:	24060004 	li	a2,4
    ad68:	91090004 	lbu	t1,4(t0)
    ad6c:	24020003 	li	v0,3
    ad70:	8e240004 	lw	a0,4(s1)
    ad74:	91050002 	lbu	a1,2(t0)
    ad78:	250a0006 	addiu	t2,t0,6
    ad7c:	25030010 	addiu	v1,t0,16
    ad80:	afa20024 	sw	v0,36(sp)
    ad84:	afa2001c 	sw	v0,28(sp)
    ad88:	25080020 	addiu	t0,t0,32
    ad8c:	3c020000 	lui	v0,0x0
			ad8c: R_MIPS_HI16	wmi_addKey_cmd
    ad90:	afa90010 	sw	t1,16(sp)
    ad94:	afa30014 	sw	v1,20(sp)
    ad98:	afa80018 	sw	t0,24(sp)
    ad9c:	afaa0020 	sw	t2,32(sp)
    ada0:	24420000 	addiu	v0,v0,0
			ada0: R_MIPS_LO16	wmi_addKey_cmd
    ada4:	0040f809 	jalr	v0
    ada8:	24070001 	li	a3,1
    adac:	8fbf0068 	lw	ra,104(sp)
    adb0:	8fb10064 	lw	s1,100(sp)
    adb4:	8fb00060 	lw	s0,96(sp)
    adb8:	00001021 	move	v0,zero
    adbc:	03e00008 	jr	ra
    adc0:	27bd0070 	addiu	sp,sp,112
    adc4:	922300a0 	lbu	v1,160(s1)
    adc8:	1462ffd3 	bne	v1,v0,ad18 <ar6000_ap_mode_profile_commit+0x120>
    adcc:	3c020000 	lui	v0,0x0
			adcc: R_MIPS_HI16	ar6000_install_static_wep_keys
    add0:	24420000 	addiu	v0,v0,0
			add0: R_MIPS_LO16	ar6000_install_static_wep_keys
    add4:	0040f809 	jalr	v0
    add8:	02202021 	move	a0,s1
    addc:	08002b47 	j	ad1c <ar6000_ap_mode_profile_commit+0x124>
			addc: R_MIPS_26	.text
    ade0:	00001021 	move	v0,zero
    ade4:	24a2ffff 	addiu	v0,a1,-1
    ade8:	304200ff 	andi	v0,v0,0xff
    adec:	2c420002 	sltiu	v0,v0,2
    adf0:	1440ff96 	bnez	v0,ac4c <ar6000_ap_mode_profile_commit+0x54>
    adf4:	3c040000 	lui	a0,0x0
			adf4: R_MIPS_HI16	$LC48
    adf8:	3c020000 	lui	v0,0x0
			adf8: R_MIPS_HI16	printk
    adfc:	24420000 	addiu	v0,v0,0
			adfc: R_MIPS_LO16	printk
    ae00:	0040f809 	jalr	v0
    ae04:	24840000 	addiu	a0,a0,0
			ae04: R_MIPS_LO16	$LC48
    ae08:	08002b47 	j	ad1c <ar6000_ap_mode_profile_commit+0x124>
			ae08: R_MIPS_26	.text
    ae0c:	2402ff86 	li	v0,-122
    ae10:	24020003 	li	v0,3
    ae14:	10a2ff8d 	beq	a1,v0,ac4c <ar6000_ap_mode_profile_commit+0x54>
    ae18:	3c040000 	lui	a0,0x0
			ae18: R_MIPS_HI16	$LC49
    ae1c:	3c020000 	lui	v0,0x0
			ae1c: R_MIPS_HI16	printk
    ae20:	24420000 	addiu	v0,v0,0
			ae20: R_MIPS_LO16	printk
    ae24:	0040f809 	jalr	v0
    ae28:	24840000 	addiu	a0,a0,0
			ae28: R_MIPS_LO16	$LC49
    ae2c:	08002b47 	j	ad1c <ar6000_ap_mode_profile_commit+0x124>
			ae2c: R_MIPS_26	.text
    ae30:	2402ff86 	li	v0,-122
    ae34:	24020004 	li	v0,4
    ae38:	10a2ff84 	beq	a1,v0,ac4c <ar6000_ap_mode_profile_commit+0x54>
    ae3c:	3c040000 	lui	a0,0x0
			ae3c: R_MIPS_HI16	$LC50
    ae40:	3c020000 	lui	v0,0x0
			ae40: R_MIPS_HI16	printk
    ae44:	24420000 	addiu	v0,v0,0
			ae44: R_MIPS_LO16	printk
    ae48:	0040f809 	jalr	v0
    ae4c:	24840000 	addiu	a0,a0,0
			ae4c: R_MIPS_LO16	$LC50
    ae50:	08002b47 	j	ad1c <ar6000_ap_mode_profile_commit+0x124>
			ae50: R_MIPS_26	.text
    ae54:	2402ff86 	li	v0,-122
    ae58:	3c040000 	lui	a0,0x0
			ae58: R_MIPS_HI16	$LC51
    ae5c:	3c020000 	lui	v0,0x0
			ae5c: R_MIPS_HI16	printk
    ae60:	24420000 	addiu	v0,v0,0
			ae60: R_MIPS_LO16	printk
    ae64:	0040f809 	jalr	v0
    ae68:	24840000 	addiu	a0,a0,0
			ae68: R_MIPS_LO16	$LC51
    ae6c:	08002b47 	j	ad1c <ar6000_ap_mode_profile_commit+0x124>
			ae6c: R_MIPS_26	.text
    ae70:	2402ff86 	li	v0,-122
    ae74:	08002b5a 	j	ad68 <ar6000_ap_mode_profile_commit+0x170>
			ae74: R_MIPS_26	.text
    ae78:	24060003 	li	a2,3
    ae7c:	3c040000 	lui	a0,0x0
			ae7c: R_MIPS_HI16	$LC47
    ae80:	24420000 	addiu	v0,v0,0
			ae80: R_MIPS_LO16	printk
    ae84:	0040f809 	jalr	v0
    ae88:	24840000 	addiu	a0,a0,0
			ae88: R_MIPS_LO16	$LC47
    ae8c:	08002b47 	j	ad1c <ar6000_ap_mode_profile_commit+0x124>
			ae8c: R_MIPS_26	.text
    ae90:	2402ff86 	li	v0,-122
    ae94:	3c040000 	lui	a0,0x0
			ae94: R_MIPS_HI16	$LC44
    ae98:	3c020000 	lui	v0,0x0
			ae98: R_MIPS_HI16	printk
    ae9c:	24420000 	addiu	v0,v0,0
			ae9c: R_MIPS_LO16	printk
    aea0:	0040f809 	jalr	v0
    aea4:	24840000 	addiu	a0,a0,0
			aea4: R_MIPS_LO16	$LC44
    aea8:	08002b47 	j	ad1c <ar6000_ap_mode_profile_commit+0x124>
			aea8: R_MIPS_26	.text
    aeac:	2402ffc3 	li	v0,-61
    aeb0:	3c040000 	lui	a0,0x0
			aeb0: R_MIPS_HI16	$LC45
    aeb4:	24420000 	addiu	v0,v0,0
			aeb4: R_MIPS_LO16	printk
    aeb8:	0040f809 	jalr	v0
    aebc:	24840000 	addiu	a0,a0,0
			aebc: R_MIPS_LO16	$LC45
    aec0:	08002b47 	j	ad1c <ar6000_ap_mode_profile_commit+0x124>
			aec0: R_MIPS_26	.text
    aec4:	2402ffdb 	li	v0,-37
    aec8:	3c040000 	lui	a0,0x0
			aec8: R_MIPS_HI16	$LC46
    aecc:	24420000 	addiu	v0,v0,0
			aecc: R_MIPS_LO16	printk
    aed0:	0040f809 	jalr	v0
    aed4:	24840000 	addiu	a0,a0,0
			aed4: R_MIPS_LO16	$LC46
    aed8:	08002b47 	j	ad1c <ar6000_ap_mode_profile_commit+0x124>
			aed8: R_MIPS_26	.text
    aedc:	2402ffdb 	li	v0,-37

0000aee0 <ar6000_free_cookie>:
    aee0:	27bdffe8 	addiu	sp,sp,-24
    aee4:	10800009 	beqz	a0,af0c <ar6000_free_cookie+0x2c>
    aee8:	afbf0010 	sw	ra,16(sp)
    aeec:	10a00012 	beqz	a1,af38 <ar6000_free_cookie+0x58>
    aef0:	3c020000 	lui	v0,0x0
			aef0: R_MIPS_HI16	printk
    aef4:	8c8204cc 	lw	v0,1228(a0)
    aef8:	aca2003c 	sw	v0,60(a1)
    aefc:	ac8504cc 	sw	a1,1228(a0)
    af00:	8fbf0010 	lw	ra,16(sp)
    af04:	03e00008 	jr	ra
    af08:	27bd0018 	addiu	sp,sp,24
    af0c:	3c040000 	lui	a0,0x0
			af0c: R_MIPS_HI16	$LC52
    af10:	3c020000 	lui	v0,0x0
			af10: R_MIPS_HI16	printk
    af14:	24840000 	addiu	a0,a0,0
			af14: R_MIPS_LO16	$LC52
    af18:	24420000 	addiu	v0,v0,0
			af18: R_MIPS_LO16	printk
    af1c:	0040f809 	jalr	v0
    af20:	24050fd9 	li	a1,4057
    af24:	3c040000 	lui	a0,0x0
			af24: R_MIPS_HI16	$LC53
    af28:	3c020000 	lui	v0,0x0
			af28: R_MIPS_HI16	panic
    af2c:	24420000 	addiu	v0,v0,0
			af2c: R_MIPS_LO16	panic
    af30:	0040f809 	jalr	v0
    af34:	24840000 	addiu	a0,a0,0
			af34: R_MIPS_LO16	$LC53
    af38:	3c040000 	lui	a0,0x0
			af38: R_MIPS_HI16	$LC54
    af3c:	24840000 	addiu	a0,a0,0
			af3c: R_MIPS_LO16	$LC54
    af40:	24420000 	addiu	v0,v0,0
			af40: R_MIPS_LO16	printk
    af44:	0040f809 	jalr	v0
    af48:	24050fda 	li	a1,4058
    af4c:	3c040000 	lui	a0,0x0
			af4c: R_MIPS_HI16	$LC55
    af50:	3c020000 	lui	v0,0x0
			af50: R_MIPS_HI16	panic
    af54:	24420000 	addiu	v0,v0,0
			af54: R_MIPS_LO16	panic
    af58:	0040f809 	jalr	v0
    af5c:	24840000 	addiu	a0,a0,0
			af5c: R_MIPS_LO16	$LC55

0000af60 <ar6000_set_numdataendpts>:
    af60:	27bdffe8 	addiu	sp,sp,-24
    af64:	2ca20004 	sltiu	v0,a1,4
    af68:	10400005 	beqz	v0,af80 <ar6000_set_numdataendpts+0x20>
    af6c:	afbf0010 	sw	ra,16(sp)
    af70:	a0850030 	sb	a1,48(a0)
    af74:	8fbf0010 	lw	ra,16(sp)
    af78:	03e00008 	jr	ra
    af7c:	27bd0018 	addiu	sp,sp,24
    af80:	3c040000 	lui	a0,0x0
			af80: R_MIPS_HI16	$LC56
    af84:	3c020000 	lui	v0,0x0
			af84: R_MIPS_HI16	printk
    af88:	24840000 	addiu	a0,a0,0
			af88: R_MIPS_LO16	$LC56
    af8c:	24420000 	addiu	v0,v0,0
			af8c: R_MIPS_LO16	printk
    af90:	0040f809 	jalr	v0
    af94:	24050cff 	li	a1,3327
    af98:	3c040000 	lui	a0,0x0
			af98: R_MIPS_HI16	$LC57
    af9c:	3c020000 	lui	v0,0x0
			af9c: R_MIPS_HI16	panic
    afa0:	24420000 	addiu	v0,v0,0
			afa0: R_MIPS_LO16	panic
    afa4:	0040f809 	jalr	v0
    afa8:	24840000 	addiu	a0,a0,0
			afa8: R_MIPS_LO16	$LC57

0000afac <ar6000_dump_skb>:
    afac:	27bdffc8 	addiu	sp,sp,-56
    afb0:	afb00010 	sw	s0,16(sp)
    afb4:	3c100000 	lui	s0,0x0
			afb4: R_MIPS_HI16	a_netbuf_to_data
    afb8:	afbf0030 	sw	ra,48(sp)
    afbc:	26100000 	addiu	s0,s0,0
			afbc: R_MIPS_LO16	a_netbuf_to_data
    afc0:	afb7002c 	sw	s7,44(sp)
    afc4:	afb60028 	sw	s6,40(sp)
    afc8:	afb50024 	sw	s5,36(sp)
    afcc:	afb40020 	sw	s4,32(sp)
    afd0:	afb3001c 	sw	s3,28(sp)
    afd4:	afb20018 	sw	s2,24(sp)
    afd8:	afb10014 	sw	s1,20(sp)
    afdc:	0200f809 	jalr	s0
    afe0:	00809021 	move	s2,a0
    afe4:	00408821 	move	s1,v0
    afe8:	3c030000 	lui	v1,0x0
			afe8: R_MIPS_HI16	printk
    afec:	0200b021 	move	s6,s0
    aff0:	3c020000 	lui	v0,0x0
			aff0: R_MIPS_HI16	a_netbuf_to_len
    aff4:	02402021 	move	a0,s2
    aff8:	24550000 	addiu	s5,v0,0
			aff8: R_MIPS_LO16	a_netbuf_to_len
    affc:	02c0f809 	jalr	s6
    b000:	24770000 	addiu	s7,v1,0
			b000: R_MIPS_LO16	printk
    b004:	02402021 	move	a0,s2
    b008:	02a0f809 	jalr	s5
    b00c:	00408021 	move	s0,v0
    b010:	02028021 	addu	s0,s0,v0
    b014:	3c130000 	lui	s3,0x0
			b014: R_MIPS_HI16	$LC58
    b018:	0230802b 	sltu	s0,s1,s0
    b01c:	3c140000 	lui	s4,0x0
			b01c: R_MIPS_HI16	debugdriver
    b020:	1200000e 	beqz	s0,b05c <ar6000_dump_skb+0xb0>
    b024:	26640000 	addiu	a0,s3,0
			b024: R_MIPS_LO16	$LC58
    b028:	8e820000 	lw	v0,0(s4)
			b028: R_MIPS_LO16	debugdriver
    b02c:	14400018 	bnez	v0,b090 <ar6000_dump_skb+0xe4>
    b030:	00000000 	nop
    b034:	26310001 	addiu	s1,s1,1
    b038:	02c0f809 	jalr	s6
    b03c:	02402021 	move	a0,s2
    b040:	02402021 	move	a0,s2
    b044:	02a0f809 	jalr	s5
    b048:	00408021 	move	s0,v0
    b04c:	02028021 	addu	s0,s0,v0
    b050:	0230802b 	sltu	s0,s1,s0
    b054:	1600fff4 	bnez	s0,b028 <ar6000_dump_skb+0x7c>
    b058:	26640000 	addiu	a0,s3,0
			b058: R_MIPS_LO16	$LC58
    b05c:	8e820000 	lw	v0,0(s4)
			b05c: R_MIPS_LO16	debugdriver
    b060:	14400010 	bnez	v0,b0a4 <ar6000_dump_skb+0xf8>
    b064:	8fbf0030 	lw	ra,48(sp)
    b068:	8fb7002c 	lw	s7,44(sp)
    b06c:	8fb60028 	lw	s6,40(sp)
    b070:	8fb50024 	lw	s5,36(sp)
    b074:	8fb40020 	lw	s4,32(sp)
    b078:	8fb3001c 	lw	s3,28(sp)
    b07c:	8fb20018 	lw	s2,24(sp)
    b080:	8fb10014 	lw	s1,20(sp)
    b084:	8fb00010 	lw	s0,16(sp)
    b088:	03e00008 	jr	ra
    b08c:	27bd0038 	addiu	sp,sp,56
    b090:	92250000 	lbu	a1,0(s1)
    b094:	02e0f809 	jalr	s7
    b098:	26310001 	addiu	s1,s1,1
    b09c:	08002c0e 	j	b038 <ar6000_dump_skb+0x8c>
			b09c: R_MIPS_26	.text
    b0a0:	00000000 	nop
    b0a4:	3c040000 	lui	a0,0x0
			b0a4: R_MIPS_HI16	$LC1
    b0a8:	3c190000 	lui	t9,0x0
			b0a8: R_MIPS_HI16	printk
    b0ac:	8fb7002c 	lw	s7,44(sp)
    b0b0:	8fb60028 	lw	s6,40(sp)
    b0b4:	8fb50024 	lw	s5,36(sp)
    b0b8:	8fb40020 	lw	s4,32(sp)
    b0bc:	8fb3001c 	lw	s3,28(sp)
    b0c0:	8fb20018 	lw	s2,24(sp)
    b0c4:	8fb10014 	lw	s1,20(sp)
    b0c8:	8fb00010 	lw	s0,16(sp)
    b0cc:	24840000 	addiu	a0,a0,0
			b0cc: R_MIPS_LO16	$LC1
    b0d0:	27390000 	addiu	t9,t9,0
			b0d0: R_MIPS_LO16	printk
    b0d4:	03200008 	jr	t9
    b0d8:	27bd0038 	addiu	sp,sp,56

0000b0dc <ar6000_keepalive_rx>:
    b0dc:	a0850508 	sb	a1,1288(a0)
    b0e0:	3c190000 	lui	t9,0x0
			b0e0: R_MIPS_HI16	__wake_up
    b0e4:	3c040000 	lui	a0,0x0
			b0e4: R_MIPS_HI16	arEvent
    b0e8:	24840000 	addiu	a0,a0,0
			b0e8: R_MIPS_LO16	arEvent
    b0ec:	24050003 	li	a1,3
    b0f0:	24060001 	li	a2,1
    b0f4:	27390000 	addiu	t9,t9,0
			b0f4: R_MIPS_LO16	__wake_up
    b0f8:	03200008 	jr	t9
    b0fc:	00003821 	move	a3,zero

0000b100 <ar6000_scanComplete_event>:
    b100:	27bdffe8 	addiu	sp,sp,-24
    b104:	afb00010 	sw	s0,16(sp)
    b108:	afbf0014 	sw	ra,20(sp)
    b10c:	3c020000 	lui	v0,0x0
			b10c: R_MIPS_HI16	debugdriver
    b110:	8c430000 	lw	v1,0(v0)
			b110: R_MIPS_LO16	debugdriver
    b114:	00808021 	move	s0,a0
    b118:	3c040000 	lui	a0,0x0
			b118: R_MIPS_HI16	$LC59
    b11c:	10600005 	beqz	v1,b134 <ar6000_scanComplete_event+0x34>
    b120:	24840000 	addiu	a0,a0,0
			b120: R_MIPS_LO16	$LC59
    b124:	3c020000 	lui	v0,0x0
			b124: R_MIPS_HI16	printk
    b128:	24420000 	addiu	v0,v0,0
			b128: R_MIPS_LO16	printk
    b12c:	0040f809 	jalr	v0
    b130:	00000000 	nop
    b134:	24020001 	li	v0,1
    b138:	ae020c74 	sw	v0,3188(s0)
    b13c:	3c040000 	lui	a0,0x0
			b13c: R_MIPS_HI16	ar6000_scan_queue
    b140:	3c190000 	lui	t9,0x0
			b140: R_MIPS_HI16	__wake_up
    b144:	8fbf0014 	lw	ra,20(sp)
    b148:	8fb00010 	lw	s0,16(sp)
    b14c:	24840000 	addiu	a0,a0,0
			b14c: R_MIPS_LO16	ar6000_scan_queue
    b150:	24050001 	li	a1,1
    b154:	24060001 	li	a2,1
    b158:	00003821 	move	a3,zero
    b15c:	27390000 	addiu	t9,t9,0
			b15c: R_MIPS_LO16	__wake_up
    b160:	03200008 	jr	t9
    b164:	27bd0018 	addiu	sp,sp,24

0000b168 <ar6000_channelList_rx>:
    b168:	27bdffe0 	addiu	sp,sp,-32
    b16c:	afb10014 	sw	s1,20(sp)
    b170:	00058e00 	sll	s1,a1,0x18
    b174:	00118e03 	sra	s1,s1,0x18
    b178:	3c020000 	lui	v0,0x0
			b178: R_MIPS_HI16	memcpy
    b17c:	afbf0018 	sw	ra,24(sp)
    b180:	afb00010 	sw	s0,16(sp)
    b184:	00c02821 	move	a1,a2
    b188:	00808021 	move	s0,a0
    b18c:	00113040 	sll	a2,s1,0x1
    b190:	24420000 	addiu	v0,v0,0
			b190: R_MIPS_LO16	memcpy
    b194:	0040f809 	jalr	v0
    b198:	2484025a 	addiu	a0,a0,602
    b19c:	a2110258 	sb	s1,600(s0)
    b1a0:	3c040000 	lui	a0,0x0
			b1a0: R_MIPS_HI16	arEvent
    b1a4:	3c190000 	lui	t9,0x0
			b1a4: R_MIPS_HI16	__wake_up
    b1a8:	8fbf0018 	lw	ra,24(sp)
    b1ac:	8fb10014 	lw	s1,20(sp)
    b1b0:	8fb00010 	lw	s0,16(sp)
    b1b4:	24840000 	addiu	a0,a0,0
			b1b4: R_MIPS_LO16	arEvent
    b1b8:	24050003 	li	a1,3
    b1bc:	24060001 	li	a2,1
    b1c0:	00003821 	move	a3,zero
    b1c4:	27390000 	addiu	t9,t9,0
			b1c4: R_MIPS_LO16	__wake_up
    b1c8:	03200008 	jr	t9
    b1cc:	27bd0020 	addiu	sp,sp,32

0000b1d0 <ar6000_txPwr_rx>:
    b1d0:	a08501d1 	sb	a1,465(a0)
    b1d4:	3c190000 	lui	t9,0x0
			b1d4: R_MIPS_HI16	__wake_up
    b1d8:	3c040000 	lui	a0,0x0
			b1d8: R_MIPS_HI16	arEvent
    b1dc:	24840000 	addiu	a0,a0,0
			b1dc: R_MIPS_LO16	arEvent
    b1e0:	24050003 	li	a1,3
    b1e4:	24060001 	li	a2,1
    b1e8:	27390000 	addiu	t9,t9,0
			b1e8: R_MIPS_LO16	__wake_up
    b1ec:	03200008 	jr	t9
    b1f0:	00003821 	move	a3,zero

0000b1f4 <ar6000_ratemask_rx>:
    b1f4:	a48504d0 	sh	a1,1232(a0)
    b1f8:	3c190000 	lui	t9,0x0
			b1f8: R_MIPS_HI16	__wake_up
    b1fc:	3c040000 	lui	a0,0x0
			b1fc: R_MIPS_HI16	arEvent
    b200:	24840000 	addiu	a0,a0,0
			b200: R_MIPS_LO16	arEvent
    b204:	24050003 	li	a1,3
    b208:	24060001 	li	a2,1
    b20c:	27390000 	addiu	t9,t9,0
			b20c: R_MIPS_LO16	__wake_up
    b210:	03200008 	jr	t9
    b214:	00003821 	move	a3,zero

0000b218 <ar6000_bitrate_rx>:
    b218:	ac8501d8 	sw	a1,472(a0)
    b21c:	3c190000 	lui	t9,0x0
			b21c: R_MIPS_HI16	__wake_up
    b220:	3c040000 	lui	a0,0x0
			b220: R_MIPS_HI16	arEvent
    b224:	24840000 	addiu	a0,a0,0
			b224: R_MIPS_LO16	arEvent
    b228:	24050003 	li	a1,3
    b22c:	24060001 	li	a2,1
    b230:	27390000 	addiu	t9,t9,0
			b230: R_MIPS_LO16	__wake_up
    b234:	03200008 	jr	t9
    b238:	00003821 	move	a3,zero

0000b23c <a_copy_from_user>:
    b23c:	27bdfff8 	addiu	sp,sp,-8
    b240:	afbf0000 	sw	ra,0(sp)
    b244:	00a61021 	addu	v0,a1,a2
    b248:	00451025 	or	v0,v0,a1
    b24c:	8f830018 	lw	v1,24(gp)
    b250:	00c21025 	or	v0,a2,v0
    b254:	00431024 	and	v0,v0,v1
    b258:	14400006 	bnez	v0,b274 <a_copy_from_user+0x38>
    b25c:	00c03821 	move	a3,a2
    b260:	3c010000 	lui	at,0x0
			b260: R_MIPS_HI16	__copy_user
    b264:	24210000 	addiu	at,at,0
			b264: R_MIPS_LO16	__copy_user
    b268:	0020f809 	jalr	at
    b26c:	00a60821 	addu	at,a1,a2
    b270:	00c03821 	move	a3,a2
    b274:	8fbf0000 	lw	ra,0(sp)
    b278:	00e01021 	move	v0,a3
    b27c:	03e00008 	jr	ra
    b280:	27bd0008 	addiu	sp,sp,8

0000b284 <a_copy_to_user>:
    b284:	27bdfff8 	addiu	sp,sp,-8
    b288:	afbf0000 	sw	ra,0(sp)
    b28c:	00861021 	addu	v0,a0,a2
    b290:	00441025 	or	v0,v0,a0
    b294:	8f830018 	lw	v1,24(gp)
    b298:	00c21025 	or	v0,a2,v0
    b29c:	00431024 	and	v0,v0,v1
    b2a0:	14400006 	bnez	v0,b2bc <a_copy_to_user+0x38>
    b2a4:	00c03821 	move	a3,a2
    b2a8:	3c010000 	lui	at,0x0
			b2a8: R_MIPS_HI16	__copy_user
    b2ac:	24210000 	addiu	at,at,0
			b2ac: R_MIPS_LO16	__copy_user
    b2b0:	0020f809 	jalr	at
    b2b4:	00000000 	nop
    b2b8:	00c03821 	move	a3,a2
    b2bc:	8fbf0000 	lw	ra,0(sp)
    b2c0:	00e01021 	move	v0,a3
    b2c4:	03e00008 	jr	ra
    b2c8:	27bd0008 	addiu	sp,sp,8

0000b2cc <ar6000_send_event_to_app>:
    b2cc:	27bdffb8 	addiu	sp,sp,-72
    b2d0:	24e20002 	addiu	v0,a3,2
    b2d4:	afb3002c 	sw	s3,44(sp)
    b2d8:	3053ffff 	andi	s3,v0,0xffff
    b2dc:	2e630101 	sltiu	v1,s3,257
    b2e0:	afb7003c 	sw	s7,60(sp)
    b2e4:	afb60038 	sw	s6,56(sp)
    b2e8:	afb50034 	sw	s5,52(sp)
    b2ec:	afb40030 	sw	s4,48(sp)
    b2f0:	a7a5004c 	sh	a1,76(sp)
    b2f4:	0080b021 	move	s6,a0
    b2f8:	afbf0040 	sw	ra,64(sp)
    b2fc:	afb20028 	sw	s2,40(sp)
    b300:	afb10024 	sw	s1,36(sp)
    b304:	afb00020 	sw	s0,32(sp)
    b308:	27b70010 	addiu	s7,sp,16
    b30c:	00e0a021 	move	s4,a3
    b310:	3c080000 	lui	t0,0x0
			b310: R_MIPS_HI16	print_wmi_message_too_big
    b314:	24050020 	li	a1,32
    b318:	00c0a821 	move	s5,a2
    b31c:	1460001c 	bnez	v1,b390 <ar6000_send_event_to_app+0xc4>
    b320:	02602021 	move	a0,s3
    b324:	8d020000 	lw	v0,0(t0)
			b324: R_MIPS_LO16	print_wmi_message_too_big
    b328:	24450001 	addiu	a1,v0,1
    b32c:	28420005 	slti	v0,v0,5
    b330:	1040000c 	beqz	v0,b364 <ar6000_send_event_to_app+0x98>
    b334:	3c020000 	lui	v0,0x0
			b334: R_MIPS_HI16	debugdriver
    b338:	8c430000 	lw	v1,0(v0)
			b338: R_MIPS_LO16	debugdriver
    b33c:	3c040000 	lui	a0,0x0
			b33c: R_MIPS_HI16	$LC60
    b340:	24840000 	addiu	a0,a0,0
			b340: R_MIPS_LO16	$LC60
    b344:	02603021 	move	a2,s3
    b348:	24070100 	li	a3,256
    b34c:	10600005 	beqz	v1,b364 <ar6000_send_event_to_app+0x98>
    b350:	ad050000 	sw	a1,0(t0)
			b350: R_MIPS_LO16	print_wmi_message_too_big
    b354:	3c020000 	lui	v0,0x0
			b354: R_MIPS_HI16	printk
    b358:	24420000 	addiu	v0,v0,0
			b358: R_MIPS_LO16	printk
    b35c:	0040f809 	jalr	v0
    b360:	97a5004c 	lhu	a1,76(sp)
    b364:	8fbf0040 	lw	ra,64(sp)
    b368:	8fb7003c 	lw	s7,60(sp)
    b36c:	8fb60038 	lw	s6,56(sp)
    b370:	8fb50034 	lw	s5,52(sp)
    b374:	8fb40030 	lw	s4,48(sp)
    b378:	8fb3002c 	lw	s3,44(sp)
    b37c:	8fb20028 	lw	s2,40(sp)
    b380:	8fb10024 	lw	s1,36(sp)
    b384:	8fb00020 	lw	s0,32(sp)
    b388:	03e00008 	jr	ra
    b38c:	27bd0048 	addiu	sp,sp,72
    b390:	3c020000 	lui	v0,0x0
			b390: R_MIPS_HI16	__kmalloc
    b394:	24420000 	addiu	v0,v0,0
			b394: R_MIPS_LO16	__kmalloc
    b398:	0040f809 	jalr	v0
    b39c:	3c110000 	lui	s1,0x0
			b39c: R_MIPS_HI16	memset
    b3a0:	00409021 	move	s2,v0
    b3a4:	26310000 	addiu	s1,s1,0
			b3a4: R_MIPS_LO16	memset
    b3a8:	02603021 	move	a2,s3
    b3ac:	00402021 	move	a0,v0
    b3b0:	00002821 	move	a1,zero
    b3b4:	0220f809 	jalr	s1
    b3b8:	3c100000 	lui	s0,0x0
			b3b8: R_MIPS_HI16	memcpy
    b3bc:	26100000 	addiu	s0,s0,0
			b3bc: R_MIPS_LO16	memcpy
    b3c0:	02402021 	move	a0,s2
    b3c4:	27a5004c 	addiu	a1,sp,76
    b3c8:	0200f809 	jalr	s0
    b3cc:	24060002 	li	a2,2
    b3d0:	02a02821 	move	a1,s5
    b3d4:	02803021 	move	a2,s4
    b3d8:	0200f809 	jalr	s0
    b3dc:	26440002 	addiu	a0,s2,2
    b3e0:	02e02021 	move	a0,s7
    b3e4:	00002821 	move	a1,zero
    b3e8:	0220f809 	jalr	s1
    b3ec:	24060010 	li	a2,16
    b3f0:	8ec40000 	lw	a0,0(s6)
    b3f4:	3c020000 	lui	v0,0x0
			b3f4: R_MIPS_HI16	wireless_send_event
    b3f8:	02e03021 	move	a2,s7
    b3fc:	02403821 	move	a3,s2
    b400:	a7b30014 	sh	s3,20(sp)
    b404:	24420000 	addiu	v0,v0,0
			b404: R_MIPS_LO16	wireless_send_event
    b408:	0040f809 	jalr	v0
    b40c:	34058c02 	li	a1,0x8c02
    b410:	3c020000 	lui	v0,0x0
			b410: R_MIPS_HI16	kfree
    b414:	24420000 	addiu	v0,v0,0
			b414: R_MIPS_LO16	kfree
    b418:	0040f809 	jalr	v0
    b41c:	02402021 	move	a0,s2
    b420:	8fbf0040 	lw	ra,64(sp)
    b424:	8fb7003c 	lw	s7,60(sp)
    b428:	8fb60038 	lw	s6,56(sp)
    b42c:	8fb50034 	lw	s5,52(sp)
    b430:	8fb40030 	lw	s4,48(sp)
    b434:	8fb3002c 	lw	s3,44(sp)
    b438:	8fb20028 	lw	s2,40(sp)
    b43c:	8fb10024 	lw	s1,36(sp)
    b440:	8fb00020 	lw	s0,32(sp)
    b444:	03e00008 	jr	ra
    b448:	27bd0048 	addiu	sp,sp,72

0000b44c <ar6000_snrThresholdEvent_rx>:
    b44c:	27bdffe0 	addiu	sp,sp,-32
    b450:	3c020000 	lui	v0,0x0
			b450: R_MIPS_HI16	ar6000_send_event_to_app
    b454:	a3a50010 	sb	a1,16(sp)
    b458:	a3a60011 	sb	a2,17(sp)
    b45c:	24051012 	li	a1,4114
    b460:	27a60010 	addiu	a2,sp,16
    b464:	24420000 	addiu	v0,v0,0
			b464: R_MIPS_LO16	ar6000_send_event_to_app
    b468:	afbf0018 	sw	ra,24(sp)
    b46c:	0040f809 	jalr	v0
    b470:	24070002 	li	a3,2
    b474:	8fbf0018 	lw	ra,24(sp)
    b478:	03e00008 	jr	ra
    b47c:	27bd0020 	addiu	sp,sp,32

0000b480 <ar6000_hbChallengeResp_event>:
    b480:	27bdffe8 	addiu	sp,sp,-24
    b484:	24020001 	li	v0,1
    b488:	afbf0010 	sw	ra,16(sp)
    b48c:	24070004 	li	a3,4
    b490:	10c2000a 	beq	a2,v0,b4bc <ar6000_hbChallengeResp_event+0x3c>
    b494:	afa5001c 	sw	a1,28(sp)
    b498:	8c8204fc 	lw	v0,1276(a0)
    b49c:	10450003 	beq	v0,a1,b4ac <ar6000_hbChallengeResp_event+0x2c>
    b4a0:	8fbf0010 	lw	ra,16(sp)
    b4a4:	03e00008 	jr	ra
    b4a8:	27bd0018 	addiu	sp,sp,24
    b4ac:	ac800500 	sw	zero,1280(a0)
    b4b0:	8fbf0010 	lw	ra,16(sp)
    b4b4:	03e00008 	jr	ra
    b4b8:	27bd0018 	addiu	sp,sp,24
    b4bc:	3c020000 	lui	v0,0x0
			b4bc: R_MIPS_HI16	ar6000_send_event_to_app
    b4c0:	27a6001c 	addiu	a2,sp,28
    b4c4:	24420000 	addiu	v0,v0,0
			b4c4: R_MIPS_LO16	ar6000_send_event_to_app
    b4c8:	0040f809 	jalr	v0
    b4cc:	24053007 	li	a1,12295
    b4d0:	8fbf0010 	lw	ra,16(sp)
    b4d4:	03e00008 	jr	ra
    b4d8:	27bd0018 	addiu	sp,sp,24

0000b4dc <ar6000_rssiThreshold_event>:
    b4dc:	27bdffe0 	addiu	sp,sp,-32
    b4e0:	00051080 	sll	v0,a1,0x2
    b4e4:	afbf001c 	sw	ra,28(sp)
    b4e8:	afb00018 	sw	s0,24(sp)
    b4ec:	00441021 	addu	v0,v0,a0
    b4f0:	24c3ffa0 	addiu	v1,a2,-96
    b4f4:	84480c78 	lh	t0,3192(v0)
    b4f8:	00031c00 	sll	v1,v1,0x10
    b4fc:	00031c03 	sra	v1,v1,0x10
    b500:	00808021 	move	s0,a0
    b504:	3c020000 	lui	v0,0x0
			b504: R_MIPS_HI16	printk
    b508:	3c040000 	lui	a0,0x0
			b508: R_MIPS_HI16	$LC61
    b50c:	01003021 	move	a2,t0
    b510:	00603821 	move	a3,v1
    b514:	a7a80010 	sh	t0,16(sp)
    b518:	a7a30012 	sh	v1,18(sp)
    b51c:	24420000 	addiu	v0,v0,0
			b51c: R_MIPS_LO16	printk
    b520:	0040f809 	jalr	v0
    b524:	24840000 	addiu	a0,a0,0
			b524: R_MIPS_LO16	$LC61
    b528:	3c020000 	lui	v0,0x0
			b528: R_MIPS_HI16	ar6000_send_event_to_app
    b52c:	02002021 	move	a0,s0
    b530:	27a60010 	addiu	a2,sp,16
    b534:	2405100c 	li	a1,4108
    b538:	24420000 	addiu	v0,v0,0
			b538: R_MIPS_LO16	ar6000_send_event_to_app
    b53c:	0040f809 	jalr	v0
    b540:	24070004 	li	a3,4
    b544:	8fbf001c 	lw	ra,28(sp)
    b548:	8fb00018 	lw	s0,24(sp)
    b54c:	03e00008 	jr	ra
    b550:	27bd0020 	addiu	sp,sp,32

0000b554 <ar6000_dbglog_event>:
    b554:	27bdffd0 	addiu	sp,sp,-48
    b558:	3c020000 	lui	v0,0x0
			b558: R_MIPS_HI16	dbglog_get_debug_fragment
    b55c:	afb60028 	sw	s6,40(sp)
    b560:	afb50024 	sw	s5,36(sp)
    b564:	afb20018 	sw	s2,24(sp)
    b568:	afb00010 	sw	s0,16(sp)
    b56c:	00e02821 	move	a1,a3
    b570:	afbf002c 	sw	ra,44(sp)
    b574:	afb40020 	sw	s4,32(sp)
    b578:	afb3001c 	sw	s3,28(sp)
    b57c:	afb10014 	sw	s1,20(sp)
    b580:	00c09021 	move	s2,a2
    b584:	0080b021 	move	s6,a0
    b588:	24500000 	addiu	s0,v0,0
			b588: R_MIPS_LO16	dbglog_get_debug_fragment
    b58c:	00c02021 	move	a0,a2
    b590:	240600fc 	li	a2,252
    b594:	0200f809 	jalr	s0
    b598:	00e0a821 	move	s5,a3
    b59c:	10400012 	beqz	v0,b5e8 <ar6000_dbglog_event+0x94>
    b5a0:	00403821 	move	a3,v0
    b5a4:	3c020000 	lui	v0,0x0
			b5a4: R_MIPS_HI16	ar6000_send_event_to_app
    b5a8:	02009821 	move	s3,s0
    b5ac:	24540000 	addiu	s4,v0,0
			b5ac: R_MIPS_LO16	ar6000_send_event_to_app
    b5b0:	00008821 	move	s1,zero
    b5b4:	02408021 	move	s0,s2
    b5b8:	02278821 	addu	s1,s1,a3
    b5bc:	02003021 	move	a2,s0
    b5c0:	02c02021 	move	a0,s6
    b5c4:	24053008 	li	a1,12296
    b5c8:	0280f809 	jalr	s4
    b5cc:	02518021 	addu	s0,s2,s1
    b5d0:	02002021 	move	a0,s0
    b5d4:	02b12823 	subu	a1,s5,s1
    b5d8:	0260f809 	jalr	s3
    b5dc:	240600fc 	li	a2,252
    b5e0:	1440fff5 	bnez	v0,b5b8 <ar6000_dbglog_event+0x64>
    b5e4:	00403821 	move	a3,v0
    b5e8:	8fbf002c 	lw	ra,44(sp)
    b5ec:	8fb60028 	lw	s6,40(sp)
    b5f0:	8fb50024 	lw	s5,36(sp)
    b5f4:	8fb40020 	lw	s4,32(sp)
    b5f8:	8fb3001c 	lw	s3,28(sp)
    b5fc:	8fb20018 	lw	s2,24(sp)
    b600:	8fb10014 	lw	s1,20(sp)
    b604:	8fb00010 	lw	s0,16(sp)
    b608:	03e00008 	jr	ra
    b60c:	27bd0030 	addiu	sp,sp,48

0000b610 <get_reg_code_from_file>:
    b610:	27bdffd8 	addiu	sp,sp,-40
    b614:	afb40020 	sw	s4,32(sp)
    b618:	afb00010 	sw	s0,16(sp)
    b61c:	afbf0024 	sw	ra,36(sp)
    b620:	afb3001c 	sw	s3,28(sp)
    b624:	afb20018 	sw	s2,24(sp)
    b628:	afb10014 	sw	s1,20(sp)
    b62c:	3c020000 	lui	v0,0x0
			b62c: R_MIPS_HI16	filp_open
    b630:	8f910018 	lw	s1,24(gp)
    b634:	00a0a021 	move	s4,a1
    b638:	af800018 	sw	zero,24(gp)
    b63c:	00002821 	move	a1,zero
    b640:	24420000 	addiu	v0,v0,0
			b640: R_MIPS_LO16	filp_open
    b644:	0040f809 	jalr	v0
    b648:	24060100 	li	a2,256
    b64c:	00408021 	move	s0,v0
    b650:	2c42f001 	sltiu	v0,v0,-4095
    b654:	1040002e 	beqz	v0,b710 <get_reg_code_from_file+0x100>
    b658:	00000000 	nop
    b65c:	8e020010 	lw	v0,16(s0)
    b660:	10400041 	beqz	v0,b768 <get_reg_code_from_file+0x158>
    b664:	3c050000 	lui	a1,0x0
			b664: R_MIPS_HI16	.rodata
    b668:	8e02000c 	lw	v0,12(s0)
    b66c:	8c430008 	lw	v1,8(v0)
    b670:	10600036 	beqz	v1,b74c <get_reg_code_from_file+0x13c>
    b674:	3c040000 	lui	a0,0x0
			b674: R_MIPS_HI16	$LC68
    b678:	8f820014 	lw	v0,20(gp)
    b67c:	8c630094 	lw	v1,148(v1)
    b680:	24420001 	addiu	v0,v0,1
    b684:	8c650000 	lw	a1,0(v1)
    b688:	af820014 	sw	v0,20(gp)
    b68c:	8cb20040 	lw	s2,64(a1)
    b690:	8f820014 	lw	v0,20(gp)
    b694:	2442ffff 	addiu	v0,v0,-1
    b698:	af820014 	sw	v0,20(gp)
    b69c:	8f820008 	lw	v0,8(gp)
    b6a0:	30420004 	andi	v0,v0,0x4
    b6a4:	14400038 	bnez	v0,b788 <get_reg_code_from_file+0x178>
    b6a8:	3c020000 	lui	v0,0x0
			b6a8: R_MIPS_HI16	preempt_schedule
    b6ac:	2a420002 	slti	v0,s2,2
    b6b0:	1440000a 	bnez	v0,b6dc <get_reg_code_from_file+0xcc>
    b6b4:	02002021 	move	a0,s0
    b6b8:	8e030010 	lw	v1,16(s0)
    b6bc:	02802821 	move	a1,s4
    b6c0:	8c620008 	lw	v0,8(v1)
    b6c4:	24060002 	li	a2,2
    b6c8:	0040f809 	jalr	v0
    b6cc:	26070020 	addiu	a3,s0,32
    b6d0:	24030002 	li	v1,2
    b6d4:	10430017 	beq	v0,v1,b734 <get_reg_code_from_file+0x124>
    b6d8:	3c020000 	lui	v0,0x0
			b6d8: R_MIPS_HI16	filp_close
    b6dc:	3c050000 	lui	a1,0x0
			b6dc: R_MIPS_HI16	.rodata
    b6e0:	3c040000 	lui	a0,0x0
			b6e0: R_MIPS_HI16	$LC69
    b6e4:	3c020000 	lui	v0,0x0
			b6e4: R_MIPS_HI16	printk
    b6e8:	24a50114 	addiu	a1,a1,276
			b6e8: R_MIPS_LO16	.rodata
    b6ec:	24840000 	addiu	a0,a0,0
			b6ec: R_MIPS_LO16	$LC69
    b6f0:	24420000 	addiu	v0,v0,0
			b6f0: R_MIPS_LO16	printk
    b6f4:	0040f809 	jalr	v0
    b6f8:	02403021 	move	a2,s2
    b6fc:	3c020000 	lui	v0,0x0
			b6fc: R_MIPS_HI16	filp_close
    b700:	02002021 	move	a0,s0
    b704:	24420000 	addiu	v0,v0,0
			b704: R_MIPS_LO16	filp_close
    b708:	0040f809 	jalr	v0
    b70c:	00002821 	move	a1,zero
    b710:	af910018 	sw	s1,24(gp)
    b714:	8fbf0024 	lw	ra,36(sp)
    b718:	8fb40020 	lw	s4,32(sp)
    b71c:	8fb3001c 	lw	s3,28(sp)
    b720:	8fb20018 	lw	s2,24(sp)
    b724:	8fb10014 	lw	s1,20(sp)
    b728:	8fb00010 	lw	s0,16(sp)
    b72c:	03e00008 	jr	ra
    b730:	27bd0028 	addiu	sp,sp,40
    b734:	02002021 	move	a0,s0
    b738:	24420000 	addiu	v0,v0,0
			b738: R_MIPS_LO16	filp_close
    b73c:	0040f809 	jalr	v0
    b740:	00002821 	move	a1,zero
    b744:	08002dc5 	j	b714 <get_reg_code_from_file+0x104>
			b744: R_MIPS_26	.text
    b748:	af910018 	sw	s1,24(gp)
    b74c:	3c020000 	lui	v0,0x0
			b74c: R_MIPS_HI16	printk
    b750:	24a50114 	addiu	a1,a1,276
			b750: R_MIPS_LO16	.rodata
    b754:	24420000 	addiu	v0,v0,0
			b754: R_MIPS_LO16	printk
    b758:	0040f809 	jalr	v0
    b75c:	24840000 	addiu	a0,a0,0
			b75c: R_MIPS_LO16	$LC68
    b760:	08002dc0 	j	b700 <get_reg_code_from_file+0xf0>
			b760: R_MIPS_26	.text
    b764:	3c020000 	lui	v0,0x0
			b764: R_MIPS_HI16	filp_close
    b768:	3c040000 	lui	a0,0x0
			b768: R_MIPS_HI16	$LC67
    b76c:	3c020000 	lui	v0,0x0
			b76c: R_MIPS_HI16	printk
    b770:	24a50114 	addiu	a1,a1,276
			b770: R_MIPS_LO16	.rodata
    b774:	24420000 	addiu	v0,v0,0
			b774: R_MIPS_LO16	printk
    b778:	0040f809 	jalr	v0
    b77c:	24840000 	addiu	a0,a0,0
			b77c: R_MIPS_LO16	$LC67
    b780:	08002dc0 	j	b700 <get_reg_code_from_file+0xf0>
			b780: R_MIPS_26	.text
    b784:	3c020000 	lui	v0,0x0
			b784: R_MIPS_HI16	filp_close
    b788:	24420000 	addiu	v0,v0,0
			b788: R_MIPS_LO16	preempt_schedule
    b78c:	0040f809 	jalr	v0
    b790:	00000000 	nop
    b794:	08002dac 	j	b6b0 <get_reg_code_from_file+0xa0>
			b794: R_MIPS_26	.text
    b798:	2a420002 	slti	v0,s2,2

0000b79c <firmware_transfer>:
    b79c:	27bdffc0 	addiu	sp,sp,-64
    b7a0:	afbe0038 	sw	s8,56(sp)
    b7a4:	afb00018 	sw	s0,24(sp)
    b7a8:	afa40014 	sw	a0,20(sp)
    b7ac:	00a08021 	move	s0,a1
    b7b0:	3c020000 	lui	v0,0x0
			b7b0: R_MIPS_HI16	printk
    b7b4:	3c1e0000 	lui	s8,0x0
			b7b4: R_MIPS_HI16	.rodata
    b7b8:	3c040000 	lui	a0,0x0
			b7b8: R_MIPS_HI16	$LC70
    b7bc:	afbf003c 	sw	ra,60(sp)
    b7c0:	afb60030 	sw	s6,48(sp)
    b7c4:	afb5002c 	sw	s5,44(sp)
    b7c8:	afb40028 	sw	s4,40(sp)
    b7cc:	afb30024 	sw	s3,36(sp)
    b7d0:	24840000 	addiu	a0,a0,0
			b7d0: R_MIPS_LO16	$LC70
    b7d4:	27c500d8 	addiu	a1,s8,216
			b7d4: R_MIPS_LO16	.rodata
    b7d8:	afb70034 	sw	s7,52(sp)
    b7dc:	afb20020 	sw	s2,32(sp)
    b7e0:	afb1001c 	sw	s1,28(sp)
    b7e4:	00c0a021 	move	s4,a2
    b7e8:	24560000 	addiu	s6,v0,0
			b7e8: R_MIPS_LO16	printk
    b7ec:	02003021 	move	a2,s0
    b7f0:	02c0f809 	jalr	s6
    b7f4:	00e0a821 	move	s5,a3
    b7f8:	8f850018 	lw	a1,24(gp)
    b7fc:	3c020000 	lui	v0,0x0
			b7fc: R_MIPS_HI16	filp_open
    b800:	afa50010 	sw	a1,16(sp)
    b804:	02002021 	move	a0,s0
    b808:	af800018 	sw	zero,24(gp)
    b80c:	00002821 	move	a1,zero
    b810:	24420000 	addiu	v0,v0,0
			b810: R_MIPS_LO16	filp_open
    b814:	0040f809 	jalr	v0
    b818:	24060100 	li	a2,256
    b81c:	00409821 	move	s3,v0
    b820:	2c42f001 	sltiu	v0,v0,-4095
    b824:	104000cb 	beqz	v0,bb54 <firmware_transfer+0x3b8>
    b828:	3c040000 	lui	a0,0x0
			b828: R_MIPS_HI16	$LC71
    b82c:	8e620010 	lw	v0,16(s3)
    b830:	104000b2 	beqz	v0,bafc <firmware_transfer+0x360>
    b834:	3c040000 	lui	a0,0x0
			b834: R_MIPS_HI16	$LC67
    b838:	8e62000c 	lw	v0,12(s3)
    b83c:	8c500008 	lw	s0,8(v0)
    b840:	12000096 	beqz	s0,ba9c <firmware_transfer+0x300>
    b844:	3c040000 	lui	a0,0x0
			b844: R_MIPS_HI16	$LC68
    b848:	8e660020 	lw	a2,32(s3)
    b84c:	3c040000 	lui	a0,0x0
			b84c: R_MIPS_HI16	$LC72
    b850:	24840000 	addiu	a0,a0,0
			b850: R_MIPS_LO16	$LC72
    b854:	02c0f809 	jalr	s6
    b858:	27c500d8 	addiu	a1,s8,216
			b858: R_MIPS_LO16	.rodata
    b85c:	3c030000 	lui	v1,0x0
			b85c: R_MIPS_HI16	malloc_sizes
    b860:	8c64005c 	lw	a0,92(v1)
			b860: R_MIPS_LO16	malloc_sizes
    b864:	3c020000 	lui	v0,0x0
			b864: R_MIPS_HI16	kmem_cache_alloc
    b868:	24420000 	addiu	v0,v0,0
			b868: R_MIPS_LO16	kmem_cache_alloc
    b86c:	0040f809 	jalr	v0
    b870:	240500d0 	li	a1,208
    b874:	3c030000 	lui	v1,0x0
			b874: R_MIPS_HI16	fw_buf
    b878:	1040009c 	beqz	v0,baec <firmware_transfer+0x350>
    b87c:	ac620000 	sw	v0,0(v1)
			b87c: R_MIPS_LO16	fw_buf
    b880:	8f820014 	lw	v0,20(gp)
    b884:	8e030094 	lw	v1,148(s0)
    b888:	24420001 	addiu	v0,v0,1
    b88c:	8c650000 	lw	a1,0(v1)
    b890:	af820014 	sw	v0,20(gp)
    b894:	8cb00040 	lw	s0,64(a1)
    b898:	8f820014 	lw	v0,20(gp)
    b89c:	2442ffff 	addiu	v0,v0,-1
    b8a0:	af820014 	sw	v0,20(gp)
    b8a4:	8f820008 	lw	v0,8(gp)
    b8a8:	30420004 	andi	v0,v0,0x4
    b8ac:	144000b9 	bnez	v0,bb94 <firmware_transfer+0x3f8>
    b8b0:	3c020000 	lui	v0,0x0
			b8b0: R_MIPS_HI16	preempt_schedule
    b8b4:	02009021 	move	s2,s0
    b8b8:	1600001e 	bnez	s0,b934 <firmware_transfer+0x198>
    b8bc:	3c040000 	lui	a0,0x0
			b8bc: R_MIPS_HI16	$LC75
    b8c0:	3c040000 	lui	a0,0x0
			b8c0: R_MIPS_HI16	$LC74
    b8c4:	24840000 	addiu	a0,a0,0
			b8c4: R_MIPS_LO16	$LC74
    b8c8:	02c0f809 	jalr	s6
    b8cc:	27c500d8 	addiu	a1,s8,216
			b8cc: R_MIPS_LO16	.rodata
    b8d0:	3c020000 	lui	v0,0x0
			b8d0: R_MIPS_HI16	fw_buf
    b8d4:	8c440000 	lw	a0,0(v0)
			b8d4: R_MIPS_LO16	fw_buf
    b8d8:	3c020000 	lui	v0,0x0
			b8d8: R_MIPS_HI16	kfree
    b8dc:	24420000 	addiu	v0,v0,0
			b8dc: R_MIPS_LO16	kfree
    b8e0:	0040f809 	jalr	v0
    b8e4:	00000000 	nop
    b8e8:	3c020000 	lui	v0,0x0
			b8e8: R_MIPS_HI16	filp_close
    b8ec:	02602021 	move	a0,s3
    b8f0:	24420000 	addiu	v0,v0,0
			b8f0: R_MIPS_LO16	filp_close
    b8f4:	0040f809 	jalr	v0
    b8f8:	00002821 	move	a1,zero
    b8fc:	8fa30010 	lw	v1,16(sp)
    b900:	af830018 	sw	v1,24(gp)
    b904:	8fbf003c 	lw	ra,60(sp)
    b908:	8fbe0038 	lw	s8,56(sp)
    b90c:	8fb70034 	lw	s7,52(sp)
    b910:	8fb60030 	lw	s6,48(sp)
    b914:	8fb5002c 	lw	s5,44(sp)
    b918:	8fb40028 	lw	s4,40(sp)
    b91c:	8fb30024 	lw	s3,36(sp)
    b920:	8fb20020 	lw	s2,32(sp)
    b924:	8fb1001c 	lw	s1,28(sp)
    b928:	8fb00018 	lw	s0,24(sp)
    b92c:	03e00008 	jr	ra
    b930:	27bd0040 	addiu	sp,sp,64
    b934:	24840000 	addiu	a0,a0,0
			b934: R_MIPS_LO16	$LC75
    b938:	02003021 	move	a2,s0
    b93c:	27c500d8 	addiu	a1,s8,216
			b93c: R_MIPS_LO16	.rodata
    b940:	02c0f809 	jalr	s6
    b944:	02803821 	move	a3,s4
    b948:	16a00048 	bnez	s5,ba6c <firmware_transfer+0x2d0>
    b94c:	3c020000 	lui	v0,0x0
			b94c: R_MIPS_HI16	BMILZStreamStart
    b950:	1a40ffdf 	blez	s2,b8d0 <firmware_transfer+0x134>
    b954:	26770020 	addiu	s7,s3,32
    b958:	08002e67 	j	b99c <firmware_transfer+0x200>
			b958: R_MIPS_26	.text
    b95c:	2a432001 	slti	v1,s2,8193
    b960:	3c030000 	lui	v1,0x0
			b960: R_MIPS_HI16	printk
    b964:	24630000 	addiu	v1,v1,0
			b964: R_MIPS_LO16	printk
    b968:	0060f809 	jalr	v1
    b96c:	00000000 	nop
    b970:	3c190000 	lui	t9,0x0
			b970: R_MIPS_HI16	BMILZData
    b974:	8fa40014 	lw	a0,20(sp)
    b978:	8ec50000 	lw	a1,0(s6)
			b978: R_MIPS_LO16	fw_buf
    b97c:	27390000 	addiu	t9,t9,0
			b97c: R_MIPS_LO16	BMILZData
    b980:	0320f809 	jalr	t9
    b984:	02003021 	move	a2,s0
    b988:	14400069 	bnez	v0,bb30 <firmware_transfer+0x394>
    b98c:	3c040000 	lui	a0,0x0
			b98c: R_MIPS_HI16	$LC79
    b990:	1a40ffcf 	blez	s2,b8d0 <firmware_transfer+0x134>
    b994:	0291a021 	addu	s4,s4,s1
    b998:	2a432001 	slti	v1,s2,8193
    b99c:	24112000 	li	s1,8192
    b9a0:	0243880b 	movn	s1,s2,v1
    b9a4:	2622ffff 	addiu	v0,s1,-1
    b9a8:	26230002 	addiu	v1,s1,2
    b9ac:	28450000 	slti	a1,v0,0
    b9b0:	0065100b 	movn	v0,v1,a1
    b9b4:	00021083 	sra	v0,v0,0x2
    b9b8:	02602021 	move	a0,s3
    b9bc:	02e03821 	move	a3,s7
    b9c0:	3c160000 	lui	s6,0x0
			b9c0: R_MIPS_HI16	fw_buf
    b9c4:	00021880 	sll	v1,v0,0x2
    b9c8:	12a00004 	beqz	s5,b9dc <firmware_transfer+0x240>
    b9cc:	02203021 	move	a2,s1
    b9d0:	8ec20000 	lw	v0,0(s6)
			b9d0: R_MIPS_LO16	fw_buf
    b9d4:	00621021 	addu	v0,v1,v0
    b9d8:	ac400000 	sw	zero,0(v0)
    b9dc:	8e630010 	lw	v1,16(s3)
    b9e0:	3c190000 	lui	t9,0x0
			b9e0: R_MIPS_HI16	fw_buf
    b9e4:	8c620008 	lw	v0,8(v1)
    b9e8:	0040f809 	jalr	v0
    b9ec:	8f250000 	lw	a1,0(t9)
			b9ec: R_MIPS_LO16	fw_buf
    b9f0:	26260003 	addiu	a2,s1,3
    b9f4:	28c80000 	slti	t0,a2,0
    b9f8:	26230006 	addiu	v1,s1,6
    b9fc:	3c040000 	lui	a0,0x0
			b9fc: R_MIPS_HI16	$LC78
    ba00:	0068300b 	movn	a2,v1,t0
    ba04:	24840000 	addiu	a0,a0,0
			ba04: R_MIPS_LO16	$LC78
    ba08:	27c500d8 	addiu	a1,s8,216
			ba08: R_MIPS_LO16	.rodata
    ba0c:	02203821 	move	a3,s1
    ba10:	1622003e 	bne	s1,v0,bb0c <firmware_transfer+0x370>
    ba14:	00063083 	sra	a2,a2,0x2
    ba18:	00068080 	sll	s0,a2,0x2
    ba1c:	02519023 	subu	s2,s2,s1
    ba20:	16a0ffcf 	bnez	s5,b960 <firmware_transfer+0x1c4>
    ba24:	02003021 	move	a2,s0
    ba28:	3c190000 	lui	t9,0x0
			ba28: R_MIPS_HI16	BMIWriteMemory
    ba2c:	8ec60000 	lw	a2,0(s6)
			ba2c: R_MIPS_LO16	fw_buf
    ba30:	8fa40014 	lw	a0,20(sp)
    ba34:	02003821 	move	a3,s0
    ba38:	27390000 	addiu	t9,t9,0
			ba38: R_MIPS_LO16	BMIWriteMemory
    ba3c:	0320f809 	jalr	t9
    ba40:	02802821 	move	a1,s4
    ba44:	1040ffd2 	beqz	v0,b990 <firmware_transfer+0x1f4>
    ba48:	3c030000 	lui	v1,0x0
			ba48: R_MIPS_HI16	printk
    ba4c:	3c040000 	lui	a0,0x0
			ba4c: R_MIPS_HI16	$LC80
    ba50:	00403021 	move	a2,v0
    ba54:	24840000 	addiu	a0,a0,0
			ba54: R_MIPS_LO16	$LC80
    ba58:	24620000 	addiu	v0,v1,0
			ba58: R_MIPS_LO16	printk
    ba5c:	0040f809 	jalr	v0
    ba60:	27c500d8 	addiu	a1,s8,216
			ba60: R_MIPS_LO16	.rodata
    ba64:	08002e35 	j	b8d4 <firmware_transfer+0x138>
			ba64: R_MIPS_26	.text
    ba68:	3c020000 	lui	v0,0x0
			ba68: R_MIPS_HI16	fw_buf
    ba6c:	8fa40014 	lw	a0,20(sp)
    ba70:	24420000 	addiu	v0,v0,0
			ba70: R_MIPS_LO16	BMILZStreamStart
    ba74:	0040f809 	jalr	v0
    ba78:	02802821 	move	a1,s4
    ba7c:	1040ffb4 	beqz	v0,b950 <firmware_transfer+0x1b4>
    ba80:	3c040000 	lui	a0,0x0
			ba80: R_MIPS_HI16	$LC76
    ba84:	24840000 	addiu	a0,a0,0
			ba84: R_MIPS_LO16	$LC76
    ba88:	27c500d8 	addiu	a1,s8,216
			ba88: R_MIPS_LO16	.rodata
    ba8c:	02c0f809 	jalr	s6
    ba90:	00403021 	move	a2,v0
    ba94:	08002e35 	j	b8d4 <firmware_transfer+0x138>
			ba94: R_MIPS_26	.text
    ba98:	3c020000 	lui	v0,0x0
			ba98: R_MIPS_HI16	fw_buf
    ba9c:	27c500d8 	addiu	a1,s8,216
			ba9c: R_MIPS_LO16	.rodata
    baa0:	24840000 	addiu	a0,a0,0
			baa0: R_MIPS_LO16	$LC68
    baa4:	02c0f809 	jalr	s6
    baa8:	00000000 	nop
    baac:	3c190000 	lui	t9,0x0
			baac: R_MIPS_HI16	filp_close
    bab0:	02602021 	move	a0,s3
    bab4:	00002821 	move	a1,zero
    bab8:	27390000 	addiu	t9,t9,0
			bab8: R_MIPS_LO16	filp_close
    babc:	8fbf003c 	lw	ra,60(sp)
    bac0:	8fbe0038 	lw	s8,56(sp)
    bac4:	8fb70034 	lw	s7,52(sp)
    bac8:	8fb60030 	lw	s6,48(sp)
    bacc:	8fb5002c 	lw	s5,44(sp)
    bad0:	8fb40028 	lw	s4,40(sp)
    bad4:	8fb30024 	lw	s3,36(sp)
    bad8:	8fb20020 	lw	s2,32(sp)
    badc:	8fb1001c 	lw	s1,28(sp)
    bae0:	8fb00018 	lw	s0,24(sp)
    bae4:	03200008 	jr	t9
    bae8:	27bd0040 	addiu	sp,sp,64
    baec:	3c040000 	lui	a0,0x0
			baec: R_MIPS_HI16	$LC73
    baf0:	27c500d8 	addiu	a1,s8,216
			baf0: R_MIPS_LO16	.rodata
    baf4:	08002ea9 	j	baa4 <firmware_transfer+0x308>
			baf4: R_MIPS_26	.text
    baf8:	24840000 	addiu	a0,a0,0
			baf8: R_MIPS_LO16	$LC73
    bafc:	24840000 	addiu	a0,a0,0
			bafc: R_MIPS_LO16	$LC67
    bb00:	27c500d8 	addiu	a1,s8,216
			bb00: R_MIPS_LO16	.rodata
    bb04:	08002eaf 	j	babc <firmware_transfer+0x320>
			bb04: R_MIPS_26	.text
    bb08:	02c0c821 	move	t9,s6
    bb0c:	3c190000 	lui	t9,0x0
			bb0c: R_MIPS_HI16	printk
    bb10:	3c040000 	lui	a0,0x0
			bb10: R_MIPS_HI16	$LC77
    bb14:	24840000 	addiu	a0,a0,0
			bb14: R_MIPS_LO16	$LC77
    bb18:	27c500d8 	addiu	a1,s8,216
			bb18: R_MIPS_LO16	.rodata
    bb1c:	27220000 	addiu	v0,t9,0
			bb1c: R_MIPS_LO16	printk
    bb20:	0040f809 	jalr	v0
    bb24:	02403021 	move	a2,s2
    bb28:	08002e35 	j	b8d4 <firmware_transfer+0x138>
			bb28: R_MIPS_26	.text
    bb2c:	3c020000 	lui	v0,0x0
			bb2c: R_MIPS_HI16	fw_buf
    bb30:	3c050000 	lui	a1,0x0
			bb30: R_MIPS_HI16	.rodata
    bb34:	3c030000 	lui	v1,0x0
			bb34: R_MIPS_HI16	printk
    bb38:	24840000 	addiu	a0,a0,0
			bb38: R_MIPS_LO16	$LC79
    bb3c:	24a500d8 	addiu	a1,a1,216
			bb3c: R_MIPS_LO16	.rodata
    bb40:	24630000 	addiu	v1,v1,0
			bb40: R_MIPS_LO16	printk
    bb44:	0060f809 	jalr	v1
    bb48:	00403021 	move	a2,v0
    bb4c:	08002e35 	j	b8d4 <firmware_transfer+0x138>
			bb4c: R_MIPS_26	.text
    bb50:	3c020000 	lui	v0,0x0
			bb50: R_MIPS_HI16	fw_buf
    bb54:	27c500d8 	addiu	a1,s8,216
			bb54: R_MIPS_LO16	.rodata
    bb58:	02003021 	move	a2,s0
    bb5c:	02c0c821 	move	t9,s6
    bb60:	8fbf003c 	lw	ra,60(sp)
    bb64:	8fbe0038 	lw	s8,56(sp)
    bb68:	8fb70034 	lw	s7,52(sp)
    bb6c:	8fb60030 	lw	s6,48(sp)
    bb70:	8fb5002c 	lw	s5,44(sp)
    bb74:	8fb40028 	lw	s4,40(sp)
    bb78:	8fb30024 	lw	s3,36(sp)
    bb7c:	8fb20020 	lw	s2,32(sp)
    bb80:	8fb1001c 	lw	s1,28(sp)
    bb84:	8fb00018 	lw	s0,24(sp)
    bb88:	24840000 	addiu	a0,a0,0
			bb88: R_MIPS_LO16	$LC71
    bb8c:	03200008 	jr	t9
    bb90:	27bd0040 	addiu	sp,sp,64
    bb94:	24420000 	addiu	v0,v0,0
			bb94: R_MIPS_LO16	preempt_schedule
    bb98:	0040f809 	jalr	v0
    bb9c:	02009021 	move	s2,s0
    bba0:	08002e2e 	j	b8b8 <firmware_transfer+0x11c>
			bba0: R_MIPS_26	.text
    bba4:	00000000 	nop

0000bba8 <ar6000_bssInfo_event_rx>:
    bba8:	27bdffd8 	addiu	sp,sp,-40
    bbac:	afb40020 	sw	s4,32(sp)
    bbb0:	afb20018 	sw	s2,24(sp)
    bbb4:	afb00010 	sw	s0,16(sp)
    bbb8:	afbf0024 	sw	ra,36(sp)
    bbbc:	afb3001c 	sw	s3,28(sp)
    bbc0:	afb10014 	sw	s1,20(sp)
    bbc4:	8c82050c 	lw	v0,1292(a0)
    bbc8:	0080a021 	move	s4,a0
    bbcc:	00a09021 	move	s2,a1
    bbd0:	30430001 	andi	v1,v0,0x1
    bbd4:	10400009 	beqz	v0,bbfc <ar6000_bssInfo_event_rx+0x54>
    bbd8:	00c08021 	move	s0,a2
    bbdc:	00c02021 	move	a0,a2
    bbe0:	1460000e 	bnez	v1,bc1c <ar6000_bssInfo_event_rx+0x74>
    bbe4:	30450004 	andi	a1,v0,0x4
    bbe8:	10a00017 	beqz	a1,bc48 <ar6000_bssInfo_event_rx+0xa0>
    bbec:	24020002 	li	v0,2
    bbf0:	92430002 	lbu	v1,2(s2)
    bbf4:	10620015 	beq	v1,v0,bc4c <ar6000_bssInfo_event_rx+0xa4>
    bbf8:	3c020000 	lui	v0,0x0
			bbf8: R_MIPS_HI16	a_netbuf_alloc_raw
    bbfc:	8fbf0024 	lw	ra,36(sp)
    bc00:	8fb40020 	lw	s4,32(sp)
    bc04:	8fb3001c 	lw	s3,28(sp)
    bc08:	8fb20018 	lw	s2,24(sp)
    bc0c:	8fb10014 	lw	s1,20(sp)
    bc10:	8fb00010 	lw	s0,16(sp)
    bc14:	03e00008 	jr	ra
    bc18:	27bd0028 	addiu	sp,sp,40
    bc1c:	92430002 	lbu	v1,2(s2)
    bc20:	24020001 	li	v0,1
    bc24:	1062fff0 	beq	v1,v0,bbe8 <ar6000_bssInfo_event_rx+0x40>
    bc28:	8fbf0024 	lw	ra,36(sp)
    bc2c:	8fb40020 	lw	s4,32(sp)
    bc30:	8fb3001c 	lw	s3,28(sp)
    bc34:	8fb20018 	lw	s2,24(sp)
    bc38:	8fb10014 	lw	s1,20(sp)
    bc3c:	8fb00010 	lw	s0,16(sp)
    bc40:	03e00008 	jr	ra
    bc44:	27bd0028 	addiu	sp,sp,40
    bc48:	3c020000 	lui	v0,0x0
			bc48: R_MIPS_HI16	a_netbuf_alloc_raw
    bc4c:	24420000 	addiu	v0,v0,0
			bc4c: R_MIPS_LO16	a_netbuf_alloc_raw
    bc50:	0040f809 	jalr	v0
    bc54:	00000000 	nop
    bc58:	00409821 	move	s3,v0
    bc5c:	02002821 	move	a1,s0
    bc60:	1040ffe6 	beqz	v0,bbfc <ar6000_bssInfo_event_rx+0x54>
    bc64:	00402021 	move	a0,v0
    bc68:	3c020000 	lui	v0,0x0
			bc68: R_MIPS_HI16	a_netbuf_put
    bc6c:	24420000 	addiu	v0,v0,0
			bc6c: R_MIPS_LO16	a_netbuf_put
    bc70:	0040f809 	jalr	v0
    bc74:	3c110000 	lui	s1,0x0
			bc74: R_MIPS_HI16	a_netbuf_to_data
    bc78:	26310000 	addiu	s1,s1,0
			bc78: R_MIPS_LO16	a_netbuf_to_data
    bc7c:	0220f809 	jalr	s1
    bc80:	02602021 	move	a0,s3
    bc84:	02003021 	move	a2,s0
    bc88:	3c100000 	lui	s0,0x0
			bc88: R_MIPS_HI16	memcpy
    bc8c:	02402821 	move	a1,s2
    bc90:	26100000 	addiu	s0,s0,0
			bc90: R_MIPS_LO16	memcpy
    bc94:	0200f809 	jalr	s0
    bc98:	00402021 	move	a0,v0
    bc9c:	8e830000 	lw	v1,0(s4)
    bca0:	8e720080 	lw	s2,128(s3)
    bca4:	ae630018 	sw	v1,24(s3)
    bca8:	0220f809 	jalr	s1
    bcac:	02602021 	move	a0,s3
    bcb0:	00402821 	move	a1,v0
    bcb4:	02402021 	move	a0,s2
    bcb8:	0200f809 	jalr	s0
    bcbc:	24060006 	li	a2,6
    bcc0:	8e630068 	lw	v1,104(s3)
    bcc4:	2402fff3 	li	v0,-13
    bcc8:	00621824 	and	v1,v1,v0
    bccc:	2404f8ff 	li	a0,-1793
    bcd0:	00641824 	and	v1,v1,a0
    bcd4:	34630300 	ori	v1,v1,0x300
    bcd8:	24021900 	li	v0,6400
    bcdc:	ae630068 	sw	v1,104(s3)
    bce0:	3c190000 	lui	t9,0x0
			bce0: R_MIPS_HI16	netif_rx
    bce4:	a662006a 	sh	v0,106(s3)
    bce8:	02602021 	move	a0,s3
    bcec:	8fbf0024 	lw	ra,36(sp)
    bcf0:	8fb40020 	lw	s4,32(sp)
    bcf4:	8fb3001c 	lw	s3,28(sp)
    bcf8:	8fb20018 	lw	s2,24(sp)
    bcfc:	8fb10014 	lw	s1,20(sp)
    bd00:	8fb00010 	lw	s0,16(sp)
    bd04:	27390000 	addiu	t9,t9,0
			bd04: R_MIPS_LO16	netif_rx
    bd08:	03200008 	jr	t9
    bd0c:	27bd0028 	addiu	sp,sp,40

0000bd10 <ar6000_targetStats_event>:
    bd10:	27bdffd8 	addiu	sp,sp,-40
    bd14:	afbf0020 	sw	ra,32(sp)
    bd18:	afb3001c 	sw	s3,28(sp)
    bd1c:	afb20018 	sw	s2,24(sp)
    bd20:	afb10014 	sw	s1,20(sp)
    bd24:	afb00010 	sw	s0,16(sp)
    bd28:	88a2000f 	lwl	v0,15(a1)
    bd2c:	8c8602a8 	lw	a2,680(a0)
    bd30:	98a2000c 	lwr	v0,12(a1)
    bd34:	8c8702ac 	lw	a3,684(a0)
    bd38:	00a08021 	move	s0,a1
    bd3c:	00c21021 	addu	v0,a2,v0
    bd40:	00002821 	move	a1,zero
    bd44:	0046402b 	sltu	t0,v0,a2
    bd48:	00e51821 	addu	v1,a3,a1
    bd4c:	00809821 	move	s3,a0
    bd50:	01031821 	addu	v1,t0,v1
    bd54:	ae6302ac 	sw	v1,684(s3)
    bd58:	ae6202a8 	sw	v0,680(s3)
    bd5c:	8a020013 	lwl	v0,19(s0)
    bd60:	267102a8 	addiu	s1,s3,680
    bd64:	9a020010 	lwr	v0,16(s0)
    bd68:	8e260008 	lw	a2,8(s1)
    bd6c:	8e27000c 	lw	a3,12(s1)
    bd70:	00c21021 	addu	v0,a2,v0
    bd74:	0046402b 	sltu	t0,v0,a2
    bd78:	00e51821 	addu	v1,a3,a1
    bd7c:	01031821 	addu	v1,t0,v1
    bd80:	ae220008 	sw	v0,8(s1)
    bd84:	ae23000c 	sw	v1,12(s1)
    bd88:	8a060017 	lwl	a2,23(s0)
    bd8c:	8e280010 	lw	t0,16(s1)
    bd90:	9a060014 	lwr	a2,20(s0)
    bd94:	8e290014 	lw	t1,20(s1)
    bd98:	01061021 	addu	v0,t0,a2
    bd9c:	0048302b 	sltu	a2,v0,t0
    bda0:	01251821 	addu	v1,t1,a1
    bda4:	00c31821 	addu	v1,a2,v1
    bda8:	ae220010 	sw	v0,16(s1)
    bdac:	ae230014 	sw	v1,20(s1)
    bdb0:	8a06001b 	lwl	a2,27(s0)
    bdb4:	8e280018 	lw	t0,24(s1)
    bdb8:	9a060018 	lwr	a2,24(s0)
    bdbc:	8e29001c 	lw	t1,28(s1)
    bdc0:	01061021 	addu	v0,t0,a2
    bdc4:	0048302b 	sltu	a2,v0,t0
    bdc8:	01251821 	addu	v1,t1,a1
    bdcc:	00c31821 	addu	v1,a2,v1
    bdd0:	ae220018 	sw	v0,24(s1)
    bdd4:	ae23001c 	sw	v1,28(s1)
    bdd8:	8a06001f 	lwl	a2,31(s0)
    bddc:	8e280020 	lw	t0,32(s1)
    bde0:	9a06001c 	lwr	a2,28(s0)
    bde4:	8e290024 	lw	t1,36(s1)
    bde8:	01061021 	addu	v0,t0,a2
    bdec:	0048302b 	sltu	a2,v0,t0
    bdf0:	01251821 	addu	v1,t1,a1
    bdf4:	00c31821 	addu	v1,a2,v1
    bdf8:	ae220020 	sw	v0,32(s1)
    bdfc:	ae230024 	sw	v1,36(s1)
    be00:	8a060023 	lwl	a2,35(s0)
    be04:	8e280028 	lw	t0,40(s1)
    be08:	9a060020 	lwr	a2,32(s0)
    be0c:	8e29002c 	lw	t1,44(s1)
    be10:	01061021 	addu	v0,t0,a2
    be14:	0048302b 	sltu	a2,v0,t0
    be18:	01251821 	addu	v1,t1,a1
    be1c:	00c31821 	addu	v1,a2,v1
    be20:	ae220028 	sw	v0,40(s1)
    be24:	ae23002c 	sw	v1,44(s1)
    be28:	8a060027 	lwl	a2,39(s0)
    be2c:	8e280030 	lw	t0,48(s1)
    be30:	9a060024 	lwr	a2,36(s0)
    be34:	8e290034 	lw	t1,52(s1)
    be38:	01061021 	addu	v0,t0,a2
    be3c:	0048302b 	sltu	a2,v0,t0
    be40:	01251821 	addu	v1,t1,a1
    be44:	00c31821 	addu	v1,a2,v1
    be48:	ae220030 	sw	v0,48(s1)
    be4c:	ae230034 	sw	v1,52(s1)
    be50:	8a06002b 	lwl	a2,43(s0)
    be54:	8e280038 	lw	t0,56(s1)
    be58:	9a060028 	lwr	a2,40(s0)
    be5c:	8e29003c 	lw	t1,60(s1)
    be60:	01061021 	addu	v0,t0,a2
    be64:	0048302b 	sltu	a2,v0,t0
    be68:	01251821 	addu	v1,t1,a1
    be6c:	00c31821 	addu	v1,a2,v1
    be70:	ae220038 	sw	v0,56(s1)
    be74:	ae23003c 	sw	v1,60(s1)
    be78:	8a06002f 	lwl	a2,47(s0)
    be7c:	8e280040 	lw	t0,64(s1)
    be80:	9a06002c 	lwr	a2,44(s0)
    be84:	8e290044 	lw	t1,68(s1)
    be88:	01061021 	addu	v0,t0,a2
    be8c:	0048302b 	sltu	a2,v0,t0
    be90:	01251821 	addu	v1,t1,a1
    be94:	00c31821 	addu	v1,a2,v1
    be98:	ae220040 	sw	v0,64(s1)
    be9c:	ae230044 	sw	v1,68(s1)
    bea0:	8a060033 	lwl	a2,51(s0)
    bea4:	8e280048 	lw	t0,72(s1)
    bea8:	9a060030 	lwr	a2,48(s0)
    beac:	8e29004c 	lw	t1,76(s1)
    beb0:	01061021 	addu	v0,t0,a2
    beb4:	0048302b 	sltu	a2,v0,t0
    beb8:	01251821 	addu	v1,t1,a1
    bebc:	00c31821 	addu	v1,a2,v1
    bec0:	ae220048 	sw	v0,72(s1)
    bec4:	ae23004c 	sw	v1,76(s1)
    bec8:	8a060037 	lwl	a2,55(s0)
    becc:	8e280050 	lw	t0,80(s1)
    bed0:	9a060034 	lwr	a2,52(s0)
    bed4:	8e290054 	lw	t1,84(s1)
    bed8:	01061021 	addu	v0,t0,a2
    bedc:	0048302b 	sltu	a2,v0,t0
    bee0:	01251821 	addu	v1,t1,a1
    bee4:	00c31821 	addu	v1,a2,v1
    bee8:	ae220050 	sw	v0,80(s1)
    beec:	ae230054 	sw	v1,84(s1)
    bef0:	8a06003b 	lwl	a2,59(s0)
    bef4:	8e280058 	lw	t0,88(s1)
    bef8:	9a060038 	lwr	a2,56(s0)
    befc:	8e29005c 	lw	t1,92(s1)
    bf00:	01061021 	addu	v0,t0,a2
    bf04:	0048302b 	sltu	a2,v0,t0
    bf08:	01251821 	addu	v1,t1,a1
    bf0c:	00c31821 	addu	v1,a2,v1
    bf10:	ae220058 	sw	v0,88(s1)
    bf14:	ae23005c 	sw	v1,92(s1)
    bf18:	8a06003f 	lwl	a2,63(s0)
    bf1c:	8e280060 	lw	t0,96(s1)
    bf20:	9a06003c 	lwr	a2,60(s0)
    bf24:	8e290064 	lw	t1,100(s1)
    bf28:	01061021 	addu	v0,t0,a2
    bf2c:	0048302b 	sltu	a2,v0,t0
    bf30:	01251821 	addu	v1,t1,a1
    bf34:	00c31821 	addu	v1,a2,v1
    bf38:	ae220060 	sw	v0,96(s1)
    bf3c:	ae230064 	sw	v1,100(s1)
    bf40:	8a060053 	lwl	a2,83(s0)
    bf44:	8e280068 	lw	t0,104(s1)
    bf48:	9a060050 	lwr	a2,80(s0)
    bf4c:	8e29006c 	lw	t1,108(s1)
    bf50:	01061021 	addu	v0,t0,a2
    bf54:	0048302b 	sltu	a2,v0,t0
    bf58:	01251821 	addu	v1,t1,a1
    bf5c:	00c31821 	addu	v1,a2,v1
    bf60:	ae220068 	sw	v0,104(s1)
    bf64:	ae23006c 	sw	v1,108(s1)
    bf68:	8a060057 	lwl	a2,87(s0)
    bf6c:	8e280070 	lw	t0,112(s1)
    bf70:	9a060054 	lwr	a2,84(s0)
    bf74:	8e290074 	lw	t1,116(s1)
    bf78:	01061021 	addu	v0,t0,a2
    bf7c:	0048302b 	sltu	a2,v0,t0
    bf80:	01251821 	addu	v1,t1,a1
    bf84:	00c31821 	addu	v1,a2,v1
    bf88:	ae220070 	sw	v0,112(s1)
    bf8c:	ae230074 	sw	v1,116(s1)
    bf90:	8a06005b 	lwl	a2,91(s0)
    bf94:	8e280078 	lw	t0,120(s1)
    bf98:	9a060058 	lwr	a2,88(s0)
    bf9c:	8e29007c 	lw	t1,124(s1)
    bfa0:	01061021 	addu	v0,t0,a2
    bfa4:	0048302b 	sltu	a2,v0,t0
    bfa8:	01251821 	addu	v1,t1,a1
    bfac:	00c31821 	addu	v1,a2,v1
    bfb0:	ae220078 	sw	v0,120(s1)
    bfb4:	ae23007c 	sw	v1,124(s1)
    bfb8:	8a06005f 	lwl	a2,95(s0)
    bfbc:	8e280080 	lw	t0,128(s1)
    bfc0:	9a06005c 	lwr	a2,92(s0)
    bfc4:	8e290084 	lw	t1,132(s1)
    bfc8:	01061021 	addu	v0,t0,a2
    bfcc:	0048302b 	sltu	a2,v0,t0
    bfd0:	01251821 	addu	v1,t1,a1
    bfd4:	00c31821 	addu	v1,a2,v1
    bfd8:	ae220080 	sw	v0,128(s1)
    bfdc:	ae230084 	sw	v1,132(s1)
    bfe0:	8a060063 	lwl	a2,99(s0)
    bfe4:	8e280088 	lw	t0,136(s1)
    bfe8:	9a060060 	lwr	a2,96(s0)
    bfec:	8e29008c 	lw	t1,140(s1)
    bff0:	01061021 	addu	v0,t0,a2
    bff4:	0048302b 	sltu	a2,v0,t0
    bff8:	01251821 	addu	v1,t1,a1
    bffc:	00c31821 	addu	v1,a2,v1
    c000:	ae23008c 	sw	v1,140(s1)
    c004:	ae220088 	sw	v0,136(s1)
    c008:	8a040067 	lwl	a0,103(s0)
    c00c:	3c120000 	lui	s2,0x0
			c00c: R_MIPS_HI16	wmi_get_rate
    c010:	9a040064 	lwr	a0,100(s0)
    c014:	26520000 	addiu	s2,s2,0
			c014: R_MIPS_LO16	wmi_get_rate
    c018:	00042600 	sll	a0,a0,0x18
    c01c:	0240f809 	jalr	s2
    c020:	00042603 	sra	a0,a0,0x18
    c024:	ae220158 	sw	v0,344(s1)
    c028:	8a02006b 	lwl	v0,107(s0)
    c02c:	8e260090 	lw	a2,144(s1)
    c030:	9a020068 	lwr	v0,104(s0)
    c034:	8e270094 	lw	a3,148(s1)
    c038:	00002821 	move	a1,zero
    c03c:	00c21021 	addu	v0,a2,v0
    c040:	0046402b 	sltu	t0,v0,a2
    c044:	00e51821 	addu	v1,a3,a1
    c048:	01031821 	addu	v1,t0,v1
    c04c:	ae220090 	sw	v0,144(s1)
    c050:	ae230094 	sw	v1,148(s1)
    c054:	8a06006f 	lwl	a2,111(s0)
    c058:	8e280098 	lw	t0,152(s1)
    c05c:	9a06006c 	lwr	a2,108(s0)
    c060:	8e29009c 	lw	t1,156(s1)
    c064:	01061021 	addu	v0,t0,a2
    c068:	0048302b 	sltu	a2,v0,t0
    c06c:	01251821 	addu	v1,t1,a1
    c070:	00c31821 	addu	v1,a2,v1
    c074:	ae220098 	sw	v0,152(s1)
    c078:	ae23009c 	sw	v1,156(s1)
    c07c:	8a060073 	lwl	a2,115(s0)
    c080:	8e2800a0 	lw	t0,160(s1)
    c084:	9a060070 	lwr	a2,112(s0)
    c088:	8e2900a4 	lw	t1,164(s1)
    c08c:	01061021 	addu	v0,t0,a2
    c090:	0048302b 	sltu	a2,v0,t0
    c094:	01251821 	addu	v1,t1,a1
    c098:	00c31821 	addu	v1,a2,v1
    c09c:	ae2200a0 	sw	v0,160(s1)
    c0a0:	ae2300a4 	sw	v1,164(s1)
    c0a4:	8a060077 	lwl	a2,119(s0)
    c0a8:	8e2800a8 	lw	t0,168(s1)
    c0ac:	9a060074 	lwr	a2,116(s0)
    c0b0:	8e2900ac 	lw	t1,172(s1)
    c0b4:	01061021 	addu	v0,t0,a2
    c0b8:	0048302b 	sltu	a2,v0,t0
    c0bc:	01251821 	addu	v1,t1,a1
    c0c0:	00c31821 	addu	v1,a2,v1
    c0c4:	ae2200a8 	sw	v0,168(s1)
    c0c8:	ae2300ac 	sw	v1,172(s1)
    c0cc:	8a06007b 	lwl	a2,123(s0)
    c0d0:	8e2800b0 	lw	t0,176(s1)
    c0d4:	9a060078 	lwr	a2,120(s0)
    c0d8:	8e2900b4 	lw	t1,180(s1)
    c0dc:	01061021 	addu	v0,t0,a2
    c0e0:	0048302b 	sltu	a2,v0,t0
    c0e4:	01251821 	addu	v1,t1,a1
    c0e8:	00c31821 	addu	v1,a2,v1
    c0ec:	ae2200b0 	sw	v0,176(s1)
    c0f0:	ae2300b4 	sw	v1,180(s1)
    c0f4:	8a06007f 	lwl	a2,127(s0)
    c0f8:	8e2800b8 	lw	t0,184(s1)
    c0fc:	9a06007c 	lwr	a2,124(s0)
    c100:	8e2900bc 	lw	t1,188(s1)
    c104:	01061021 	addu	v0,t0,a2
    c108:	0048302b 	sltu	a2,v0,t0
    c10c:	01251821 	addu	v1,t1,a1
    c110:	00c31821 	addu	v1,a2,v1
    c114:	ae2200b8 	sw	v0,184(s1)
    c118:	ae2300bc 	sw	v1,188(s1)
    c11c:	8a060083 	lwl	a2,131(s0)
    c120:	8e2800c0 	lw	t0,192(s1)
    c124:	9a060080 	lwr	a2,128(s0)
    c128:	8e2900c4 	lw	t1,196(s1)
    c12c:	01061021 	addu	v0,t0,a2
    c130:	0048302b 	sltu	a2,v0,t0
    c134:	01251821 	addu	v1,t1,a1
    c138:	00c31821 	addu	v1,a2,v1
    c13c:	ae2200c0 	sw	v0,192(s1)
    c140:	ae2300c4 	sw	v1,196(s1)
    c144:	8a060087 	lwl	a2,135(s0)
    c148:	8e2800c8 	lw	t0,200(s1)
    c14c:	9a060084 	lwr	a2,132(s0)
    c150:	8e2900cc 	lw	t1,204(s1)
    c154:	01061021 	addu	v0,t0,a2
    c158:	0048302b 	sltu	a2,v0,t0
    c15c:	01251821 	addu	v1,t1,a1
    c160:	00c31821 	addu	v1,a2,v1
    c164:	ae2200c8 	sw	v0,200(s1)
    c168:	ae2300cc 	sw	v1,204(s1)
    c16c:	8a06008b 	lwl	a2,139(s0)
    c170:	8e2800d0 	lw	t0,208(s1)
    c174:	9a060088 	lwr	a2,136(s0)
    c178:	8e2900d4 	lw	t1,212(s1)
    c17c:	01061021 	addu	v0,t0,a2
    c180:	0048302b 	sltu	a2,v0,t0
    c184:	01251821 	addu	v1,t1,a1
    c188:	00c31821 	addu	v1,a2,v1
    c18c:	ae2200d0 	sw	v0,208(s1)
    c190:	ae2300d4 	sw	v1,212(s1)
    c194:	8a06008f 	lwl	a2,143(s0)
    c198:	8e2800d8 	lw	t0,216(s1)
    c19c:	9a06008c 	lwr	a2,140(s0)
    c1a0:	8e2900dc 	lw	t1,220(s1)
    c1a4:	01061021 	addu	v0,t0,a2
    c1a8:	0048302b 	sltu	a2,v0,t0
    c1ac:	01251821 	addu	v1,t1,a1
    c1b0:	00c31821 	addu	v1,a2,v1
    c1b4:	ae2200d8 	sw	v0,216(s1)
    c1b8:	ae2300dc 	sw	v1,220(s1)
    c1bc:	8a060093 	lwl	a2,147(s0)
    c1c0:	8e2800e0 	lw	t0,224(s1)
    c1c4:	9a060090 	lwr	a2,144(s0)
    c1c8:	8e2900e4 	lw	t1,228(s1)
    c1cc:	01061021 	addu	v0,t0,a2
    c1d0:	0048302b 	sltu	a2,v0,t0
    c1d4:	01251821 	addu	v1,t1,a1
    c1d8:	00c31821 	addu	v1,a2,v1
    c1dc:	ae2200e0 	sw	v0,224(s1)
    c1e0:	ae2300e4 	sw	v1,228(s1)
    c1e4:	8a060097 	lwl	a2,151(s0)
    c1e8:	8e2800e8 	lw	t0,232(s1)
    c1ec:	9a060094 	lwr	a2,148(s0)
    c1f0:	8e2900ec 	lw	t1,236(s1)
    c1f4:	01061021 	addu	v0,t0,a2
    c1f8:	0048302b 	sltu	a2,v0,t0
    c1fc:	01251821 	addu	v1,t1,a1
    c200:	00c31821 	addu	v1,a2,v1
    c204:	ae2200e8 	sw	v0,232(s1)
    c208:	ae2300ec 	sw	v1,236(s1)
    c20c:	8a06009b 	lwl	a2,155(s0)
    c210:	8e2800f0 	lw	t0,240(s1)
    c214:	9a060098 	lwr	a2,152(s0)
    c218:	8e2900f4 	lw	t1,244(s1)
    c21c:	01061021 	addu	v0,t0,a2
    c220:	0048302b 	sltu	a2,v0,t0
    c224:	01251821 	addu	v1,t1,a1
    c228:	00c31821 	addu	v1,a2,v1
    c22c:	ae2200f0 	sw	v0,240(s1)
    c230:	ae2300f4 	sw	v1,244(s1)
    c234:	8a06009f 	lwl	a2,159(s0)
    c238:	8e2800f8 	lw	t0,248(s1)
    c23c:	9a06009c 	lwr	a2,156(s0)
    c240:	8e2900fc 	lw	t1,252(s1)
    c244:	01061021 	addu	v0,t0,a2
    c248:	0048302b 	sltu	a2,v0,t0
    c24c:	01251821 	addu	v1,t1,a1
    c250:	00c31821 	addu	v1,a2,v1
    c254:	ae2300fc 	sw	v1,252(s1)
    c258:	ae2200f8 	sw	v0,248(s1)
    c25c:	8a0400a3 	lwl	a0,163(s0)
    c260:	9a0400a0 	lwr	a0,160(s0)
    c264:	00042600 	sll	a0,a0,0x18
    c268:	0240f809 	jalr	s2
    c26c:	00042603 	sra	a0,a0,0x18
    c270:	ae22015c 	sw	v0,348(s1)
    c274:	8a0200a7 	lwl	v0,167(s0)
    c278:	8e260100 	lw	a2,256(s1)
    c27c:	9a0200a4 	lwr	v0,164(s0)
    c280:	8e270104 	lw	a3,260(s1)
    c284:	00002821 	move	a1,zero
    c288:	00c21021 	addu	v0,a2,v0
    c28c:	0046402b 	sltu	t0,v0,a2
    c290:	00e51821 	addu	v1,a3,a1
    c294:	01031821 	addu	v1,t0,v1
    c298:	ae220100 	sw	v0,256(s1)
    c29c:	ae230104 	sw	v1,260(s1)
    c2a0:	8a0600ab 	lwl	a2,171(s0)
    c2a4:	8e280108 	lw	t0,264(s1)
    c2a8:	9a0600a8 	lwr	a2,168(s0)
    c2ac:	8e29010c 	lw	t1,268(s1)
    c2b0:	01061021 	addu	v0,t0,a2
    c2b4:	0048302b 	sltu	a2,v0,t0
    c2b8:	01251821 	addu	v1,t1,a1
    c2bc:	00c31821 	addu	v1,a2,v1
    c2c0:	ae220108 	sw	v0,264(s1)
    c2c4:	ae23010c 	sw	v1,268(s1)
    c2c8:	8a0600af 	lwl	a2,175(s0)
    c2cc:	8e280110 	lw	t0,272(s1)
    c2d0:	9a0600ac 	lwr	a2,172(s0)
    c2d4:	8e290114 	lw	t1,276(s1)
    c2d8:	01061021 	addu	v0,t0,a2
    c2dc:	0048302b 	sltu	a2,v0,t0
    c2e0:	01251821 	addu	v1,t1,a1
    c2e4:	00c31821 	addu	v1,a2,v1
    c2e8:	ae220110 	sw	v0,272(s1)
    c2ec:	ae230114 	sw	v1,276(s1)
    c2f0:	8a0600b3 	lwl	a2,179(s0)
    c2f4:	8e280118 	lw	t0,280(s1)
    c2f8:	9a0600b0 	lwr	a2,176(s0)
    c2fc:	8e29011c 	lw	t1,284(s1)
    c300:	01061021 	addu	v0,t0,a2
    c304:	0048302b 	sltu	a2,v0,t0
    c308:	01251821 	addu	v1,t1,a1
    c30c:	00c31821 	addu	v1,a2,v1
    c310:	ae220118 	sw	v0,280(s1)
    c314:	ae23011c 	sw	v1,284(s1)
    c318:	8a0600b7 	lwl	a2,183(s0)
    c31c:	8e280120 	lw	t0,288(s1)
    c320:	9a0600b4 	lwr	a2,180(s0)
    c324:	8e290124 	lw	t1,292(s1)
    c328:	01061021 	addu	v0,t0,a2
    c32c:	0048302b 	sltu	a2,v0,t0
    c330:	01251821 	addu	v1,t1,a1
    c334:	00c31821 	addu	v1,a2,v1
    c338:	ae220120 	sw	v0,288(s1)
    c33c:	ae230124 	sw	v1,292(s1)
    c340:	8a0600bb 	lwl	a2,187(s0)
    c344:	8e280128 	lw	t0,296(s1)
    c348:	9a0600b8 	lwr	a2,184(s0)
    c34c:	8e29012c 	lw	t1,300(s1)
    c350:	01061021 	addu	v0,t0,a2
    c354:	0048302b 	sltu	a2,v0,t0
    c358:	01251821 	addu	v1,t1,a1
    c35c:	00c31821 	addu	v1,a2,v1
    c360:	ae220128 	sw	v0,296(s1)
    c364:	ae23012c 	sw	v1,300(s1)
    c368:	8a06000b 	lwl	a2,11(s0)
    c36c:	8e280130 	lw	t0,304(s1)
    c370:	9a060008 	lwr	a2,8(s0)
    c374:	8e290134 	lw	t1,308(s1)
    c378:	01061021 	addu	v0,t0,a2
    c37c:	0048302b 	sltu	a2,v0,t0
    c380:	01251821 	addu	v1,t1,a1
    c384:	00c31821 	addu	v1,a2,v1
    c388:	ae220130 	sw	v0,304(s1)
    c38c:	ae230134 	sw	v1,308(s1)
    c390:	8a060007 	lwl	a2,7(s0)
    c394:	8e2a0138 	lw	t2,312(s1)
    c398:	9a060004 	lwr	a2,4(s0)
    c39c:	8e2b013c 	lw	t3,316(s1)
    c3a0:	a626016a 	sh	a2,362(s1)
    c3a4:	8a0800d3 	lwl	t0,211(s0)
    c3a8:	00001821 	move	v1,zero
    c3ac:	9a0800d0 	lwr	t0,208(s0)
    c3b0:	01632821 	addu	a1,t3,v1
    c3b4:	01482021 	addu	a0,t2,t0
    c3b8:	008a402b 	sltu	t0,a0,t2
    c3bc:	01052821 	addu	a1,t0,a1
    c3c0:	8e2c0140 	lw	t4,320(s1)
    c3c4:	8e2e0148 	lw	t6,328(s1)
    c3c8:	8e2d0144 	lw	t5,324(s1)
    c3cc:	8e2f014c 	lw	t7,332(s1)
    c3d0:	ae240138 	sw	a0,312(s1)
    c3d4:	ae25013c 	sw	a1,316(s1)
    c3d8:	8a0800d7 	lwl	t0,215(s0)
    c3dc:	01a33821 	addu	a3,t5,v1
    c3e0:	9a0800d4 	lwr	t0,212(s0)
    c3e4:	8e2a0150 	lw	t2,336(s1)
    c3e8:	01883021 	addu	a2,t4,t0
    c3ec:	00cc402b 	sltu	t0,a2,t4
    c3f0:	01073821 	addu	a3,t0,a3
    c3f4:	ae270144 	sw	a3,324(s1)
    c3f8:	ae260140 	sw	a2,320(s1)
    c3fc:	920800d9 	lbu	t0,217(s0)
    c400:	920600d8 	lbu	a2,216(s0)
    c404:	00084200 	sll	t0,t0,0x8
    c408:	01061025 	or	v0,t0,a2
    c40c:	01c22021 	addu	a0,t6,v0
    c410:	008e302b 	sltu	a2,a0,t6
    c414:	00cf2821 	addu	a1,a2,t7
    c418:	ae240148 	sw	a0,328(s1)
    c41c:	ae25014c 	sw	a1,332(s1)
    c420:	920200db 	lbu	v0,219(s0)
    c424:	920300da 	lbu	v1,218(s0)
    c428:	00021200 	sll	v0,v0,0x8
    c42c:	00432025 	or	a0,v0,v1
    c430:	8e2b0154 	lw	t3,340(s1)
    c434:	01441021 	addu	v0,t2,a0
    c438:	004a302b 	sltu	a2,v0,t2
    c43c:	00cb1821 	addu	v1,a2,t3
    c440:	ae220150 	sw	v0,336(s1)
    c444:	ae230154 	sw	v1,340(s1)
    c448:	920400e3 	lbu	a0,227(s0)
    c44c:	8e260164 	lw	a2,356(s1)
    c450:	a2240170 	sb	a0,368(s1)
    c454:	920200dd 	lbu	v0,221(s0)
    c458:	920300dc 	lbu	v1,220(s0)
    c45c:	00021200 	sll	v0,v0,0x8
    c460:	00431025 	or	v0,v0,v1
    c464:	a622016e 	sh	v0,366(s1)
    c468:	920300e4 	lbu	v1,228(s0)
    c46c:	92270173 	lbu	a3,371(s1)
    c470:	a2230171 	sb	v1,369(s1)
    c474:	920400e2 	lbu	a0,226(s0)
    c478:	92250174 	lbu	a1,372(s1)
    c47c:	a2240172 	sb	a0,370(s1)
    c480:	920200e1 	lbu	v0,225(s0)
    c484:	920300e0 	lbu	v1,224(s0)
    c488:	00021200 	sll	v0,v0,0x8
    c48c:	00431025 	or	v0,v0,v1
    c490:	a622016c 	sh	v0,364(s1)
    c494:	8a030003 	lwl	v1,3(s0)
    c498:	96290168 	lhu	t1,360(s1)
    c49c:	9a030000 	lwr	v1,0(s0)
    c4a0:	3c040000 	lui	a0,0x0
			c4a0: R_MIPS_HI16	arEvent
    c4a4:	ae230160 	sw	v1,352(s1)
    c4a8:	8a0200bf 	lwl	v0,191(s0)
    c4ac:	8e280178 	lw	t0,376(s1)
    c4b0:	9a0200bc 	lwr	v0,188(s0)
    c4b4:	3c190000 	lui	t9,0x0
			c4b4: R_MIPS_HI16	__wake_up
    c4b8:	00c23021 	addu	a2,a2,v0
    c4bc:	ae260164 	sw	a2,356(s1)
    c4c0:	920200c2 	lbu	v0,194(s0)
    c4c4:	24840000 	addiu	a0,a0,0
			c4c4: R_MIPS_LO16	arEvent
    c4c8:	00e23821 	addu	a3,a3,v0
    c4cc:	a2270173 	sb	a3,371(s1)
    c4d0:	920200c3 	lbu	v0,195(s0)
    c4d4:	24060001 	li	a2,1
    c4d8:	00a22821 	addu	a1,a1,v0
    c4dc:	a2250174 	sb	a1,372(s1)
    c4e0:	920200c1 	lbu	v0,193(s0)
    c4e4:	920300c0 	lbu	v1,192(s0)
    c4e8:	00021200 	sll	v0,v0,0x8
    c4ec:	00431025 	or	v0,v0,v1
    c4f0:	00491021 	addu	v0,v0,t1
    c4f4:	a6220168 	sh	v0,360(s1)
    c4f8:	8a0300c7 	lwl	v1,199(s0)
    c4fc:	24050003 	li	a1,3
    c500:	9a0300c4 	lwr	v1,196(s0)
    c504:	00003821 	move	a3,zero
    c508:	01034021 	addu	t0,t0,v1
    c50c:	ae280178 	sw	t0,376(s1)
    c510:	8a0200cb 	lwl	v0,203(s0)
    c514:	8e23017c 	lw	v1,380(s1)
    c518:	9a0200c8 	lwr	v0,200(s0)
    c51c:	8e280180 	lw	t0,384(s1)
    c520:	00621821 	addu	v1,v1,v0
    c524:	ae23017c 	sw	v1,380(s1)
    c528:	8a0200cf 	lwl	v0,207(s0)
    c52c:	27390000 	addiu	t9,t9,0
			c52c: R_MIPS_LO16	__wake_up
    c530:	9a0200cc 	lwr	v0,204(s0)
    c534:	01024021 	addu	t0,t0,v0
    c538:	ae280180 	sw	t0,384(s1)
    c53c:	ae6002a0 	sw	zero,672(s3)
    c540:	8fbf0020 	lw	ra,32(sp)
    c544:	8fb3001c 	lw	s3,28(sp)
    c548:	8fb20018 	lw	s2,24(sp)
    c54c:	8fb10014 	lw	s1,20(sp)
    c550:	8fb00010 	lw	s0,16(sp)
    c554:	03200008 	jr	t9
    c558:	27bd0028 	addiu	sp,sp,40

0000c55c <ar6000_tkip_micerr_event>:
    c55c:	27bdff30 	addiu	sp,sp,-208
    c560:	afb300c4 	sw	s3,196(sp)
    c564:	afb200c0 	sw	s2,192(sp)
    c568:	afb100bc 	sw	s1,188(sp)
    c56c:	afbf00c8 	sw	ra,200(sp)
    c570:	afb000b8 	sw	s0,184(sp)
    c574:	9083009d 	lbu	v1,157(a0)
    c578:	30b100ff 	andi	s1,a1,0xff
    c57c:	24020010 	li	v0,16
    c580:	00809821 	move	s3,a0
    c584:	27b20038 	addiu	s2,sp,56
    c588:	00c03821 	move	a3,a2
    c58c:	1062003e 	beq	v1,v0,c688 <ar6000_tkip_micerr_event+0x12c>
    c590:	02202821 	move	a1,s1
    c594:	3c040000 	lui	a0,0x0
			c594: R_MIPS_HI16	$LC83
    c598:	3c060000 	lui	a2,0x0
			c598: R_MIPS_HI16	$LC87
    c59c:	24840000 	addiu	a0,a0,0
			c59c: R_MIPS_LO16	$LC83
    c5a0:	10e00030 	beqz	a3,c664 <ar6000_tkip_micerr_event+0x108>
    c5a4:	24c60000 	addiu	a2,a2,0
			c5a4: R_MIPS_LO16	$LC87
    c5a8:	3c040000 	lui	a0,0x0
			c5a8: R_MIPS_HI16	$LC83
    c5ac:	3c060000 	lui	a2,0x0
			c5ac: R_MIPS_HI16	$LC84
    c5b0:	3c020000 	lui	v0,0x0
			c5b0: R_MIPS_HI16	printk
    c5b4:	24840000 	addiu	a0,a0,0
			c5b4: R_MIPS_LO16	$LC83
    c5b8:	24420000 	addiu	v0,v0,0
			c5b8: R_MIPS_LO16	printk
    c5bc:	0040f809 	jalr	v0
    c5c0:	24c60000 	addiu	a2,a2,0
			c5c0: R_MIPS_LO16	$LC84
    c5c4:	3c030000 	lui	v1,0x0
			c5c4: R_MIPS_HI16	.rodata
    c5c8:	3c020000 	lui	v0,0x0
			c5c8: R_MIPS_HI16	$LC85
    c5cc:	8c6700ec 	lw	a3,236(v1)
			c5cc: R_MIPS_LO16	.rodata
    c5d0:	24420000 	addiu	v0,v0,0
			c5d0: R_MIPS_LO16	$LC85
    c5d4:	27b20038 	addiu	s2,sp,56
    c5d8:	3c060000 	lui	a2,0x0
			c5d8: R_MIPS_HI16	$LC86
    c5dc:	afa20014 	sw	v0,20(sp)
    c5e0:	3c020000 	lui	v0,0x0
			c5e0: R_MIPS_HI16	snprintf
    c5e4:	24c60000 	addiu	a2,a2,0
			c5e4: R_MIPS_LO16	$LC86
    c5e8:	24050080 	li	a1,128
    c5ec:	02402021 	move	a0,s2
    c5f0:	24420000 	addiu	v0,v0,0
			c5f0: R_MIPS_LO16	snprintf
    c5f4:	0040f809 	jalr	v0
    c5f8:	afb10010 	sw	s1,16(sp)
    c5fc:	27b00028 	addiu	s0,sp,40
    c600:	3c020000 	lui	v0,0x0
			c600: R_MIPS_HI16	memset
    c604:	00002821 	move	a1,zero
    c608:	24060010 	li	a2,16
    c60c:	24420000 	addiu	v0,v0,0
			c60c: R_MIPS_LO16	memset
    c610:	0040f809 	jalr	v0
    c614:	02002021 	move	a0,s0
    c618:	3c020000 	lui	v0,0x0
			c618: R_MIPS_HI16	strlen
    c61c:	24420000 	addiu	v0,v0,0
			c61c: R_MIPS_LO16	strlen
    c620:	0040f809 	jalr	v0
    c624:	02402021 	move	a0,s2
    c628:	8e640000 	lw	a0,0(s3)
    c62c:	a7a2002c 	sh	v0,44(sp)
    c630:	3c020000 	lui	v0,0x0
			c630: R_MIPS_HI16	wireless_send_event
    c634:	02003021 	move	a2,s0
    c638:	02403821 	move	a3,s2
    c63c:	24420000 	addiu	v0,v0,0
			c63c: R_MIPS_LO16	wireless_send_event
    c640:	0040f809 	jalr	v0
    c644:	34058c02 	li	a1,0x8c02
    c648:	8fbf00c8 	lw	ra,200(sp)
    c64c:	8fb300c4 	lw	s3,196(sp)
    c650:	8fb200c0 	lw	s2,192(sp)
    c654:	8fb100bc 	lw	s1,188(sp)
    c658:	8fb000b8 	lw	s0,184(sp)
    c65c:	03e00008 	jr	ra
    c660:	27bd00d0 	addiu	sp,sp,208
    c664:	3c020000 	lui	v0,0x0
			c664: R_MIPS_HI16	printk
    c668:	24420000 	addiu	v0,v0,0
			c668: R_MIPS_LO16	printk
    c66c:	0040f809 	jalr	v0
    c670:	00000000 	nop
    c674:	3c030000 	lui	v1,0x0
			c674: R_MIPS_HI16	.rodata
    c678:	3c020000 	lui	v0,0x0
			c678: R_MIPS_HI16	$LC88
    c67c:	8c6700ec 	lw	a3,236(v1)
			c67c: R_MIPS_LO16	.rodata
    c680:	08003175 	j	c5d4 <ar6000_tkip_micerr_event+0x78>
			c680: R_MIPS_26	.text
    c684:	24420000 	addiu	v0,v0,0
			c684: R_MIPS_LO16	$LC88
    c688:	3c020000 	lui	v0,0x0
			c688: R_MIPS_HI16	ieee80211_find_conn_for_aid
    c68c:	24420000 	addiu	v0,v0,0
			c68c: R_MIPS_LO16	ieee80211_find_conn_for_aid
    c690:	0040f809 	jalr	v0
    c694:	00000000 	nop
    c698:	00408021 	move	s0,v0
    c69c:	3c040000 	lui	a0,0x0
			c69c: R_MIPS_HI16	$LC81
    c6a0:	3c020000 	lui	v0,0x0
			c6a0: R_MIPS_HI16	printk
    c6a4:	02202821 	move	a1,s1
    c6a8:	24420000 	addiu	v0,v0,0
			c6a8: R_MIPS_LO16	printk
    c6ac:	0040f809 	jalr	v0
    c6b0:	24840000 	addiu	a0,a0,0
			c6b0: R_MIPS_LO16	$LC81
    c6b4:	92030002 	lbu	v1,2(s0)
    c6b8:	3c060000 	lui	a2,0x0
			c6b8: R_MIPS_HI16	$LC82
    c6bc:	afa30010 	sw	v1,16(sp)
    c6c0:	92020003 	lbu	v0,3(s0)
    c6c4:	24c60000 	addiu	a2,a2,0
			c6c4: R_MIPS_LO16	$LC82
    c6c8:	afa20014 	sw	v0,20(sp)
    c6cc:	92030004 	lbu	v1,4(s0)
    c6d0:	02402021 	move	a0,s2
    c6d4:	afa30018 	sw	v1,24(sp)
    c6d8:	92020005 	lbu	v0,5(s0)
    c6dc:	24050080 	li	a1,128
    c6e0:	afa2001c 	sw	v0,28(sp)
    c6e4:	92030006 	lbu	v1,6(s0)
    c6e8:	3c020000 	lui	v0,0x0
			c6e8: R_MIPS_HI16	.rodata
    c6ec:	afa30020 	sw	v1,32(sp)
    c6f0:	92080007 	lbu	t0,7(s0)
    c6f4:	8c4700ec 	lw	a3,236(v0)
			c6f4: R_MIPS_LO16	.rodata
    c6f8:	3c020000 	lui	v0,0x0
			c6f8: R_MIPS_HI16	snprintf
    c6fc:	24420000 	addiu	v0,v0,0
			c6fc: R_MIPS_LO16	snprintf
    c700:	0040f809 	jalr	v0
    c704:	afa80024 	sw	t0,36(sp)
    c708:	08003180 	j	c600 <ar6000_tkip_micerr_event+0xa4>
			c708: R_MIPS_26	.text
    c70c:	27b00028 	addiu	s0,sp,40

0000c710 <ar6000_neighborReport_event>:
    c710:	27bdff18 	addiu	sp,sp,-232
    c714:	afb300cc 	sw	s3,204(sp)
    c718:	afb000c0 	sw	s0,192(sp)
    c71c:	afbf00e4 	sw	ra,228(sp)
    c720:	afbe00e0 	sw	s8,224(sp)
    c724:	afb700dc 	sw	s7,220(sp)
    c728:	afb600d8 	sw	s6,216(sp)
    c72c:	afb500d4 	sw	s5,212(sp)
    c730:	afb400d0 	sw	s4,208(sp)
    c734:	afb200c8 	sw	s2,200(sp)
    c738:	afb100c4 	sw	s1,196(sp)
    c73c:	00a09821 	move	s3,a1
    c740:	afa400e8 	sw	a0,232(sp)
    c744:	18a0003a 	blez	a1,c830 <ar6000_neighborReport_event+0x120>
    c748:	00c08021 	move	s0,a2
    c74c:	3c020000 	lui	v0,0x0
			c74c: R_MIPS_HI16	.rodata
    c750:	8c5400f0 	lw	s4,240(v0)
			c750: R_MIPS_LO16	.rodata
    c754:	3c020000 	lui	v0,0x0
			c754: R_MIPS_HI16	memset
    c758:	245e0000 	addiu	s8,v0,0
			c758: R_MIPS_LO16	memset
    c75c:	3c030000 	lui	v1,0x0
			c75c: R_MIPS_HI16	strlen
    c760:	3c020000 	lui	v0,0x0
			c760: R_MIPS_HI16	wireless_send_event
    c764:	24770000 	addiu	s7,v1,0
			c764: R_MIPS_LO16	strlen
    c768:	24560000 	addiu	s6,v0,0
			c768: R_MIPS_LO16	wireless_send_event
    c76c:	00008821 	move	s1,zero
    c770:	27b20040 	addiu	s2,sp,64
    c774:	080031e2 	j	c788 <ar6000_neighborReport_event+0x78>
			c774: R_MIPS_26	.text
    c778:	27b50030 	addiu	s5,sp,48
    c77c:	26310001 	addiu	s1,s1,1
    c780:	1271002b 	beq	s3,s1,c830 <ar6000_neighborReport_event+0x120>
    c784:	26100007 	addiu	s0,s0,7
    c788:	920c0006 	lbu	t4,6(s0)
    c78c:	3c060000 	lui	a2,0x0
			c78c: R_MIPS_HI16	$LC89
    c790:	31820002 	andi	v0,t4,0x2
    c794:	24c60000 	addiu	a2,a2,0
			c794: R_MIPS_LO16	$LC89
    c798:	02803821 	move	a3,s4
    c79c:	02402021 	move	a0,s2
    c7a0:	1440fff6 	bnez	v0,c77c <ar6000_neighborReport_event+0x6c>
    c7a4:	24050080 	li	a1,128
    c7a8:	92030001 	lbu	v1,1(s0)
    c7ac:	92080002 	lbu	t0,2(s0)
    c7b0:	92090003 	lbu	t1,3(s0)
    c7b4:	920a0004 	lbu	t2,4(s0)
    c7b8:	920b0005 	lbu	t3,5(s0)
    c7bc:	92020000 	lbu	v0,0(s0)
    c7c0:	afa30014 	sw	v1,20(sp)
    c7c4:	3c030000 	lui	v1,0x0
			c7c4: R_MIPS_HI16	snprintf
    c7c8:	afac002c 	sw	t4,44(sp)
    c7cc:	afa80018 	sw	t0,24(sp)
    c7d0:	afa9001c 	sw	t1,28(sp)
    c7d4:	afaa0020 	sw	t2,32(sp)
    c7d8:	afab0024 	sw	t3,36(sp)
    c7dc:	24630000 	addiu	v1,v1,0
			c7dc: R_MIPS_LO16	snprintf
    c7e0:	afb10028 	sw	s1,40(sp)
    c7e4:	0060f809 	jalr	v1
    c7e8:	afa20010 	sw	v0,16(sp)
    c7ec:	00002821 	move	a1,zero
    c7f0:	24060010 	li	a2,16
    c7f4:	03c0f809 	jalr	s8
    c7f8:	02a02021 	move	a0,s5
    c7fc:	02e0f809 	jalr	s7
    c800:	02402021 	move	a0,s2
    c804:	8fa300e8 	lw	v1,232(sp)
    c808:	34058c02 	li	a1,0x8c02
    c80c:	8c640000 	lw	a0,0(v1)
    c810:	02a03021 	move	a2,s5
    c814:	02403821 	move	a3,s2
    c818:	26310001 	addiu	s1,s1,1
    c81c:	a7a20034 	sh	v0,52(sp)
    c820:	02c0f809 	jalr	s6
    c824:	26100007 	addiu	s0,s0,7
    c828:	1671ffd7 	bne	s3,s1,c788 <ar6000_neighborReport_event+0x78>
    c82c:	00000000 	nop
    c830:	8fbf00e4 	lw	ra,228(sp)
    c834:	8fbe00e0 	lw	s8,224(sp)
    c838:	8fb700dc 	lw	s7,220(sp)
    c83c:	8fb600d8 	lw	s6,216(sp)
    c840:	8fb500d4 	lw	s5,212(sp)
    c844:	8fb400d0 	lw	s4,208(sp)
    c848:	8fb300cc 	lw	s3,204(sp)
    c84c:	8fb200c8 	lw	s2,200(sp)
    c850:	8fb100c4 	lw	s1,196(sp)
    c854:	8fb000c0 	lw	s0,192(sp)
    c858:	03e00008 	jr	ra
    c85c:	27bd00e8 	addiu	sp,sp,232

0000c860 <remove_sta>:
    c860:	27bdffb0 	addiu	sp,sp,-80
    c864:	afbe0048 	sw	s8,72(sp)
    c868:	afb70044 	sw	s7,68(sp)
    c86c:	afb30034 	sw	s3,52(sp)
    c870:	afbf004c 	sw	ra,76(sp)
    c874:	afb60040 	sw	s6,64(sp)
    c878:	afb5003c 	sw	s5,60(sp)
    c87c:	afb40038 	sw	s4,56(sp)
    c880:	afb20030 	sw	s2,48(sp)
    c884:	afb1002c 	sw	s1,44(sp)
    c888:	afb00028 	sw	s0,40(sp)
    c88c:	90a20000 	lbu	v0,0(a1)
    c890:	00a09821 	move	s3,a1
    c894:	0080b821 	move	s7,a0
    c898:	14400004 	bnez	v0,c8ac <remove_sta+0x4c>
    c89c:	30deffff 	andi	s8,a2,0xffff
    c8a0:	90a20001 	lbu	v0,1(a1)
    c8a4:	10400020 	beqz	v0,c928 <remove_sta+0xc8>
    c8a8:	00000000 	nop
    c8ac:	00009021 	move	s2,zero
    c8b0:	3c140000 	lui	s4,0x0
			c8b0: R_MIPS_HI16	memcmp
    c8b4:	26f10e00 	addiu	s1,s7,3584
    c8b8:	0000a821 	move	s5,zero
    c8bc:	26f00cf6 	addiu	s0,s7,3318
    c8c0:	02002021 	move	a0,s0
    c8c4:	02602821 	move	a1,s3
    c8c8:	26820000 	addiu	v0,s4,0
			c8c8: R_MIPS_LO16	memcmp
    c8cc:	0040f809 	jalr	v0
    c8d0:	24060006 	li	a2,6
    c8d4:	10400022 	beqz	v0,c960 <remove_sta+0x100>
    c8d8:	26100118 	addiu	s0,s0,280
    c8dc:	26520001 	addiu	s2,s2,1
    c8e0:	24020008 	li	v0,8
    c8e4:	26b50118 	addiu	s5,s5,280
    c8e8:	1642fff5 	bne	s2,v0,c8c0 <remove_sta+0x60>
    c8ec:	26310118 	addiu	s1,s1,280
    c8f0:	00001821 	move	v1,zero
    c8f4:	8fbf004c 	lw	ra,76(sp)
    c8f8:	8fbe0048 	lw	s8,72(sp)
    c8fc:	8fb70044 	lw	s7,68(sp)
    c900:	8fb60040 	lw	s6,64(sp)
    c904:	8fb5003c 	lw	s5,60(sp)
    c908:	8fb40038 	lw	s4,56(sp)
    c90c:	8fb30034 	lw	s3,52(sp)
    c910:	8fb20030 	lw	s2,48(sp)
    c914:	8fb1002c 	lw	s1,44(sp)
    c918:	8fb00028 	lw	s0,40(sp)
    c91c:	00601021 	move	v0,v1
    c920:	03e00008 	jr	ra
    c924:	27bd0050 	addiu	sp,sp,80
    c928:	90a20002 	lbu	v0,2(a1)
    c92c:	1440ffe0 	bnez	v0,c8b0 <remove_sta+0x50>
    c930:	00009021 	move	s2,zero
    c934:	90a20003 	lbu	v0,3(a1)
    c938:	1440ffde 	bnez	v0,c8b4 <remove_sta+0x54>
    c93c:	3c140000 	lui	s4,0x0
			c93c: R_MIPS_HI16	memcmp
    c940:	90a20004 	lbu	v0,4(a1)
    c944:	1440ffdc 	bnez	v0,c8b8 <remove_sta+0x58>
    c948:	26f10e00 	addiu	s1,s7,3584
    c94c:	90a20005 	lbu	v0,5(a1)
    c950:	1440ffda 	bnez	v0,c8bc <remove_sta+0x5c>
    c954:	0000a821 	move	s5,zero
    c958:	0800323d 	j	c8f4 <remove_sta+0x94>
			c958: R_MIPS_26	.text
    c95c:	00001821 	move	v1,zero
    c960:	3c020000 	lui	v0,0x0
			c960: R_MIPS_HI16	local_bh_disable
    c964:	24420000 	addiu	v0,v0,0
			c964: R_MIPS_LO16	local_bh_disable
    c968:	0040f809 	jalr	v0
    c96c:	00000000 	nop
    c970:	8f820014 	lw	v0,20(gp)
    c974:	24420001 	addiu	v0,v0,1
    c978:	af820014 	sw	v0,20(gp)
    c97c:	3c020000 	lui	v0,0x0
			c97c: R_MIPS_HI16	a_netbuf_dequeue
    c980:	3c030000 	lui	v1,0x0
			c980: R_MIPS_HI16	a_netbuf_free
    c984:	24560000 	addiu	s6,v0,0
			c984: R_MIPS_LO16	a_netbuf_dequeue
    c988:	24740000 	addiu	s4,v1,0
			c988: R_MIPS_LO16	a_netbuf_free
    c98c:	08003269 	j	c9a4 <remove_sta+0x144>
			c98c: R_MIPS_26	.text
    c990:	3c100000 	lui	s0,0x0
			c990: R_MIPS_HI16	a_netbuf_queue_empty
    c994:	02c0f809 	jalr	s6
    c998:	00000000 	nop
    c99c:	0280f809 	jalr	s4
    c9a0:	00402021 	move	a0,v0
    c9a4:	26020000 	addiu	v0,s0,0
			c9a4: R_MIPS_LO16	a_netbuf_queue_empty
    c9a8:	0040f809 	jalr	v0
    c9ac:	02202021 	move	a0,s1
    c9b0:	1040fff8 	beqz	v0,c994 <remove_sta+0x134>
    c9b4:	02202021 	move	a0,s1
    c9b8:	8f830014 	lw	v1,20(gp)
    c9bc:	3c020000 	lui	v0,0x0
			c9bc: R_MIPS_HI16	local_bh_enable
    c9c0:	2463ffff 	addiu	v1,v1,-1
    c9c4:	24420000 	addiu	v0,v0,0
			c9c4: R_MIPS_LO16	local_bh_enable
    c9c8:	0040f809 	jalr	v0
    c9cc:	af830014 	sw	v1,20(gp)
    c9d0:	02b78021 	addu	s0,s5,s7
    c9d4:	92620003 	lbu	v0,3(s3)
    c9d8:	92690005 	lbu	t1,5(s3)
    c9dc:	92080cfc 	lbu	t0,3324(s0)
    c9e0:	92630004 	lbu	v1,4(s3)
    c9e4:	92670002 	lbu	a3,2(s3)
    c9e8:	92650000 	lbu	a1,0(s3)
    c9ec:	92660001 	lbu	a2,1(s3)
    c9f0:	3c040000 	lui	a0,0x0
			c9f0: R_MIPS_HI16	$LC90
    c9f4:	afa20010 	sw	v0,16(sp)
    c9f8:	3c020000 	lui	v0,0x0
			c9f8: R_MIPS_HI16	printk
    c9fc:	afa90018 	sw	t1,24(sp)
    ca00:	afa8001c 	sw	t0,28(sp)
    ca04:	afa30014 	sw	v1,20(sp)
    ca08:	afbe0020 	sw	s8,32(sp)
    ca0c:	24420000 	addiu	v0,v0,0
			ca0c: R_MIPS_LO16	printk
    ca10:	0040f809 	jalr	v0
    ca14:	24840000 	addiu	a0,a0,0
			ca14: R_MIPS_LO16	$LC90
    ca18:	3c030000 	lui	v1,0x0
			ca18: R_MIPS_HI16	memset
    ca1c:	26040cf6 	addiu	a0,s0,3318
    ca20:	00002821 	move	a1,zero
    ca24:	24630000 	addiu	v1,v1,0
			ca24: R_MIPS_LO16	memset
    ca28:	0060f809 	jalr	v1
    ca2c:	24060006 	li	a2,6
    ca30:	3c030000 	lui	v1,0x0
			ca30: R_MIPS_HI16	memset
    ca34:	26040cfd 	addiu	a0,s0,3325
    ca38:	24630000 	addiu	v1,v1,0
			ca38: R_MIPS_LO16	memset
    ca3c:	00002821 	move	a1,zero
    ca40:	0060f809 	jalr	v1
    ca44:	24060100 	li	a2,256
    ca48:	a6000cf4 	sh	zero,3316(s0)
    ca4c:	a2000cfc 	sb	zero,3324(s0)
    ca50:	24020001 	li	v0,1
    ca54:	92e315b4 	lbu	v1,5556(s7)
    ca58:	02421004 	sllv	v0,v0,s2
    ca5c:	00021027 	nor	v0,zero,v0
    ca60:	00431024 	and	v0,v0,v1
    ca64:	a2e215b4 	sb	v0,5556(s7)
    ca68:	24030001 	li	v1,1
    ca6c:	8fbf004c 	lw	ra,76(sp)
    ca70:	8fbe0048 	lw	s8,72(sp)
    ca74:	8fb70044 	lw	s7,68(sp)
    ca78:	8fb60040 	lw	s6,64(sp)
    ca7c:	8fb5003c 	lw	s5,60(sp)
    ca80:	8fb40038 	lw	s4,56(sp)
    ca84:	8fb30034 	lw	s3,52(sp)
    ca88:	8fb20030 	lw	s2,48(sp)
    ca8c:	8fb1002c 	lw	s1,44(sp)
    ca90:	8fb00028 	lw	s0,40(sp)
    ca94:	00601021 	move	v0,v1
    ca98:	03e00008 	jr	ra
    ca9c:	27bd0050 	addiu	sp,sp,80

0000caa0 <add_new_sta>:
    caa0:	27bdffc8 	addiu	sp,sp,-56
    caa4:	afbe0030 	sw	s8,48(sp)
    caa8:	3c020000 	lui	v0,0x0
			caa8: R_MIPS_HI16	memcmp
    caac:	93be0048 	lbu	s8,72(sp)
    cab0:	afb7002c 	sw	s7,44(sp)
    cab4:	afb60028 	sw	s6,40(sp)
    cab8:	afb50024 	sw	s5,36(sp)
    cabc:	afb40020 	sw	s4,32(sp)
    cac0:	afb3001c 	sw	s3,28(sp)
    cac4:	afb10014 	sw	s1,20(sp)
    cac8:	afb00010 	sw	s0,16(sp)
    cacc:	afbf0034 	sw	ra,52(sp)
    cad0:	afb20018 	sw	s2,24(sp)
    cad4:	00809821 	move	s3,a0
    cad8:	00a0b021 	move	s6,a1
    cadc:	afa70044 	sw	a3,68(sp)
    cae0:	30d7ffff 	andi	s7,a2,0xffff
    cae4:	24550000 	addiu	s5,v0,0
			cae4: R_MIPS_LO16	memcmp
    cae8:	00008821 	move	s1,zero
    caec:	24140008 	li	s4,8
    caf0:	24900cf6 	addiu	s0,a0,3318
    caf4:	00119600 	sll	s2,s1,0x18
    caf8:	02002021 	move	a0,s0
    cafc:	02c02821 	move	a1,s6
    cb00:	24060006 	li	a2,6
    cb04:	02a0f809 	jalr	s5
    cb08:	00129603 	sra	s2,s2,0x18
    cb0c:	10400008 	beqz	v0,cb30 <add_new_sta+0x90>
    cb10:	26100118 	addiu	s0,s0,280
    cb14:	926215b4 	lbu	v0,5556(s3)
    cb18:	02221007 	srav	v0,v0,s1
    cb1c:	30420001 	andi	v0,v0,0x1
    cb20:	10400011 	beqz	v0,cb68 <add_new_sta+0xc8>
    cb24:	26310001 	addiu	s1,s1,1
    cb28:	1634fff3 	bne	s1,s4,caf8 <add_new_sta+0x58>
    cb2c:	00119600 	sll	s2,s1,0x18
    cb30:	00002021 	move	a0,zero
    cb34:	8fbf0034 	lw	ra,52(sp)
    cb38:	8fbe0030 	lw	s8,48(sp)
    cb3c:	8fb7002c 	lw	s7,44(sp)
    cb40:	8fb60028 	lw	s6,40(sp)
    cb44:	8fb50024 	lw	s5,36(sp)
    cb48:	8fb40020 	lw	s4,32(sp)
    cb4c:	8fb3001c 	lw	s3,28(sp)
    cb50:	8fb20018 	lw	s2,24(sp)
    cb54:	8fb10014 	lw	s1,20(sp)
    cb58:	8fb00010 	lw	s0,16(sp)
    cb5c:	00801021 	move	v0,a0
    cb60:	03e00008 	jr	ra
    cb64:	27bd0038 	addiu	sp,sp,56
    cb68:	0640fff1 	bltz	s2,cb30 <add_new_sta+0x90>
    cb6c:	00121940 	sll	v1,s2,0x5
    cb70:	001210c0 	sll	v0,s2,0x3
    cb74:	00431021 	addu	v0,v0,v1
    cb78:	000280c0 	sll	s0,v0,0x3
    cb7c:	02028023 	subu	s0,s0,v0
    cb80:	02132021 	addu	a0,s0,s3
    cb84:	3c110000 	lui	s1,0x0
			cb84: R_MIPS_HI16	memcpy
    cb88:	02c02821 	move	a1,s6
    cb8c:	26310000 	addiu	s1,s1,0
			cb8c: R_MIPS_LO16	memcpy
    cb90:	24840cf6 	addiu	a0,a0,3318
    cb94:	0220f809 	jalr	s1
    cb98:	24060006 	li	a2,6
    cb9c:	02132021 	addu	a0,s0,s3
    cba0:	8fa50044 	lw	a1,68(sp)
    cba4:	02138021 	addu	s0,s0,s3
    cba8:	24840cfd 	addiu	a0,a0,3325
    cbac:	0220f809 	jalr	s1
    cbb0:	03c03021 	move	a2,s8
    cbb4:	a2170cfc 	sb	s7,3324(s0)
    cbb8:	926315b4 	lbu	v1,5556(s3)
    cbbc:	24020001 	li	v0,1
    cbc0:	02421004 	sllv	v0,v0,s2
    cbc4:	00431025 	or	v0,v0,v1
    cbc8:	a26215b4 	sb	v0,5556(s3)
    cbcc:	24040001 	li	a0,1
    cbd0:	8fbf0034 	lw	ra,52(sp)
    cbd4:	8fbe0030 	lw	s8,48(sp)
    cbd8:	8fb7002c 	lw	s7,44(sp)
    cbdc:	8fb60028 	lw	s6,40(sp)
    cbe0:	8fb50024 	lw	s5,36(sp)
    cbe4:	8fb40020 	lw	s4,32(sp)
    cbe8:	8fb3001c 	lw	s3,28(sp)
    cbec:	8fb20018 	lw	s2,24(sp)
    cbf0:	8fb10014 	lw	s1,20(sp)
    cbf4:	8fb00010 	lw	s0,16(sp)
    cbf8:	00801021 	move	v0,a0
    cbfc:	03e00008 	jr	ra
    cc00:	27bd0038 	addiu	sp,sp,56

0000cc04 <ieee80211_find_conn>:
    cc04:	27bdffd0 	addiu	sp,sp,-48
    cc08:	afb60028 	sw	s6,40(sp)
    cc0c:	afb50024 	sw	s5,36(sp)
    cc10:	afbf002c 	sw	ra,44(sp)
    cc14:	afb40020 	sw	s4,32(sp)
    cc18:	afb3001c 	sw	s3,28(sp)
    cc1c:	afb20018 	sw	s2,24(sp)
    cc20:	afb10014 	sw	s1,20(sp)
    cc24:	afb00010 	sw	s0,16(sp)
    cc28:	9083009d 	lbu	v1,157(a0)
    cc2c:	24020010 	li	v0,16
    cc30:	0080b021 	move	s6,a0
    cc34:	1062000c 	beq	v1,v0,cc68 <ieee80211_find_conn+0x64>
    cc38:	00a0a821 	move	s5,a1
    cc3c:	8fbf002c 	lw	ra,44(sp)
    cc40:	8fb60028 	lw	s6,40(sp)
    cc44:	8fb50024 	lw	s5,36(sp)
    cc48:	8fb40020 	lw	s4,32(sp)
    cc4c:	8fb3001c 	lw	s3,28(sp)
    cc50:	8fb20018 	lw	s2,24(sp)
    cc54:	8fb10014 	lw	s1,20(sp)
    cc58:	8fb00010 	lw	s0,16(sp)
    cc5c:	00001021 	move	v0,zero
    cc60:	03e00008 	jr	ra
    cc64:	27bd0030 	addiu	sp,sp,48
    cc68:	3c020000 	lui	v0,0x0
			cc68: R_MIPS_HI16	memcmp
    cc6c:	24540000 	addiu	s4,v0,0
			cc6c: R_MIPS_LO16	memcmp
    cc70:	00008821 	move	s1,zero
    cc74:	24900cf6 	addiu	s0,a0,3318
    cc78:	08003322 	j	cc88 <ieee80211_find_conn+0x84>
			cc78: R_MIPS_26	.text
    cc7c:	24130008 	li	s3,8
    cc80:	1233ffef 	beq	s1,s3,cc40 <ieee80211_find_conn+0x3c>
    cc84:	8fbf002c 	lw	ra,44(sp)
    cc88:	02002821 	move	a1,s0
    cc8c:	02a02021 	move	a0,s5
    cc90:	24060006 	li	a2,6
    cc94:	323200ff 	andi	s2,s1,0xff
    cc98:	26100118 	addiu	s0,s0,280
    cc9c:	0280f809 	jalr	s4
    cca0:	26310001 	addiu	s1,s1,1
    cca4:	1440fff6 	bnez	v0,cc80 <ieee80211_find_conn+0x7c>
    cca8:	00122140 	sll	a0,s2,0x5
    ccac:	001218c0 	sll	v1,s2,0x3
    ccb0:	00641821 	addu	v1,v1,a0
    ccb4:	000310c0 	sll	v0,v1,0x3
    ccb8:	00431023 	subu	v0,v0,v1
    ccbc:	00561021 	addu	v0,v0,s6
    ccc0:	8fbf002c 	lw	ra,44(sp)
    ccc4:	8fb60028 	lw	s6,40(sp)
    ccc8:	8fb50024 	lw	s5,36(sp)
    cccc:	8fb40020 	lw	s4,32(sp)
    ccd0:	8fb3001c 	lw	s3,28(sp)
    ccd4:	8fb20018 	lw	s2,24(sp)
    ccd8:	8fb10014 	lw	s1,20(sp)
    ccdc:	8fb00010 	lw	s0,16(sp)
    cce0:	24420cf4 	addiu	v0,v0,3316
    cce4:	03e00008 	jr	ra
    cce8:	27bd0030 	addiu	sp,sp,48

0000ccec <ar6000_ap_mode_get_wpa_ie>:
    ccec:	27bdffd8 	addiu	sp,sp,-40
    ccf0:	afb20018 	sw	s2,24(sp)
    ccf4:	3c020000 	lui	v0,0x0
			ccf4: R_MIPS_HI16	ieee80211_find_conn
    ccf8:	00a09021 	move	s2,a1
    ccfc:	afbf0020 	sw	ra,32(sp)
    cd00:	afb3001c 	sw	s3,28(sp)
    cd04:	afb10014 	sw	s1,20(sp)
    cd08:	afb00010 	sw	s0,16(sp)
    cd0c:	26510006 	addiu	s1,s2,6
    cd10:	24420000 	addiu	v0,v0,0
			cd10: R_MIPS_LO16	ieee80211_find_conn
    cd14:	0040f809 	jalr	v0
    cd18:	3c100000 	lui	s0,0x0
			cd18: R_MIPS_HI16	memset
    cd1c:	26100000 	addiu	s0,s0,0
			cd1c: R_MIPS_LO16	memset
    cd20:	02202021 	move	a0,s1
    cd24:	00002821 	move	a1,zero
    cd28:	24060100 	li	a2,256
    cd2c:	0200f809 	jalr	s0
    cd30:	00409821 	move	s3,v0
    cd34:	26440106 	addiu	a0,s2,262
    cd38:	00002821 	move	a1,zero
    cd3c:	0200f809 	jalr	s0
    cd40:	24060100 	li	a2,256
    cd44:	02202021 	move	a0,s1
    cd48:	26650009 	addiu	a1,s3,9
    cd4c:	12600005 	beqz	s3,cd64 <ar6000_ap_mode_get_wpa_ie+0x78>
    cd50:	24060100 	li	a2,256
    cd54:	3c020000 	lui	v0,0x0
			cd54: R_MIPS_HI16	memcpy
    cd58:	24420000 	addiu	v0,v0,0
			cd58: R_MIPS_LO16	memcpy
    cd5c:	0040f809 	jalr	v0
    cd60:	00000000 	nop
    cd64:	8fbf0020 	lw	ra,32(sp)
    cd68:	8fb3001c 	lw	s3,28(sp)
    cd6c:	8fb20018 	lw	s2,24(sp)
    cd70:	8fb10014 	lw	s1,20(sp)
    cd74:	8fb00010 	lw	s0,16(sp)
    cd78:	00001021 	move	v0,zero
    cd7c:	03e00008 	jr	ra
    cd80:	27bd0028 	addiu	sp,sp,40

0000cd84 <ar6000_ibss_map_epid>:
    cd84:	27bdffc8 	addiu	sp,sp,-56
    cd88:	afb7002c 	sw	s7,44(sp)
    cd8c:	afbf0034 	sw	ra,52(sp)
    cd90:	afbe0030 	sw	s8,48(sp)
    cd94:	afb60028 	sw	s6,40(sp)
    cd98:	afb50024 	sw	s5,36(sp)
    cd9c:	afb40020 	sw	s4,32(sp)
    cda0:	afb3001c 	sw	s3,28(sp)
    cda4:	afb20018 	sw	s2,24(sp)
    cda8:	afb10014 	sw	s1,20(sp)
    cdac:	afb00010 	sw	s0,16(sp)
    cdb0:	afa60040 	sw	a2,64(sp)
    cdb4:	3c020000 	lui	v0,0x0
			cdb4: R_MIPS_HI16	a_netbuf_to_data
    cdb8:	8cb40194 	lw	s4,404(a1)
    cdbc:	24420000 	addiu	v0,v0,0
			cdbc: R_MIPS_LO16	a_netbuf_to_data
    cdc0:	0040f809 	jalr	v0
    cdc4:	acc00000 	sw	zero,0(a2)
    cdc8:	90430004 	lbu	v1,4(v0)
    cdcc:	30630001 	andi	v1,v1,0x1
    cdd0:	1460004e 	bnez	v1,cf0c <ar6000_ibss_map_epid+0x188>
    cdd4:	24570004 	addiu	s7,v0,4
    cdd8:	928204c9 	lbu	v0,1225(s4)
    cddc:	10400093 	beqz	v0,d02c <ar6000_ibss_map_epid+0x2a8>
    cde0:	3c020000 	lui	v0,0x0
			cde0: R_MIPS_HI16	memcmp
    cde4:	245e0000 	addiu	s8,v0,0
			cde4: R_MIPS_LO16	memcmp
    cde8:	02808821 	move	s1,s4
    cdec:	2415ffff 	li	s5,-1
    cdf0:	00009021 	move	s2,zero
    cdf4:	2416ffff 	li	s6,-1
    cdf8:	08003386 	j	ce18 <ar6000_ibss_map_epid+0x94>
			cdf8: R_MIPS_26	.text
    cdfc:	26900450 	addiu	s0,s4,1104
    ce00:	928304c9 	lbu	v1,1225(s4)
    ce04:	26520001 	addiu	s2,s2,1
    ce08:	0243102b 	sltu	v0,s2,v1
    ce0c:	26100008 	addiu	s0,s0,8
    ce10:	10400012 	beqz	v0,ce5c <ar6000_ibss_map_epid+0xd8>
    ce14:	26310008 	addiu	s1,s1,8
    ce18:	02e02021 	move	a0,s7
    ce1c:	02002821 	move	a1,s0
    ce20:	24060006 	li	a2,6
    ce24:	03c0f809 	jalr	s8
    ce28:	001298c0 	sll	s3,s2,0x3
    ce2c:	10400045 	beqz	v0,cf44 <ar6000_ibss_map_epid+0x1c0>
    ce30:	8fa30040 	lw	v1,64(sp)
    ce34:	16b6fff2 	bne	s5,s6,ce00 <ar6000_ibss_map_epid+0x7c>
    ce38:	00000000 	nop
    ce3c:	92220457 	lbu	v0,1111(s1)
    ce40:	928304c9 	lbu	v1,1225(s4)
    ce44:	0242a80a 	movz	s5,s2,v0
    ce48:	26520001 	addiu	s2,s2,1
    ce4c:	0243102b 	sltu	v0,s2,v1
    ce50:	26100008 	addiu	s0,s0,8
    ce54:	1440fff0 	bnez	v0,ce18 <ar6000_ibss_map_epid+0x94>
    ce58:	26310008 	addiu	s1,s1,8
    ce5c:	2402ffff 	li	v0,-1
    ce60:	12a2005f 	beq	s5,v0,cfe0 <ar6000_ibss_map_epid+0x25c>
    ce64:	24620001 	addiu	v0,v1,1
    ce68:	001580c0 	sll	s0,s5,0x3
    ce6c:	26040450 	addiu	a0,s0,1104
    ce70:	3c020000 	lui	v0,0x0
			ce70: R_MIPS_HI16	memcpy
    ce74:	02842021 	addu	a0,s4,a0
    ce78:	02e02821 	move	a1,s7
    ce7c:	24420000 	addiu	v0,v0,0
			ce7c: R_MIPS_LO16	memcpy
    ce80:	0040f809 	jalr	v0
    ce84:	24060006 	li	a2,6
    ce88:	02801821 	move	v1,s4
    ce8c:	24040002 	li	a0,2
    ce90:	24060005 	li	a2,5
    ce94:	02143821 	addu	a3,s0,s4
    ce98:	24050006 	li	a1,6
    ce9c:	8c620010 	lw	v0,16(v1)
    cea0:	1040005f 	beqz	v0,d020 <ar6000_ibss_map_epid+0x29c>
    cea4:	00000000 	nop
    cea8:	1086003a 	beq	a0,a2,cf94 <ar6000_ibss_map_epid+0x210>
    ceac:	24840001 	addiu	a0,a0,1
    ceb0:	1485fffa 	bne	a0,a1,ce9c <ar6000_ibss_map_epid+0x118>
    ceb4:	24630004 	addiu	v1,v1,4
    ceb8:	8fa30040 	lw	v1,64(sp)
    cebc:	26a20001 	addiu	v0,s5,1
    cec0:	ac620000 	sw	v0,0(v1)
    cec4:	02141821 	addu	v1,s0,s4
    cec8:	90620457 	lbu	v0,1111(v1)
    cecc:	90640456 	lbu	a0,1110(v1)
    ced0:	24420001 	addiu	v0,v0,1
    ced4:	a0620457 	sb	v0,1111(v1)
    ced8:	8fbf0034 	lw	ra,52(sp)
    cedc:	8fbe0030 	lw	s8,48(sp)
    cee0:	8fb7002c 	lw	s7,44(sp)
    cee4:	8fb60028 	lw	s6,40(sp)
    cee8:	8fb50024 	lw	s5,36(sp)
    ceec:	8fb40020 	lw	s4,32(sp)
    cef0:	8fb3001c 	lw	s3,28(sp)
    cef4:	8fb20018 	lw	s2,24(sp)
    cef8:	8fb10014 	lw	s1,20(sp)
    cefc:	8fb00010 	lw	s0,16(sp)
    cf00:	00801021 	move	v0,a0
    cf04:	03e00008 	jr	ra
    cf08:	27bd0038 	addiu	sp,sp,56
    cf0c:	24040002 	li	a0,2
    cf10:	8fbf0034 	lw	ra,52(sp)
    cf14:	8fbe0030 	lw	s8,48(sp)
    cf18:	8fb7002c 	lw	s7,44(sp)
    cf1c:	8fb60028 	lw	s6,40(sp)
    cf20:	8fb50024 	lw	s5,36(sp)
    cf24:	8fb40020 	lw	s4,32(sp)
    cf28:	8fb3001c 	lw	s3,28(sp)
    cf2c:	8fb20018 	lw	s2,24(sp)
    cf30:	8fb10014 	lw	s1,20(sp)
    cf34:	8fb00010 	lw	s0,16(sp)
    cf38:	00801021 	move	v0,a0
    cf3c:	03e00008 	jr	ra
    cf40:	27bd0038 	addiu	sp,sp,56
    cf44:	26420001 	addiu	v0,s2,1
    cf48:	ac620000 	sw	v0,0(v1)
    cf4c:	02741821 	addu	v1,s3,s4
    cf50:	90620457 	lbu	v0,1111(v1)
    cf54:	90640456 	lbu	a0,1110(v1)
    cf58:	24420001 	addiu	v0,v0,1
    cf5c:	a0620457 	sb	v0,1111(v1)
    cf60:	8fbf0034 	lw	ra,52(sp)
    cf64:	8fbe0030 	lw	s8,48(sp)
    cf68:	8fb7002c 	lw	s7,44(sp)
    cf6c:	8fb60028 	lw	s6,40(sp)
    cf70:	8fb50024 	lw	s5,36(sp)
    cf74:	8fb40020 	lw	s4,32(sp)
    cf78:	8fb3001c 	lw	s3,28(sp)
    cf7c:	8fb20018 	lw	s2,24(sp)
    cf80:	8fb10014 	lw	s1,20(sp)
    cf84:	8fb00010 	lw	s0,16(sp)
    cf88:	00801021 	move	v0,a0
    cf8c:	03e00008 	jr	ra
    cf90:	27bd0038 	addiu	sp,sp,56
    cf94:	928204ca 	lbu	v0,1226(s4)
    cf98:	a0e20456 	sb	v0,1110(a3)
    cf9c:	928304ca 	lbu	v1,1226(s4)
    cfa0:	24630001 	addiu	v1,v1,1
    cfa4:	306300ff 	andi	v1,v1,0xff
    cfa8:	2c620006 	sltiu	v0,v1,6
    cfac:	1440ffc2 	bnez	v0,ceb8 <ar6000_ibss_map_epid+0x134>
    cfb0:	a28304ca 	sb	v1,1226(s4)
    cfb4:	24020002 	li	v0,2
    cfb8:	a28204ca 	sb	v0,1226(s4)
    cfbc:	8fa30040 	lw	v1,64(sp)
    cfc0:	26a20001 	addiu	v0,s5,1
    cfc4:	ac620000 	sw	v0,0(v1)
    cfc8:	02141821 	addu	v1,s0,s4
    cfcc:	90620457 	lbu	v0,1111(v1)
    cfd0:	90640456 	lbu	a0,1110(v1)
    cfd4:	24420001 	addiu	v0,v0,1
    cfd8:	080033b6 	j	ced8 <ar6000_ibss_map_epid+0x154>
			cfd8: R_MIPS_26	.text
    cfdc:	a0620457 	sb	v0,1111(v1)
    cfe0:	304200ff 	andi	v0,v0,0xff
    cfe4:	0060a821 	move	s5,v1
    cfe8:	2c430010 	sltiu	v1,v0,16
    cfec:	1460ff9e 	bnez	v1,ce68 <ar6000_ibss_map_epid+0xe4>
    cff0:	a28204c9 	sb	v0,1225(s4)
    cff4:	3c040000 	lui	a0,0x0
			cff4: R_MIPS_HI16	$LC91
    cff8:	3c020000 	lui	v0,0x0
			cff8: R_MIPS_HI16	printk
    cffc:	24840000 	addiu	a0,a0,0
			cffc: R_MIPS_LO16	$LC91
    d000:	24420000 	addiu	v0,v0,0
			d000: R_MIPS_LO16	printk
    d004:	0040f809 	jalr	v0
    d008:	24050856 	li	a1,2134
    d00c:	3c040000 	lui	a0,0x0
			d00c: R_MIPS_HI16	$LC92
    d010:	3c020000 	lui	v0,0x0
			d010: R_MIPS_HI16	panic
    d014:	24420000 	addiu	v0,v0,0
			d014: R_MIPS_LO16	panic
    d018:	0040f809 	jalr	v0
    d01c:	24840000 	addiu	a0,a0,0
			d01c: R_MIPS_LO16	$LC92
    d020:	02141021 	addu	v0,s0,s4
    d024:	080033ae 	j	ceb8 <ar6000_ibss_map_epid+0x134>
			d024: R_MIPS_26	.text
    d028:	a0440456 	sb	a0,1110(v0)
    d02c:	24020001 	li	v0,1
    d030:	0000a821 	move	s5,zero
    d034:	0800339a 	j	ce68 <ar6000_ibss_map_epid+0xe4>
			d034: R_MIPS_26	.text
    d038:	a28204c9 	sb	v0,1225(s4)

0000d03c <ar6000_data_tx>:
    d03c:	27bdffc0 	addiu	sp,sp,-64
    d040:	afbe0038 	sw	s8,56(sp)
    d044:	afb60030 	sw	s6,48(sp)
    d048:	afb30024 	sw	s3,36(sp)
    d04c:	afbf003c 	sw	ra,60(sp)
    d050:	afb70034 	sw	s7,52(sp)
    d054:	afb5002c 	sw	s5,44(sp)
    d058:	afb40028 	sw	s4,40(sp)
    d05c:	afb20020 	sw	s2,32(sp)
    d060:	afb1001c 	sw	s1,28(sp)
    d064:	afb00018 	sw	s0,24(sp)
    d068:	3c160000 	lui	s6,0x0
			d068: R_MIPS_HI16	debugdriver
    d06c:	8ec20000 	lw	v0,0(s6)
			d06c: R_MIPS_LO16	debugdriver
    d070:	afa00010 	sw	zero,16(sp)
    d074:	28420002 	slti	v0,v0,2
    d078:	00a0f021 	move	s8,a1
    d07c:	00809821 	move	s3,a0
    d080:	14400012 	bnez	v0,d0cc <ar6000_data_tx+0x90>
    d084:	8cb20194 	lw	s2,404(a1)
    d088:	3c020000 	lui	v0,0x0
			d088: R_MIPS_HI16	a_netbuf_to_data
    d08c:	24420000 	addiu	v0,v0,0
			d08c: R_MIPS_LO16	a_netbuf_to_data
    d090:	0040f809 	jalr	v0
    d094:	00000000 	nop
    d098:	00408021 	move	s0,v0
    d09c:	3c020000 	lui	v0,0x0
			d09c: R_MIPS_HI16	a_netbuf_to_len
    d0a0:	24420000 	addiu	v0,v0,0
			d0a0: R_MIPS_LO16	a_netbuf_to_len
    d0a4:	0040f809 	jalr	v0
    d0a8:	02602021 	move	a0,s3
    d0ac:	00403821 	move	a3,v0
    d0b0:	3c040000 	lui	a0,0x0
			d0b0: R_MIPS_HI16	$LC93
    d0b4:	3c020000 	lui	v0,0x0
			d0b4: R_MIPS_HI16	printk
    d0b8:	24840000 	addiu	a0,a0,0
			d0b8: R_MIPS_LO16	$LC93
    d0bc:	02003021 	move	a2,s0
    d0c0:	24420000 	addiu	v0,v0,0
			d0c0: R_MIPS_LO16	printk
    d0c4:	0040f809 	jalr	v0
    d0c8:	02602821 	move	a1,s3
    d0cc:	8e42003c 	lw	v0,60(s2)
    d0d0:	14400015 	bnez	v0,d128 <ar6000_data_tx+0xec>
    d0d4:	3c020000 	lui	v0,0x0
			d0d4: R_MIPS_HI16	bypasswmi
    d0d8:	8c430000 	lw	v1,0(v0)
			d0d8: R_MIPS_LO16	bypasswmi
    d0dc:	14600012 	bnez	v1,d128 <ar6000_data_tx+0xec>
    d0e0:	00000000 	nop
    d0e4:	3c020000 	lui	v0,0x0
			d0e4: R_MIPS_HI16	a_netbuf_free
    d0e8:	24420000 	addiu	v0,v0,0
			d0e8: R_MIPS_LO16	a_netbuf_free
    d0ec:	0040f809 	jalr	v0
    d0f0:	02602021 	move	a0,s3
    d0f4:	8fbf003c 	lw	ra,60(sp)
    d0f8:	8fbe0038 	lw	s8,56(sp)
    d0fc:	8fb70034 	lw	s7,52(sp)
    d100:	8fb60030 	lw	s6,48(sp)
    d104:	8fb5002c 	lw	s5,44(sp)
    d108:	8fb40028 	lw	s4,40(sp)
    d10c:	8fb30024 	lw	s3,36(sp)
    d110:	8fb20020 	lw	s2,32(sp)
    d114:	8fb1001c 	lw	s1,28(sp)
    d118:	8fb00018 	lw	s0,24(sp)
    d11c:	00001021 	move	v0,zero
    d120:	03e00008 	jr	ra
    d124:	27bd0040 	addiu	sp,sp,64
    d128:	8e430440 	lw	v1,1088(s2)
    d12c:	24020002 	li	v0,2
    d130:	1062ffed 	beq	v1,v0,d0e8 <ar6000_data_tx+0xac>
    d134:	3c020000 	lui	v0,0x0
			d134: R_MIPS_HI16	a_netbuf_free
    d138:	8e420038 	lw	v0,56(s2)
    d13c:	1040006a 	beqz	v0,d2e8 <ar6000_data_tx+0x2ac>
    d140:	3c020000 	lui	v0,0x0
			d140: R_MIPS_HI16	bypasswmi
    d144:	9243009d 	lbu	v1,157(s2)
    d148:	24020010 	li	v0,16
    d14c:	1062009c 	beq	v1,v0,d3c0 <ar6000_data_tx+0x384>
    d150:	3c020000 	lui	v0,0x0
			d150: R_MIPS_HI16	a_netbuf_to_data
    d154:	0000b821 	move	s7,zero
    d158:	8e420034 	lw	v0,52(s2)
    d15c:	1440007c 	bnez	v0,d350 <ar6000_data_tx+0x314>
    d160:	3c020000 	lui	v0,0x0
			d160: R_MIPS_HI16	a_netbuf_headroom
    d164:	3c020000 	lui	v0,0x0
			d164: R_MIPS_HI16	a_netbuf_to_data
    d168:	24420000 	addiu	v0,v0,0
			d168: R_MIPS_LO16	a_netbuf_to_data
    d16c:	0040f809 	jalr	v0
    d170:	02602021 	move	a0,s3
    d174:	9043000f 	lbu	v1,15(v0)
    d178:	00031842 	srl	v1,v1,0x1
    d17c:	30700003 	andi	s0,v1,0x3
    d180:	24020063 	li	v0,99
    d184:	1202005b 	beq	s0,v0,d2f4 <ar6000_data_tx+0x2b8>
    d188:	00008821 	move	s1,zero
    d18c:	40026000 	mfc0	v0,c0_status
    d190:	30420001 	andi	v0,v0,0x1
    d194:	14400005 	bnez	v0,d1ac <ar6000_data_tx+0x170>
    d198:	3c020000 	lui	v0,0x0
			d198: R_MIPS_HI16	local_bh_disable
    d19c:	8ec20000 	lw	v0,0(s6)
			d19c: R_MIPS_LO16	debugdriver
    d1a0:	1440015a 	bnez	v0,d70c <ar6000_data_tx+0x6d0>
    d1a4:	3c040000 	lui	a0,0x0
			d1a4: R_MIPS_HI16	$LC97
    d1a8:	3c020000 	lui	v0,0x0
			d1a8: R_MIPS_HI16	local_bh_disable
    d1ac:	24420000 	addiu	v0,v0,0
			d1ac: R_MIPS_LO16	local_bh_disable
    d1b0:	0040f809 	jalr	v0
    d1b4:	00000000 	nop
    d1b8:	8f820014 	lw	v0,20(gp)
    d1bc:	24420001 	addiu	v0,v0,1
    d1c0:	af820014 	sw	v0,20(gp)
    d1c4:	162000f7 	bnez	s1,d5a4 <ar6000_data_tx+0x568>
    d1c8:	00101080 	sll	v0,s0,0x2
    d1cc:	00521021 	addu	v0,v0,s2
    d1d0:	8c510510 	lw	s1,1296(v0)
    d1d4:	26220001 	addiu	v0,s1,1
    d1d8:	2c420002 	sltiu	v0,v0,2
    d1dc:	144000c9 	bnez	v0,d504 <ar6000_data_tx+0x4c8>
    d1e0:	3c020001 	lui	v0,0x1
			d1e0: R_MIPS_HI16	.text
    d1e4:	2442a084 	addiu	v0,v0,-24444
			d1e4: R_MIPS_LO16	.text
    d1e8:	0040f809 	jalr	v0
    d1ec:	02402021 	move	a0,s2
    d1f0:	10400009 	beqz	v0,d218 <ar6000_data_tx+0x1dc>
    d1f4:	00408021 	move	s0,v0
    d1f8:	00111080 	sll	v0,s1,0x2
    d1fc:	00521021 	addu	v0,v0,s2
    d200:	8c430008 	lw	v1,8(v0)
    d204:	8e44002c 	lw	a0,44(s2)
    d208:	24630001 	addiu	v1,v1,1
    d20c:	24840001 	addiu	a0,a0,1
    d210:	ac430008 	sw	v1,8(v0)
    d214:	ae44002c 	sw	a0,44(s2)
    d218:	40026000 	mfc0	v0,c0_status
    d21c:	30420001 	andi	v0,v0,0x1
    d220:	14400003 	bnez	v0,d230 <ar6000_data_tx+0x1f4>
    d224:	8ec20000 	lw	v0,0(s6)
			d224: R_MIPS_LO16	debugdriver
    d228:	1440013e 	bnez	v0,d724 <ar6000_data_tx+0x6e8>
    d22c:	3c040000 	lui	a0,0x0
			d22c: R_MIPS_HI16	$LC99
    d230:	8f830014 	lw	v1,20(gp)
    d234:	3c040000 	lui	a0,0x0
			d234: R_MIPS_HI16	local_bh_enable
    d238:	2463ffff 	addiu	v1,v1,-1
    d23c:	24840000 	addiu	a0,a0,0
			d23c: R_MIPS_LO16	local_bh_enable
    d240:	0080f809 	jalr	a0
    d244:	af830014 	sw	v1,20(gp)
    d248:	1200002a 	beqz	s0,d2f4 <ar6000_data_tx+0x2b8>
    d24c:	02602021 	move	a0,s3
    d250:	ae130000 	sw	s3,0(s0)
    d254:	8fa20010 	lw	v0,16(sp)
    d258:	ae020004 	sw	v0,4(s0)
    d25c:	3c020000 	lui	v0,0x0
			d25c: R_MIPS_HI16	a_netbuf_to_data
    d260:	24420000 	addiu	v0,v0,0
			d260: R_MIPS_LO16	a_netbuf_to_data
    d264:	0040f809 	jalr	v0
    d268:	ae100010 	sw	s0,16(s0)
    d26c:	ae020018 	sw	v0,24(s0)
    d270:	3c020000 	lui	v0,0x0
			d270: R_MIPS_HI16	a_netbuf_to_len
    d274:	24420000 	addiu	v0,v0,0
			d274: R_MIPS_LO16	a_netbuf_to_len
    d278:	0040f809 	jalr	v0
    d27c:	02602021 	move	a0,s3
    d280:	2403000b 	li	v1,11
    d284:	ae020020 	sw	v0,32(s0)
    d288:	ae110024 	sw	s1,36(s0)
    d28c:	a603002c 	sh	v1,44(s0)
    d290:	8ec20000 	lw	v0,0(s6)
			d290: R_MIPS_LO16	debugdriver
    d294:	28420003 	slti	v0,v0,3
    d298:	1040010e 	beqz	v0,d6d4 <ar6000_data_tx+0x698>
    d29c:	3c020001 	lui	v0,0x1
			d29c: R_MIPS_HI16	.text
    d2a0:	8e440040 	lw	a0,64(s2)
    d2a4:	3c020000 	lui	v0,0x0
			d2a4: R_MIPS_HI16	HTCSendPkt
    d2a8:	24420000 	addiu	v0,v0,0
			d2a8: R_MIPS_LO16	HTCSendPkt
    d2ac:	0040f809 	jalr	v0
    d2b0:	26050008 	addiu	a1,s0,8
    d2b4:	8fbf003c 	lw	ra,60(sp)
    d2b8:	8fbe0038 	lw	s8,56(sp)
    d2bc:	8fb70034 	lw	s7,52(sp)
    d2c0:	8fb60030 	lw	s6,48(sp)
    d2c4:	8fb5002c 	lw	s5,44(sp)
    d2c8:	8fb40028 	lw	s4,40(sp)
    d2cc:	8fb30024 	lw	s3,36(sp)
    d2d0:	8fb20020 	lw	s2,32(sp)
    d2d4:	8fb1001c 	lw	s1,28(sp)
    d2d8:	8fb00018 	lw	s0,24(sp)
    d2dc:	00001021 	move	v0,zero
    d2e0:	03e00008 	jr	ra
    d2e4:	27bd0040 	addiu	sp,sp,64
    d2e8:	8c430000 	lw	v1,0(v0)
			d2e8: R_MIPS_LO16	bypasswmi
    d2ec:	1460ff95 	bnez	v1,d144 <ar6000_data_tx+0x108>
    d2f0:	00000000 	nop
    d2f4:	3c020000 	lui	v0,0x0
			d2f4: R_MIPS_HI16	a_netbuf_free
    d2f8:	24420000 	addiu	v0,v0,0
			d2f8: R_MIPS_LO16	a_netbuf_free
    d2fc:	0040f809 	jalr	v0
    d300:	02602021 	move	a0,s3
    d304:	8e4301f8 	lw	v1,504(s2)
    d308:	8e42021c 	lw	v0,540(s2)
    d30c:	24630001 	addiu	v1,v1,1
    d310:	24420001 	addiu	v0,v0,1
    d314:	ae42021c 	sw	v0,540(s2)
    d318:	ae4301f8 	sw	v1,504(s2)
    d31c:	8fbf003c 	lw	ra,60(sp)
    d320:	8fbe0038 	lw	s8,56(sp)
    d324:	8fb70034 	lw	s7,52(sp)
    d328:	8fb60030 	lw	s6,48(sp)
    d32c:	8fb5002c 	lw	s5,44(sp)
    d330:	8fb40028 	lw	s4,40(sp)
    d334:	8fb30024 	lw	s3,36(sp)
    d338:	8fb20020 	lw	s2,32(sp)
    d33c:	8fb1001c 	lw	s1,28(sp)
    d340:	8fb00018 	lw	s0,24(sp)
    d344:	00001021 	move	v0,zero
    d348:	03e00008 	jr	ra
    d34c:	27bd0040 	addiu	sp,sp,64
    d350:	24420000 	addiu	v0,v0,0
			d350: R_MIPS_LO16	a_netbuf_headroom
    d354:	0040f809 	jalr	v0
    d358:	02602021 	move	a0,s3
    d35c:	97c300ce 	lhu	v1,206(s8)
    d360:	0043102a 	slt	v0,v0,v1
    d364:	1440006c 	bnez	v0,d518 <ar6000_data_tx+0x4dc>
    d368:	3c020000 	lui	v0,0x0
			d368: R_MIPS_HI16	a_netbuf_to_len
    d36c:	3c020000 	lui	v0,0x0
			d36c: R_MIPS_HI16	processDot11Hdr
    d370:	8c430000 	lw	v1,0(v0)
			d370: R_MIPS_LO16	processDot11Hdr
    d374:	10600048 	beqz	v1,d498 <ar6000_data_tx+0x45c>
    d378:	3c020000 	lui	v0,0x0
			d378: R_MIPS_HI16	wmi_dix_2_dot3
    d37c:	3c020000 	lui	v0,0x0
			d37c: R_MIPS_HI16	wmi_dot11_hdr_add
    d380:	8e440004 	lw	a0,4(s2)
    d384:	9246009d 	lbu	a2,157(s2)
    d388:	24420000 	addiu	v0,v0,0
			d388: R_MIPS_LO16	wmi_dot11_hdr_add
    d38c:	0040f809 	jalr	v0
    d390:	02602821 	move	a1,s3
    d394:	10400047 	beqz	v0,d4b4 <ar6000_data_tx+0x478>
    d398:	3c020000 	lui	v0,0x0
			d398: R_MIPS_HI16	wmi_data_hdr_add
    d39c:	8ec20000 	lw	v0,0(s6)
			d39c: R_MIPS_LO16	debugdriver
    d3a0:	1040ffd4 	beqz	v0,d2f4 <ar6000_data_tx+0x2b8>
    d3a4:	3c040000 	lui	a0,0x0
			d3a4: R_MIPS_HI16	$LC94
    d3a8:	3c020000 	lui	v0,0x0
			d3a8: R_MIPS_HI16	printk
    d3ac:	24420000 	addiu	v0,v0,0
			d3ac: R_MIPS_LO16	printk
    d3b0:	0040f809 	jalr	v0
    d3b4:	24840000 	addiu	a0,a0,0
			d3b4: R_MIPS_LO16	$LC94
    d3b8:	080034be 	j	d2f8 <ar6000_data_tx+0x2bc>
			d3b8: R_MIPS_26	.text
    d3bc:	3c020000 	lui	v0,0x0
			d3bc: R_MIPS_HI16	a_netbuf_free
    d3c0:	24420000 	addiu	v0,v0,0
			d3c0: R_MIPS_LO16	a_netbuf_to_data
    d3c4:	0040f809 	jalr	v0
    d3c8:	02602021 	move	a0,s3
    d3cc:	00402821 	move	a1,v0
    d3d0:	90420000 	lbu	v0,0(v0)
    d3d4:	30420001 	andi	v0,v0,0x1
    d3d8:	10400091 	beqz	v0,d620 <ar6000_data_tx+0x5e4>
    d3dc:	00002021 	move	a0,zero
    d3e0:	00002821 	move	a1,zero
    d3e4:	240608c0 	li	a2,2240
    d3e8:	00921021 	addu	v0,a0,s2
    d3ec:	94430cf4 	lhu	v1,3316(v0)
    d3f0:	24840118 	addiu	a0,a0,280
    d3f4:	30630001 	andi	v1,v1,0x1
    d3f8:	24020001 	li	v0,1
    d3fc:	1486fffa 	bne	a0,a2,d3e8 <ar6000_data_tx+0x3ac>
    d400:	0043280b 	movn	a1,v0,v1
    d404:	10a0ff54 	beqz	a1,d158 <ar6000_data_tx+0x11c>
    d408:	0000b821 	move	s7,zero
    d40c:	8e421604 	lw	v0,5636(s2)
    d410:	144000ca 	bnez	v0,d73c <ar6000_data_tx+0x700>
    d414:	3c020000 	lui	v0,0x0
			d414: R_MIPS_HI16	local_bh_disable
    d418:	24420000 	addiu	v0,v0,0
			d418: R_MIPS_LO16	local_bh_disable
    d41c:	0040f809 	jalr	v0
    d420:	00000000 	nop
    d424:	8f820014 	lw	v0,20(gp)
    d428:	24420001 	addiu	v0,v0,1
    d42c:	af820014 	sw	v0,20(gp)
    d430:	3c020000 	lui	v0,0x0
			d430: R_MIPS_HI16	a_netbuf_queue_empty
    d434:	265015f8 	addiu	s0,s2,5624
    d438:	24420000 	addiu	v0,v0,0
			d438: R_MIPS_LO16	a_netbuf_queue_empty
    d43c:	0040f809 	jalr	v0
    d440:	02002021 	move	a0,s0
    d444:	00408821 	move	s1,v0
    d448:	3c020000 	lui	v0,0x0
			d448: R_MIPS_HI16	a_netbuf_enqueue
    d44c:	02002021 	move	a0,s0
    d450:	24420000 	addiu	v0,v0,0
			d450: R_MIPS_LO16	a_netbuf_enqueue
    d454:	0040f809 	jalr	v0
    d458:	02602821 	move	a1,s3
    d45c:	8f820014 	lw	v0,20(gp)
    d460:	3c030000 	lui	v1,0x0
			d460: R_MIPS_HI16	local_bh_enable
    d464:	2442ffff 	addiu	v0,v0,-1
    d468:	24630000 	addiu	v1,v1,0
			d468: R_MIPS_LO16	local_bh_enable
    d46c:	0060f809 	jalr	v1
    d470:	af820014 	sw	v0,20(gp)
    d474:	1220ff1f 	beqz	s1,d0f4 <ar6000_data_tx+0xb8>
    d478:	3c020000 	lui	v0,0x0
			d478: R_MIPS_HI16	wmi_set_pvb_cmd
    d47c:	8e440004 	lw	a0,4(s2)
    d480:	240500ff 	li	a1,255
    d484:	24420000 	addiu	v0,v0,0
			d484: R_MIPS_LO16	wmi_set_pvb_cmd
    d488:	0040f809 	jalr	v0
    d48c:	24060001 	li	a2,1
    d490:	0800343e 	j	d0f8 <ar6000_data_tx+0xbc>
			d490: R_MIPS_26	.text
    d494:	8fbf003c 	lw	ra,60(sp)
    d498:	8e440004 	lw	a0,4(s2)
    d49c:	24420000 	addiu	v0,v0,0
			d49c: R_MIPS_LO16	wmi_dix_2_dot3
    d4a0:	0040f809 	jalr	v0
    d4a4:	02602821 	move	a1,s3
    d4a8:	14400046 	bnez	v0,d5c4 <ar6000_data_tx+0x588>
    d4ac:	8ec20000 	lw	v0,0(s6)
			d4ac: R_MIPS_LO16	debugdriver
    d4b0:	3c020000 	lui	v0,0x0
			d4b0: R_MIPS_HI16	wmi_data_hdr_add
    d4b4:	8e440004 	lw	a0,4(s2)
    d4b8:	02e03821 	move	a3,s7
    d4bc:	02602821 	move	a1,s3
    d4c0:	24420000 	addiu	v0,v0,0
			d4c0: R_MIPS_LO16	wmi_data_hdr_add
    d4c4:	0040f809 	jalr	v0
    d4c8:	00003021 	move	a2,zero
    d4cc:	14400045 	bnez	v0,d5e4 <ar6000_data_tx+0x5a8>
    d4d0:	8ec20000 	lw	v0,0(s6)
			d4d0: R_MIPS_LO16	debugdriver
    d4d4:	9243009d 	lbu	v1,157(s2)
    d4d8:	24020002 	li	v0,2
    d4dc:	14620082 	bne	v1,v0,d6e8 <ar6000_data_tx+0x6ac>
    d4e0:	00000000 	nop
    d4e4:	924204c8 	lbu	v0,1224(s2)
    d4e8:	1040007f 	beqz	v0,d6e8 <ar6000_data_tx+0x6ac>
    d4ec:	00000000 	nop
    d4f0:	8e42003c 	lw	v0,60(s2)
    d4f4:	1040007c 	beqz	v0,d6e8 <ar6000_data_tx+0x6ac>
    d4f8:	24110001 	li	s1,1
    d4fc:	08003463 	j	d18c <ar6000_data_tx+0x150>
			d4fc: R_MIPS_26	.text
    d500:	24100063 	li	s0,99
    d504:	8ec20000 	lw	v0,0(s6)
			d504: R_MIPS_LO16	debugdriver
    d508:	1440003e 	bnez	v0,d604 <ar6000_data_tx+0x5c8>
    d50c:	3c040000 	lui	a0,0x0
			d50c: R_MIPS_HI16	$LC98
    d510:	08003486 	j	d218 <ar6000_data_tx+0x1dc>
			d510: R_MIPS_26	.text
    d514:	00008021 	move	s0,zero
    d518:	24420000 	addiu	v0,v0,0
			d518: R_MIPS_LO16	a_netbuf_to_len
    d51c:	0040f809 	jalr	v0
    d520:	02602021 	move	a0,s3
    d524:	00402021 	move	a0,v0
    d528:	0040a821 	move	s5,v0
    d52c:	3c020000 	lui	v0,0x0
			d52c: R_MIPS_HI16	a_netbuf_alloc
    d530:	24420000 	addiu	v0,v0,0
			d530: R_MIPS_LO16	a_netbuf_alloc
    d534:	0040f809 	jalr	v0
    d538:	00000000 	nop
    d53c:	1040ff6d 	beqz	v0,d2f4 <ar6000_data_tx+0x2b8>
    d540:	0040a021 	move	s4,v0
    d544:	00402021 	move	a0,v0
    d548:	3c020000 	lui	v0,0x0
			d548: R_MIPS_HI16	a_netbuf_put
    d54c:	02a02821 	move	a1,s5
    d550:	24420000 	addiu	v0,v0,0
			d550: R_MIPS_LO16	a_netbuf_put
    d554:	0040f809 	jalr	v0
    d558:	3c100000 	lui	s0,0x0
			d558: R_MIPS_HI16	a_netbuf_to_data
    d55c:	26100000 	addiu	s0,s0,0
			d55c: R_MIPS_LO16	a_netbuf_to_data
    d560:	0200f809 	jalr	s0
    d564:	02802021 	move	a0,s4
    d568:	02602021 	move	a0,s3
    d56c:	0200f809 	jalr	s0
    d570:	00408821 	move	s1,v0
    d574:	00402821 	move	a1,v0
    d578:	3c020000 	lui	v0,0x0
			d578: R_MIPS_HI16	memcpy
    d57c:	02202021 	move	a0,s1
    d580:	24420000 	addiu	v0,v0,0
			d580: R_MIPS_LO16	memcpy
    d584:	0040f809 	jalr	v0
    d588:	02a03021 	move	a2,s5
    d58c:	3c020000 	lui	v0,0x0
			d58c: R_MIPS_HI16	a_netbuf_free
    d590:	24420000 	addiu	v0,v0,0
			d590: R_MIPS_LO16	a_netbuf_free
    d594:	0040f809 	jalr	v0
    d598:	02602021 	move	a0,s3
    d59c:	080034db 	j	d36c <ar6000_data_tx+0x330>
			d59c: R_MIPS_26	.text
    d5a0:	02809821 	move	s3,s4
    d5a4:	3c020000 	lui	v0,0x0
			d5a4: R_MIPS_HI16	ar6000_ibss_map_epid
    d5a8:	03c02821 	move	a1,s8
    d5ac:	02602021 	move	a0,s3
    d5b0:	24420000 	addiu	v0,v0,0
			d5b0: R_MIPS_LO16	ar6000_ibss_map_epid
    d5b4:	0040f809 	jalr	v0
    d5b8:	27a60010 	addiu	a2,sp,16
    d5bc:	08003475 	j	d1d4 <ar6000_data_tx+0x198>
			d5bc: R_MIPS_26	.text
    d5c0:	00408821 	move	s1,v0
    d5c4:	1040ff4b 	beqz	v0,d2f4 <ar6000_data_tx+0x2b8>
    d5c8:	3c040000 	lui	a0,0x0
			d5c8: R_MIPS_HI16	$LC95
    d5cc:	3c020000 	lui	v0,0x0
			d5cc: R_MIPS_HI16	printk
    d5d0:	24420000 	addiu	v0,v0,0
			d5d0: R_MIPS_LO16	printk
    d5d4:	0040f809 	jalr	v0
    d5d8:	24840000 	addiu	a0,a0,0
			d5d8: R_MIPS_LO16	$LC95
    d5dc:	080034be 	j	d2f8 <ar6000_data_tx+0x2bc>
			d5dc: R_MIPS_26	.text
    d5e0:	3c020000 	lui	v0,0x0
			d5e0: R_MIPS_HI16	a_netbuf_free
    d5e4:	1040ff43 	beqz	v0,d2f4 <ar6000_data_tx+0x2b8>
    d5e8:	3c040000 	lui	a0,0x0
			d5e8: R_MIPS_HI16	$LC96
    d5ec:	3c020000 	lui	v0,0x0
			d5ec: R_MIPS_HI16	printk
    d5f0:	24420000 	addiu	v0,v0,0
			d5f0: R_MIPS_LO16	printk
    d5f4:	0040f809 	jalr	v0
    d5f8:	24840000 	addiu	a0,a0,0
			d5f8: R_MIPS_LO16	$LC96
    d5fc:	080034be 	j	d2f8 <ar6000_data_tx+0x2bc>
			d5fc: R_MIPS_26	.text
    d600:	3c020000 	lui	v0,0x0
			d600: R_MIPS_HI16	a_netbuf_free
    d604:	3c020000 	lui	v0,0x0
			d604: R_MIPS_HI16	printk
    d608:	24840000 	addiu	a0,a0,0
			d608: R_MIPS_LO16	$LC98
    d60c:	24420000 	addiu	v0,v0,0
			d60c: R_MIPS_LO16	printk
    d610:	0040f809 	jalr	v0
    d614:	02202821 	move	a1,s1
    d618:	08003486 	j	d218 <ar6000_data_tx+0x1dc>
			d618: R_MIPS_26	.text
    d61c:	00008021 	move	s0,zero
    d620:	3c020000 	lui	v0,0x0
			d620: R_MIPS_HI16	ieee80211_find_conn
    d624:	24420000 	addiu	v0,v0,0
			d624: R_MIPS_LO16	ieee80211_find_conn
    d628:	0040f809 	jalr	v0
    d62c:	02402021 	move	a0,s2
    d630:	1040feac 	beqz	v0,d0e4 <ar6000_data_tx+0xa8>
    d634:	0040a021 	move	s4,v0
    d638:	94430000 	lhu	v1,0(v0)
    d63c:	30620001 	andi	v0,v1,0x1
    d640:	1040fec5 	beqz	v0,d158 <ar6000_data_tx+0x11c>
    d644:	0000b821 	move	s7,zero
    d648:	30620002 	andi	v0,v1,0x2
    d64c:	1440004e 	bnez	v0,d788 <ar6000_data_tx+0x74c>
    d650:	3c020000 	lui	v0,0x0
			d650: R_MIPS_HI16	local_bh_disable
    d654:	24420000 	addiu	v0,v0,0
			d654: R_MIPS_LO16	local_bh_disable
    d658:	0040f809 	jalr	v0
    d65c:	00000000 	nop
    d660:	8f820014 	lw	v0,20(gp)
    d664:	24420001 	addiu	v0,v0,1
    d668:	af820014 	sw	v0,20(gp)
    d66c:	3c020000 	lui	v0,0x0
			d66c: R_MIPS_HI16	a_netbuf_queue_empty
    d670:	2690010c 	addiu	s0,s4,268
    d674:	24420000 	addiu	v0,v0,0
			d674: R_MIPS_LO16	a_netbuf_queue_empty
    d678:	0040f809 	jalr	v0
    d67c:	02002021 	move	a0,s0
    d680:	00408821 	move	s1,v0
    d684:	3c020000 	lui	v0,0x0
			d684: R_MIPS_HI16	a_netbuf_enqueue
    d688:	02002021 	move	a0,s0
    d68c:	24420000 	addiu	v0,v0,0
			d68c: R_MIPS_LO16	a_netbuf_enqueue
    d690:	0040f809 	jalr	v0
    d694:	02602821 	move	a1,s3
    d698:	8f820014 	lw	v0,20(gp)
    d69c:	3c030000 	lui	v1,0x0
			d69c: R_MIPS_HI16	local_bh_enable
    d6a0:	2442ffff 	addiu	v0,v0,-1
    d6a4:	24630000 	addiu	v1,v1,0
			d6a4: R_MIPS_LO16	local_bh_enable
    d6a8:	0060f809 	jalr	v1
    d6ac:	af820014 	sw	v0,20(gp)
    d6b0:	1220fe90 	beqz	s1,d0f4 <ar6000_data_tx+0xb8>
    d6b4:	3c020000 	lui	v0,0x0
			d6b4: R_MIPS_HI16	wmi_set_pvb_cmd
    d6b8:	8e440004 	lw	a0,4(s2)
    d6bc:	92850008 	lbu	a1,8(s4)
    d6c0:	24420000 	addiu	v0,v0,0
			d6c0: R_MIPS_LO16	wmi_set_pvb_cmd
    d6c4:	0040f809 	jalr	v0
    d6c8:	24060001 	li	a2,1
    d6cc:	0800343e 	j	d0f8 <ar6000_data_tx+0xbc>
			d6cc: R_MIPS_26	.text
    d6d0:	8fbf003c 	lw	ra,60(sp)
    d6d4:	2442afac 	addiu	v0,v0,-20564
			d6d4: R_MIPS_LO16	.text
    d6d8:	0040f809 	jalr	v0
    d6dc:	02602021 	move	a0,s3
    d6e0:	080034a9 	j	d2a4 <ar6000_data_tx+0x268>
			d6e0: R_MIPS_26	.text
    d6e4:	8e440040 	lw	a0,64(s2)
    d6e8:	8e440004 	lw	a0,4(s2)
    d6ec:	8e4704dc 	lw	a3,1244(s2)
    d6f0:	3c020000 	lui	v0,0x0
			d6f0: R_MIPS_HI16	wmi_implicit_create_pstream
    d6f4:	02602821 	move	a1,s3
    d6f8:	24420000 	addiu	v0,v0,0
			d6f8: R_MIPS_LO16	wmi_implicit_create_pstream
    d6fc:	0040f809 	jalr	v0
    d700:	00003021 	move	a2,zero
    d704:	08003460 	j	d180 <ar6000_data_tx+0x144>
			d704: R_MIPS_26	.text
    d708:	00408021 	move	s0,v0
    d70c:	3c020000 	lui	v0,0x0
			d70c: R_MIPS_HI16	printk
    d710:	24420000 	addiu	v0,v0,0
			d710: R_MIPS_LO16	printk
    d714:	0040f809 	jalr	v0
    d718:	24840000 	addiu	a0,a0,0
			d718: R_MIPS_LO16	$LC97
    d71c:	0800346b 	j	d1ac <ar6000_data_tx+0x170>
			d71c: R_MIPS_26	.text
    d720:	3c020000 	lui	v0,0x0
			d720: R_MIPS_HI16	local_bh_disable
    d724:	3c020000 	lui	v0,0x0
			d724: R_MIPS_HI16	printk
    d728:	24420000 	addiu	v0,v0,0
			d728: R_MIPS_LO16	printk
    d72c:	0040f809 	jalr	v0
    d730:	24840000 	addiu	a0,a0,0
			d730: R_MIPS_LO16	$LC99
    d734:	0800348c 	j	d230 <ar6000_data_tx+0x1f4>
			d734: R_MIPS_26	.text
    d738:	00000000 	nop
    d73c:	24420000 	addiu	v0,v0,0
			d73c: R_MIPS_LO16	local_bh_disable
    d740:	0040f809 	jalr	v0
    d744:	00000000 	nop
    d748:	8f820014 	lw	v0,20(gp)
    d74c:	24420001 	addiu	v0,v0,1
    d750:	af820014 	sw	v0,20(gp)
    d754:	3c020000 	lui	v0,0x0
			d754: R_MIPS_HI16	a_netbuf_queue_empty
    d758:	24420000 	addiu	v0,v0,0
			d758: R_MIPS_LO16	a_netbuf_queue_empty
    d75c:	0040f809 	jalr	v0
    d760:	264415f8 	addiu	a0,s2,5624
    d764:	2c570001 	sltiu	s7,v0,1
    d768:	8f820014 	lw	v0,20(gp)
    d76c:	3c030000 	lui	v1,0x0
			d76c: R_MIPS_HI16	local_bh_enable
    d770:	2442ffff 	addiu	v0,v0,-1
    d774:	24630000 	addiu	v1,v1,0
			d774: R_MIPS_LO16	local_bh_enable
    d778:	0060f809 	jalr	v1
    d77c:	af820014 	sw	v0,20(gp)
    d780:	08003457 	j	d15c <ar6000_data_tx+0x120>
			d780: R_MIPS_26	.text
    d784:	8e420034 	lw	v0,52(s2)
    d788:	24420000 	addiu	v0,v0,0
			d788: R_MIPS_LO16	local_bh_disable
    d78c:	0040f809 	jalr	v0
    d790:	00000000 	nop
    d794:	8f820014 	lw	v0,20(gp)
    d798:	24420001 	addiu	v0,v0,1
    d79c:	af820014 	sw	v0,20(gp)
    d7a0:	3c020000 	lui	v0,0x0
			d7a0: R_MIPS_HI16	a_netbuf_queue_empty
    d7a4:	24420000 	addiu	v0,v0,0
			d7a4: R_MIPS_LO16	a_netbuf_queue_empty
    d7a8:	0040f809 	jalr	v0
    d7ac:	2684010c 	addiu	a0,s4,268
    d7b0:	2c570001 	sltiu	s7,v0,1
    d7b4:	080035db 	j	d76c <ar6000_data_tx+0x730>
			d7b4: R_MIPS_26	.text
    d7b8:	8f820014 	lw	v0,20(gp)

0000d7bc <ar6000_dtimexpiry_event>:
    d7bc:	27bdffc8 	addiu	sp,sp,-56
    d7c0:	afb7002c 	sw	s7,44(sp)
    d7c4:	3c170000 	lui	s7,0x0
			d7c4: R_MIPS_HI16	local_bh_disable
    d7c8:	afb3001c 	sw	s3,28(sp)
    d7cc:	afb20018 	sw	s2,24(sp)
    d7d0:	afbf0034 	sw	ra,52(sp)
    d7d4:	afbe0030 	sw	s8,48(sp)
    d7d8:	afb60028 	sw	s6,40(sp)
    d7dc:	afb50024 	sw	s5,36(sp)
    d7e0:	afb40020 	sw	s4,32(sp)
    d7e4:	afb10014 	sw	s1,20(sp)
    d7e8:	afb00010 	sw	s0,16(sp)
    d7ec:	26f30000 	addiu	s3,s7,0
			d7ec: R_MIPS_LO16	local_bh_disable
    d7f0:	0260f809 	jalr	s3
    d7f4:	00809021 	move	s2,a0
    d7f8:	8f820014 	lw	v0,20(gp)
    d7fc:	24420001 	addiu	v0,v0,1
    d800:	af820014 	sw	v0,20(gp)
    d804:	3c020000 	lui	v0,0x0
			d804: R_MIPS_HI16	a_netbuf_queue_empty
    d808:	265115f8 	addiu	s1,s2,5624
    d80c:	245e0000 	addiu	s8,v0,0
			d80c: R_MIPS_LO16	a_netbuf_queue_empty
    d810:	03c0f809 	jalr	s8
    d814:	02202021 	move	a0,s1
    d818:	00408021 	move	s0,v0
    d81c:	8f820014 	lw	v0,20(gp)
    d820:	2442ffff 	addiu	v0,v0,-1
    d824:	af820014 	sw	v0,20(gp)
    d828:	3c020000 	lui	v0,0x0
			d828: R_MIPS_HI16	local_bh_enable
    d82c:	24540000 	addiu	s4,v0,0
			d82c: R_MIPS_LO16	local_bh_enable
    d830:	0280f809 	jalr	s4
    d834:	00000000 	nop
    d838:	16000038 	bnez	s0,d91c <ar6000_dtimexpiry_event+0x160>
    d83c:	24020001 	li	v0,1
    d840:	0260f809 	jalr	s3
    d844:	ae421604 	sw	v0,5636(s2)
    d848:	8f820014 	lw	v0,20(gp)
    d84c:	24420001 	addiu	v0,v0,1
    d850:	af820014 	sw	v0,20(gp)
    d854:	3c020000 	lui	v0,0x0
			d854: R_MIPS_HI16	a_netbuf_dequeue
    d858:	3c030001 	lui	v1,0x1
			d858: R_MIPS_HI16	.text
    d85c:	24560000 	addiu	s6,v0,0
			d85c: R_MIPS_LO16	a_netbuf_dequeue
    d860:	2475d03c 	addiu	s5,v1,-12228
			d860: R_MIPS_LO16	.text
    d864:	0800362b 	j	d8ac <ar6000_dtimexpiry_event+0xf0>
			d864: R_MIPS_26	.text
    d868:	03c09821 	move	s3,s8
    d86c:	02c0f809 	jalr	s6
    d870:	02202021 	move	a0,s1
    d874:	00408021 	move	s0,v0
    d878:	8f820014 	lw	v0,20(gp)
    d87c:	2442ffff 	addiu	v0,v0,-1
    d880:	0280f809 	jalr	s4
    d884:	af820014 	sw	v0,20(gp)
    d888:	8e450000 	lw	a1,0(s2)
    d88c:	02a0f809 	jalr	s5
    d890:	02002021 	move	a0,s0
    d894:	26e30000 	addiu	v1,s7,0
			d894: R_MIPS_LO16	local_bh_disable
    d898:	0060f809 	jalr	v1
    d89c:	00000000 	nop
    d8a0:	8f820014 	lw	v0,20(gp)
    d8a4:	24420001 	addiu	v0,v0,1
    d8a8:	af820014 	sw	v0,20(gp)
    d8ac:	0260f809 	jalr	s3
    d8b0:	02202021 	move	a0,s1
    d8b4:	1040ffed 	beqz	v0,d86c <ar6000_dtimexpiry_event+0xb0>
    d8b8:	00000000 	nop
    d8bc:	8f820014 	lw	v0,20(gp)
    d8c0:	3c050000 	lui	a1,0x0
			d8c0: R_MIPS_HI16	local_bh_enable
    d8c4:	2442ffff 	addiu	v0,v0,-1
    d8c8:	24a40000 	addiu	a0,a1,0
			d8c8: R_MIPS_LO16	local_bh_enable
    d8cc:	0080f809 	jalr	a0
    d8d0:	af820014 	sw	v0,20(gp)
    d8d4:	ae401604 	sw	zero,5636(s2)
    d8d8:	8e440004 	lw	a0,4(s2)
    d8dc:	3c190000 	lui	t9,0x0
			d8dc: R_MIPS_HI16	wmi_set_pvb_cmd
    d8e0:	8fbf0034 	lw	ra,52(sp)
    d8e4:	8fbe0030 	lw	s8,48(sp)
    d8e8:	8fb7002c 	lw	s7,44(sp)
    d8ec:	8fb60028 	lw	s6,40(sp)
    d8f0:	8fb50024 	lw	s5,36(sp)
    d8f4:	8fb40020 	lw	s4,32(sp)
    d8f8:	8fb3001c 	lw	s3,28(sp)
    d8fc:	8fb20018 	lw	s2,24(sp)
    d900:	8fb10014 	lw	s1,20(sp)
    d904:	8fb00010 	lw	s0,16(sp)
    d908:	240500ff 	li	a1,255
    d90c:	00003021 	move	a2,zero
    d910:	27390000 	addiu	t9,t9,0
			d910: R_MIPS_LO16	wmi_set_pvb_cmd
    d914:	03200008 	jr	t9
    d918:	27bd0038 	addiu	sp,sp,56
    d91c:	3c040000 	lui	a0,0x0
			d91c: R_MIPS_HI16	$LC100
    d920:	3c020000 	lui	v0,0x0
			d920: R_MIPS_HI16	printk
    d924:	24840000 	addiu	a0,a0,0
			d924: R_MIPS_LO16	$LC100
    d928:	24420000 	addiu	v0,v0,0
			d928: R_MIPS_LO16	printk
    d92c:	0040f809 	jalr	v0
    d930:	240510bc 	li	a1,4284
    d934:	3c040000 	lui	a0,0x0
			d934: R_MIPS_HI16	$LC101
    d938:	3c020000 	lui	v0,0x0
			d938: R_MIPS_HI16	panic
    d93c:	24420000 	addiu	v0,v0,0
			d93c: R_MIPS_LO16	panic
    d940:	0040f809 	jalr	v0
    d944:	24840000 	addiu	a0,a0,0
			d944: R_MIPS_LO16	$LC101

0000d948 <ar6000_pspoll_event>:
    d948:	27bdffd0 	addiu	sp,sp,-48
    d94c:	3c020000 	lui	v0,0x0
			d94c: R_MIPS_HI16	ieee80211_find_conn_for_aid
    d950:	afbf002c 	sw	ra,44(sp)
    d954:	afb60028 	sw	s6,40(sp)
    d958:	afb40020 	sw	s4,32(sp)
    d95c:	afb20018 	sw	s2,24(sp)
    d960:	30a500ff 	andi	a1,a1,0xff
    d964:	afb50024 	sw	s5,36(sp)
    d968:	afb3001c 	sw	s3,28(sp)
    d96c:	afb10014 	sw	s1,20(sp)
    d970:	afb00010 	sw	s0,16(sp)
    d974:	24420000 	addiu	v0,v0,0
			d974: R_MIPS_LO16	ieee80211_find_conn_for_aid
    d978:	0040f809 	jalr	v0
    d97c:	0080b021 	move	s6,a0
    d980:	00409021 	move	s2,v0
    d984:	3c020000 	lui	v0,0x0
			d984: R_MIPS_HI16	local_bh_disable
    d988:	24540000 	addiu	s4,v0,0
			d988: R_MIPS_LO16	local_bh_disable
    d98c:	0280f809 	jalr	s4
    d990:	00000000 	nop
    d994:	8f820014 	lw	v0,20(gp)
    d998:	24420001 	addiu	v0,v0,1
    d99c:	af820014 	sw	v0,20(gp)
    d9a0:	3c020000 	lui	v0,0x0
			d9a0: R_MIPS_HI16	a_netbuf_queue_empty
    d9a4:	2651010c 	addiu	s1,s2,268
    d9a8:	24550000 	addiu	s5,v0,0
			d9a8: R_MIPS_LO16	a_netbuf_queue_empty
    d9ac:	02a0f809 	jalr	s5
    d9b0:	02202021 	move	a0,s1
    d9b4:	00408021 	move	s0,v0
    d9b8:	8f820014 	lw	v0,20(gp)
    d9bc:	3c030000 	lui	v1,0x0
			d9bc: R_MIPS_HI16	local_bh_enable
    d9c0:	2442ffff 	addiu	v0,v0,-1
    d9c4:	24730000 	addiu	s3,v1,0
			d9c4: R_MIPS_LO16	local_bh_enable
    d9c8:	0260f809 	jalr	s3
    d9cc:	af820014 	sw	v0,20(gp)
    d9d0:	1200000b 	beqz	s0,da00 <ar6000_pspoll_event+0xb8>
    d9d4:	00000000 	nop
    d9d8:	8fbf002c 	lw	ra,44(sp)
    d9dc:	8fb60028 	lw	s6,40(sp)
    d9e0:	8fb50024 	lw	s5,36(sp)
    d9e4:	8fb40020 	lw	s4,32(sp)
    d9e8:	8fb3001c 	lw	s3,28(sp)
    d9ec:	8fb20018 	lw	s2,24(sp)
    d9f0:	8fb10014 	lw	s1,20(sp)
    d9f4:	8fb00010 	lw	s0,16(sp)
    d9f8:	03e00008 	jr	ra
    d9fc:	27bd0030 	addiu	sp,sp,48
    da00:	0280f809 	jalr	s4
    da04:	00000000 	nop
    da08:	8f820014 	lw	v0,20(gp)
    da0c:	24420001 	addiu	v0,v0,1
    da10:	af820014 	sw	v0,20(gp)
    da14:	3c020000 	lui	v0,0x0
			da14: R_MIPS_HI16	a_netbuf_dequeue
    da18:	24420000 	addiu	v0,v0,0
			da18: R_MIPS_LO16	a_netbuf_dequeue
    da1c:	0040f809 	jalr	v0
    da20:	02202021 	move	a0,s1
    da24:	00408021 	move	s0,v0
    da28:	8f820014 	lw	v0,20(gp)
    da2c:	2442ffff 	addiu	v0,v0,-1
    da30:	0260f809 	jalr	s3
    da34:	af820014 	sw	v0,20(gp)
    da38:	96420000 	lhu	v0,0(s2)
    da3c:	02002021 	move	a0,s0
    da40:	34420002 	ori	v0,v0,0x2
    da44:	a6420000 	sh	v0,0(s2)
    da48:	3c020001 	lui	v0,0x1
			da48: R_MIPS_HI16	.text
    da4c:	2442d03c 	addiu	v0,v0,-12228
			da4c: R_MIPS_LO16	.text
    da50:	0040f809 	jalr	v0
    da54:	8ec50000 	lw	a1,0(s6)
    da58:	96430000 	lhu	v1,0(s2)
    da5c:	3063fffd 	andi	v1,v1,0xfffd
    da60:	0280f809 	jalr	s4
    da64:	a6430000 	sh	v1,0(s2)
    da68:	8f820014 	lw	v0,20(gp)
    da6c:	24420001 	addiu	v0,v0,1
    da70:	af820014 	sw	v0,20(gp)
    da74:	02a0f809 	jalr	s5
    da78:	02202021 	move	a0,s1
    da7c:	00408021 	move	s0,v0
    da80:	8f820014 	lw	v0,20(gp)
    da84:	2442ffff 	addiu	v0,v0,-1
    da88:	0260f809 	jalr	s3
    da8c:	af820014 	sw	v0,20(gp)
    da90:	1200ffd1 	beqz	s0,d9d8 <ar6000_pspoll_event+0x90>
    da94:	00003021 	move	a2,zero
    da98:	8ec40004 	lw	a0,4(s6)
    da9c:	92450008 	lbu	a1,8(s2)
    daa0:	3c190000 	lui	t9,0x0
			daa0: R_MIPS_HI16	wmi_set_pvb_cmd
    daa4:	8fbf002c 	lw	ra,44(sp)
    daa8:	8fb60028 	lw	s6,40(sp)
    daac:	8fb50024 	lw	s5,36(sp)
    dab0:	8fb40020 	lw	s4,32(sp)
    dab4:	8fb3001c 	lw	s3,28(sp)
    dab8:	8fb20018 	lw	s2,24(sp)
    dabc:	8fb10014 	lw	s1,20(sp)
    dac0:	8fb00010 	lw	s0,16(sp)
    dac4:	27390000 	addiu	t9,t9,0
			dac4: R_MIPS_LO16	wmi_set_pvb_cmd
    dac8:	03200008 	jr	t9
    dacc:	27bd0030 	addiu	sp,sp,48

0000dad0 <ar6000_connectservice>:
    dad0:	27bdffc0 	addiu	sp,sp,-64
    dad4:	afb00028 	sw	s0,40(sp)
    dad8:	3c020000 	lui	v0,0x0
			dad8: R_MIPS_HI16	memset
    dadc:	27b00010 	addiu	s0,sp,16
    dae0:	afbf0038 	sw	ra,56(sp)
    dae4:	afb30034 	sw	s3,52(sp)
    dae8:	afb20030 	sw	s2,48(sp)
    daec:	afb1002c 	sw	s1,44(sp)
    daf0:	00809021 	move	s2,a0
    daf4:	00a08821 	move	s1,a1
    daf8:	02002021 	move	a0,s0
    dafc:	00002821 	move	a1,zero
    db00:	00c09821 	move	s3,a2
    db04:	24420000 	addiu	v0,v0,0
			db04: R_MIPS_LO16	memset
    db08:	0040f809 	jalr	v0
    db0c:	24060014 	li	a2,20
    db10:	8e440040 	lw	a0,64(s2)
    db14:	3c020000 	lui	v0,0x0
			db14: R_MIPS_HI16	HTCConnectService
    db18:	02003021 	move	a2,s0
    db1c:	24420000 	addiu	v0,v0,0
			db1c: R_MIPS_LO16	HTCConnectService
    db20:	0040f809 	jalr	v0
    db24:	02202821 	move	a1,s1
    db28:	1040000d 	beqz	v0,db60 <ar6000_connectservice+0x90>
    db2c:	00408021 	move	s0,v0
    db30:	3c020000 	lui	v0,0x0
			db30: R_MIPS_HI16	debugdriver
    db34:	8c430000 	lw	v1,0(v0)
			db34: R_MIPS_LO16	debugdriver
    db38:	14600026 	bnez	v1,dbd4 <ar6000_connectservice+0x104>
    db3c:	3c040000 	lui	a0,0x0
			db3c: R_MIPS_HI16	$LC102
    db40:	02001021 	move	v0,s0
    db44:	8fbf0038 	lw	ra,56(sp)
    db48:	8fb30034 	lw	s3,52(sp)
    db4c:	8fb20030 	lw	s2,48(sp)
    db50:	8fb1002c 	lw	s1,44(sp)
    db54:	8fb00028 	lw	s0,40(sp)
    db58:	03e00008 	jr	ra
    db5c:	27bd0040 	addiu	sp,sp,64
    db60:	96250000 	lhu	a1,0(s1)
    db64:	24a2ff00 	addiu	v0,a1,-256
    db68:	3042ffff 	andi	v0,v0,0xffff
    db6c:	2c430005 	sltiu	v1,v0,5
    db70:	14600012 	bnez	v1,dbbc <ar6000_connectservice+0xec>
    db74:	3c030000 	lui	v1,0x0
			db74: R_MIPS_HI16	.rodata
    db78:	3c020000 	lui	v0,0x0
			db78: R_MIPS_HI16	debugdriver
    db7c:	8c430000 	lw	v1,0(v0)
			db7c: R_MIPS_LO16	debugdriver
    db80:	10600005 	beqz	v1,db98 <ar6000_connectservice+0xc8>
    db84:	3c020000 	lui	v0,0x0
			db84: R_MIPS_HI16	printk
    db88:	3c040000 	lui	a0,0x0
			db88: R_MIPS_HI16	$LC103
    db8c:	24420000 	addiu	v0,v0,0
			db8c: R_MIPS_LO16	printk
    db90:	0040f809 	jalr	v0
    db94:	24840000 	addiu	a0,a0,0
			db94: R_MIPS_LO16	$LC103
    db98:	2410000e 	li	s0,14
    db9c:	02001021 	move	v0,s0
    dba0:	8fbf0038 	lw	ra,56(sp)
    dba4:	8fb30034 	lw	s3,52(sp)
    dba8:	8fb20030 	lw	s2,48(sp)
    dbac:	8fb1002c 	lw	s1,44(sp)
    dbb0:	8fb00028 	lw	s0,40(sp)
    dbb4:	03e00008 	jr	ra
    dbb8:	27bd0040 	addiu	sp,sp,64
    dbbc:	00021080 	sll	v0,v0,0x2
    dbc0:	246300a0 	addiu	v1,v1,160
			dbc0: R_MIPS_LO16	.rodata
    dbc4:	00431021 	addu	v0,v0,v1
    dbc8:	8c440000 	lw	a0,0(v0)
    dbcc:	00800008 	jr	a0
    dbd0:	00000000 	nop
    dbd4:	3c020000 	lui	v0,0x0
			dbd4: R_MIPS_HI16	printk
    dbd8:	02602821 	move	a1,s3
    dbdc:	02003021 	move	a2,s0
    dbe0:	24420000 	addiu	v0,v0,0
			dbe0: R_MIPS_LO16	printk
    dbe4:	0040f809 	jalr	v0
    dbe8:	24840000 	addiu	a0,a0,0
			dbe8: R_MIPS_LO16	$LC102
    dbec:	02001021 	move	v0,s0
    dbf0:	8fbf0038 	lw	ra,56(sp)
    dbf4:	8fb30034 	lw	s3,52(sp)
    dbf8:	8fb20030 	lw	s2,48(sp)
    dbfc:	8fb1002c 	lw	s1,44(sp)
    dc00:	8fb00028 	lw	s0,40(sp)
    dc04:	03e00008 	jr	ra
    dc08:	27bd0040 	addiu	sp,sp,64
    dc0c:	8e420034 	lw	v0,52(s2)
    dc10:	1440001a 	bnez	v0,dc7c <ar6000_connectservice+0x1ac>
    dc14:	8fa20018 	lw	v0,24(sp)
    dc18:	080036d0 	j	db40 <ar6000_connectservice+0x70>
			dc18: R_MIPS_26	.text
    dc1c:	ae420540 	sw	v0,1344(s2)
    dc20:	8fa30018 	lw	v1,24(sp)
    dc24:	00721021 	addu	v0,v1,s2
    dc28:	a0400535 	sb	zero,1333(v0)
    dc2c:	080036d0 	j	db40 <ar6000_connectservice+0x70>
			dc2c: R_MIPS_26	.text
    dc30:	ae430510 	sw	v1,1296(s2)
    dc34:	8fa40018 	lw	a0,24(sp)
    dc38:	24020002 	li	v0,2
    dc3c:	00921821 	addu	v1,a0,s2
    dc40:	a0620535 	sb	v0,1333(v1)
    dc44:	080036d0 	j	db40 <ar6000_connectservice+0x70>
			dc44: R_MIPS_26	.text
    dc48:	ae440518 	sw	a0,1304(s2)
    dc4c:	8fa40018 	lw	a0,24(sp)
    dc50:	24020003 	li	v0,3
    dc54:	00921821 	addu	v1,a0,s2
    dc58:	a0620535 	sb	v0,1333(v1)
    dc5c:	080036d0 	j	db40 <ar6000_connectservice+0x70>
			dc5c: R_MIPS_26	.text
    dc60:	ae44051c 	sw	a0,1308(s2)
    dc64:	8fa40018 	lw	a0,24(sp)
    dc68:	24020001 	li	v0,1
    dc6c:	00921821 	addu	v1,a0,s2
    dc70:	a0620535 	sb	v0,1333(v1)
    dc74:	080036d0 	j	db40 <ar6000_connectservice+0x70>
			dc74: R_MIPS_26	.text
    dc78:	ae440514 	sw	a0,1300(s2)
    dc7c:	8e440004 	lw	a0,4(s2)
    dc80:	3c020000 	lui	v0,0x0
			dc80: R_MIPS_HI16	wmi_set_control_ep
    dc84:	24420000 	addiu	v0,v0,0
			dc84: R_MIPS_LO16	wmi_set_control_ep
    dc88:	0040f809 	jalr	v0
    dc8c:	8fa50018 	lw	a1,24(sp)
    dc90:	8fa20018 	lw	v0,24(sp)
    dc94:	080036d0 	j	db40 <ar6000_connectservice+0x70>
			dc94: R_MIPS_26	.text
    dc98:	ae420540 	sw	v0,1344(s2)

0000dc9c <ar6000_rx_refill>:
    dc9c:	27bdffc0 	addiu	sp,sp,-64
    dca0:	00051080 	sll	v0,a1,0x2
    dca4:	afb60030 	sw	s6,48(sp)
    dca8:	afb40028 	sw	s4,40(sp)
    dcac:	afb30024 	sw	s3,36(sp)
    dcb0:	afa20010 	sw	v0,16(sp)
    dcb4:	afbf003c 	sw	ra,60(sp)
    dcb8:	afbe0038 	sw	s8,56(sp)
    dcbc:	afb70034 	sw	s7,52(sp)
    dcc0:	afb5002c 	sw	s5,44(sp)
    dcc4:	afb20020 	sw	s2,32(sp)
    dcc8:	afb1001c 	sw	s1,28(sp)
    dccc:	afb00018 	sw	s0,24(sp)
    dcd0:	00441021 	addu	v0,v0,a0
    dcd4:	0080b021 	move	s6,a0
    dcd8:	8c440054 	lw	a0,84(v0)
    dcdc:	24030010 	li	v1,16
    dce0:	00649823 	subu	s3,v1,a0
    dce4:	1a600060 	blez	s3,de68 <ar6000_rx_refill+0x1cc>
    dce8:	00a0a021 	move	s4,a1
    dcec:	3c030000 	lui	v1,0x0
			dcec: R_MIPS_HI16	debugdriver
    dcf0:	8c620000 	lw	v0,0(v1)
			dcf0: R_MIPS_LO16	debugdriver
    dcf4:	28420002 	slti	v0,v0,2
    dcf8:	14400007 	bnez	v0,dd18 <ar6000_rx_refill+0x7c>
    dcfc:	3c020000 	lui	v0,0x0
			dcfc: R_MIPS_HI16	printk
    dd00:	3c040000 	lui	a0,0x0
			dd00: R_MIPS_HI16	$LC104
    dd04:	24840000 	addiu	a0,a0,0
			dd04: R_MIPS_LO16	$LC104
    dd08:	02602821 	move	a1,s3
    dd0c:	24420000 	addiu	v0,v0,0
			dd0c: R_MIPS_LO16	printk
    dd10:	0040f809 	jalr	v0
    dd14:	02803021 	move	a2,s4
    dd18:	3c030000 	lui	v1,0x0
			dd18: R_MIPS_HI16	a_netbuf_to_data
    dd1c:	3c020000 	lui	v0,0x0
			dd1c: R_MIPS_HI16	HTCAddReceivePkt
    dd20:	24750000 	addiu	s5,v1,0
			dd20: R_MIPS_LO16	a_netbuf_to_data
    dd24:	245e0000 	addiu	s8,v0,0
			dd24: R_MIPS_LO16	HTCAddReceivePkt
    dd28:	00009021 	move	s2,zero
    dd2c:	0800375c 	j	dd70 <ar6000_rx_refill+0xd4>
			dd2c: R_MIPS_26	.text
    dd30:	24170680 	li	s7,1664
    dd34:	8c50008c 	lw	s0,140(v0)
    dd38:	26520001 	addiu	s2,s2,1
    dd3c:	02a0f809 	jalr	s5
    dd40:	ae020008 	sw	v0,8(s0)
    dd44:	ae020010 	sw	v0,16(s0)
    dd48:	02a0f809 	jalr	s5
    dd4c:	02202021 	move	a0,s1
    dd50:	ae02000c 	sw	v0,12(s0)
    dd54:	ae170014 	sw	s7,20(s0)
    dd58:	ae14001c 	sw	s4,28(s0)
    dd5c:	8ec40040 	lw	a0,64(s6)
    dd60:	03c0f809 	jalr	s8
    dd64:	02002821 	move	a1,s0
    dd68:	12720008 	beq	s3,s2,dd8c <ar6000_rx_refill+0xf0>
    dd6c:	00000000 	nop
    dd70:	3c030000 	lui	v1,0x0
			dd70: R_MIPS_HI16	a_netbuf_alloc
    dd74:	24630000 	addiu	v1,v1,0
			dd74: R_MIPS_LO16	a_netbuf_alloc
    dd78:	0060f809 	jalr	v1
    dd7c:	24040680 	li	a0,1664
    dd80:	00408821 	move	s1,v0
    dd84:	1440ffeb 	bnez	v0,dd34 <ar6000_rx_refill+0x98>
    dd88:	00402021 	move	a0,v0
    dd8c:	40026000 	mfc0	v0,c0_status
    dd90:	30420001 	andi	v0,v0,0x1
    dd94:	1040002b 	beqz	v0,de44 <ar6000_rx_refill+0x1a8>
    dd98:	3c030000 	lui	v1,0x0
			dd98: R_MIPS_HI16	debugdriver
    dd9c:	3c020000 	lui	v0,0x0
			dd9c: R_MIPS_HI16	local_bh_disable
    dda0:	24420000 	addiu	v0,v0,0
			dda0: R_MIPS_LO16	local_bh_disable
    dda4:	0040f809 	jalr	v0
    dda8:	00000000 	nop
    ddac:	8f820014 	lw	v0,20(gp)
    ddb0:	24420001 	addiu	v0,v0,1
    ddb4:	af820014 	sw	v0,20(gp)
    ddb8:	8fa20010 	lw	v0,16(sp)
    ddbc:	00562021 	addu	a0,v0,s6
    ddc0:	8c820054 	lw	v0,84(a0)
    ddc4:	02421021 	addu	v0,s2,v0
    ddc8:	ac820054 	sw	v0,84(a0)
    ddcc:	40036000 	mfc0	v1,c0_status
    ddd0:	30630001 	andi	v1,v1,0x1
    ddd4:	10600012 	beqz	v1,de20 <ar6000_rx_refill+0x184>
    ddd8:	3c030000 	lui	v1,0x0
			ddd8: R_MIPS_HI16	debugdriver
    dddc:	8f830014 	lw	v1,20(gp)
    dde0:	3c190000 	lui	t9,0x0
			dde0: R_MIPS_HI16	local_bh_enable
    dde4:	2463ffff 	addiu	v1,v1,-1
    dde8:	af830014 	sw	v1,20(gp)
    ddec:	8fbf003c 	lw	ra,60(sp)
    ddf0:	8fbe0038 	lw	s8,56(sp)
    ddf4:	8fb70034 	lw	s7,52(sp)
    ddf8:	8fb60030 	lw	s6,48(sp)
    ddfc:	8fb5002c 	lw	s5,44(sp)
    de00:	8fb40028 	lw	s4,40(sp)
    de04:	8fb30024 	lw	s3,36(sp)
    de08:	8fb20020 	lw	s2,32(sp)
    de0c:	8fb1001c 	lw	s1,28(sp)
    de10:	8fb00018 	lw	s0,24(sp)
    de14:	27390000 	addiu	t9,t9,0
			de14: R_MIPS_LO16	local_bh_enable
    de18:	03200008 	jr	t9
    de1c:	27bd0040 	addiu	sp,sp,64
    de20:	8c620000 	lw	v0,0(v1)
			de20: R_MIPS_LO16	debugdriver
    de24:	1040ffed 	beqz	v0,dddc <ar6000_rx_refill+0x140>
    de28:	3c040000 	lui	a0,0x0
			de28: R_MIPS_HI16	$LC99
    de2c:	3c020000 	lui	v0,0x0
			de2c: R_MIPS_HI16	printk
    de30:	24420000 	addiu	v0,v0,0
			de30: R_MIPS_LO16	printk
    de34:	0040f809 	jalr	v0
    de38:	24840000 	addiu	a0,a0,0
			de38: R_MIPS_LO16	$LC99
    de3c:	08003777 	j	dddc <ar6000_rx_refill+0x140>
			de3c: R_MIPS_26	.text
    de40:	00000000 	nop
    de44:	8c620000 	lw	v0,0(v1)
			de44: R_MIPS_LO16	debugdriver
    de48:	1040ffd4 	beqz	v0,dd9c <ar6000_rx_refill+0x100>
    de4c:	3c040000 	lui	a0,0x0
			de4c: R_MIPS_HI16	$LC97
    de50:	3c020000 	lui	v0,0x0
			de50: R_MIPS_HI16	printk
    de54:	24420000 	addiu	v0,v0,0
			de54: R_MIPS_LO16	printk
    de58:	0040f809 	jalr	v0
    de5c:	24840000 	addiu	a0,a0,0
			de5c: R_MIPS_LO16	$LC97
    de60:	08003768 	j	dda0 <ar6000_rx_refill+0x104>
			de60: R_MIPS_26	.text
    de64:	3c020000 	lui	v0,0x0
			de64: R_MIPS_HI16	local_bh_disable
    de68:	8fbf003c 	lw	ra,60(sp)
    de6c:	8fbe0038 	lw	s8,56(sp)
    de70:	8fb70034 	lw	s7,52(sp)
    de74:	8fb60030 	lw	s6,48(sp)
    de78:	8fb5002c 	lw	s5,44(sp)
    de7c:	8fb40028 	lw	s4,40(sp)
    de80:	8fb30024 	lw	s3,36(sp)
    de84:	8fb20020 	lw	s2,32(sp)
    de88:	8fb1001c 	lw	s1,28(sp)
    de8c:	8fb00018 	lw	s0,24(sp)
    de90:	03e00008 	jr	ra
    de94:	27bd0040 	addiu	sp,sp,64

0000de98 <ar6000_init>:
    de98:	27bdffa8 	addiu	sp,sp,-88
    de9c:	afb20040 	sw	s2,64(sp)
    dea0:	afbf0054 	sw	ra,84(sp)
    dea4:	afb60050 	sw	s6,80(sp)
    dea8:	afb5004c 	sw	s5,76(sp)
    deac:	afb40048 	sw	s4,72(sp)
    deb0:	afb30044 	sw	s3,68(sp)
    deb4:	afb1003c 	sw	s1,60(sp)
    deb8:	afb00038 	sw	s0,56(sp)
    debc:	8c910194 	lw	s1,404(a0)
    dec0:	1620000d 	bnez	s1,def8 <ar6000_init+0x60>
    dec4:	00809021 	move	s2,a0
    dec8:	2404fffb 	li	a0,-5
    decc:	8fbf0054 	lw	ra,84(sp)
    ded0:	8fb60050 	lw	s6,80(sp)
    ded4:	8fb5004c 	lw	s5,76(sp)
    ded8:	8fb40048 	lw	s4,72(sp)
    dedc:	8fb30044 	lw	s3,68(sp)
    dee0:	8fb20040 	lw	s2,64(sp)
    dee4:	8fb1003c 	lw	s1,60(sp)
    dee8:	8fb00038 	lw	s0,56(sp)
    deec:	00801021 	move	v0,a0
    def0:	03e00008 	jr	ra
    def4:	27bd0058 	addiu	sp,sp,88
    def8:	3c020000 	lui	v0,0x0
			def8: R_MIPS_HI16	BMIDone
    defc:	24420000 	addiu	v0,v0,0
			defc: R_MIPS_LO16	BMIDone
    df00:	0040f809 	jalr	v0
    df04:	8e240044 	lw	a0,68(s1)
    df08:	1440ffef 	bnez	v0,dec8 <ar6000_init+0x30>
    df0c:	3c150000 	lui	s5,0x0
			df0c: R_MIPS_HI16	bypasswmi
    df10:	8ea20000 	lw	v0,0(s5)
			df10: R_MIPS_LO16	bypasswmi
    df14:	1440000f 	bnez	v0,df54 <ar6000_init+0xbc>
    df18:	3c020000 	lui	v0,0x0
			df18: R_MIPS_HI16	HTCWaitTarget
    df1c:	24020001 	li	v0,1
    df20:	ae220034 	sw	v0,52(s1)
    df24:	3c020000 	lui	v0,0x0
			df24: R_MIPS_HI16	wmi_init
    df28:	24420000 	addiu	v0,v0,0
			df28: R_MIPS_LO16	wmi_init
    df2c:	0040f809 	jalr	v0
    df30:	02202021 	move	a0,s1
    df34:	00403021 	move	a2,v0
    df38:	104000b9 	beqz	v0,e220 <ar6000_init+0x388>
    df3c:	ae220004 	sw	v0,4(s1)
    df40:	3c020000 	lui	v0,0x0
			df40: R_MIPS_HI16	debugdriver
    df44:	8c430000 	lw	v1,0(v0)
			df44: R_MIPS_LO16	debugdriver
    df48:	146000ad 	bnez	v1,e200 <ar6000_init+0x368>
    df4c:	3c040000 	lui	a0,0x0
			df4c: R_MIPS_HI16	$LC106
    df50:	3c020000 	lui	v0,0x0
			df50: R_MIPS_HI16	HTCWaitTarget
    df54:	24420000 	addiu	v0,v0,0
			df54: R_MIPS_LO16	HTCWaitTarget
    df58:	0040f809 	jalr	v0
    df5c:	8e240040 	lw	a0,64(s1)
    df60:	1440ffd9 	bnez	v0,dec8 <ar6000_init+0x30>
    df64:	27b00010 	addiu	s0,sp,16
    df68:	3c020000 	lui	v0,0x0
			df68: R_MIPS_HI16	memset
    df6c:	02002021 	move	a0,s0
    df70:	00002821 	move	a1,zero
    df74:	24560000 	addiu	s6,v0,0
			df74: R_MIPS_LO16	memset
    df78:	02c0f809 	jalr	s6
    df7c:	24060028 	li	a2,40
    df80:	3c020001 	lui	v0,0x1
			df80: R_MIPS_HI16	.text
    df84:	2453dad0 	addiu	s3,v0,-9520
			df84: R_MIPS_LO16	.text
    df88:	3c020001 	lui	v0,0x1
			df88: R_MIPS_HI16	.text
    df8c:	3c030001 	lui	v1,0x1
			df8c: R_MIPS_HI16	.text
    df90:	24421bbc 	addiu	v0,v0,7100
			df90: R_MIPS_LO16	.text
    df94:	2474dc9c 	addiu	s4,v1,-9060
			df94: R_MIPS_LO16	.text
    df98:	afa20020 	sw	v0,32(sp)
    df9c:	3c030001 	lui	v1,0x1
			df9c: R_MIPS_HI16	.text
    dfa0:	3c020001 	lui	v0,0x1
			dfa0: R_MIPS_HI16	.text
    dfa4:	2463f048 	addiu	v1,v1,-4024
			dfa4: R_MIPS_LO16	.text
    dfa8:	244212d4 	addiu	v0,v0,4820
			dfa8: R_MIPS_LO16	.text
    dfac:	3c060000 	lui	a2,0x0
			dfac: R_MIPS_HI16	$LC107
    dfb0:	afa30024 	sw	v1,36(sp)
    dfb4:	afa2002c 	sw	v0,44(sp)
    dfb8:	24030020 	li	v1,32
    dfbc:	24020100 	li	v0,256
    dfc0:	24c60000 	addiu	a2,a2,0
			dfc0: R_MIPS_LO16	$LC107
    dfc4:	02202021 	move	a0,s1
    dfc8:	02002821 	move	a1,s0
    dfcc:	afa30034 	sw	v1,52(sp)
    dfd0:	a7a20010 	sh	v0,16(sp)
    dfd4:	afa00014 	sw	zero,20(sp)
    dfd8:	a3a00018 	sb	zero,24(sp)
    dfdc:	afb1001c 	sw	s1,28(sp)
    dfe0:	0260f809 	jalr	s3
    dfe4:	afb40028 	sw	s4,40(sp)
    dfe8:	1440ffb8 	bnez	v0,decc <ar6000_init+0x34>
    dfec:	2404fffb 	li	a0,-5
    dff0:	3c020000 	lui	v0,0x0
			dff0: R_MIPS_HI16	reduce_credit_dribble
    dff4:	8c430000 	lw	v1,0(v0)
			dff4: R_MIPS_LO16	reduce_credit_dribble
    dff8:	10600008 	beqz	v1,e01c <ar6000_init+0x184>
    dffc:	3c060000 	lui	a2,0x0
			dffc: R_MIPS_HI16	$LC108
    e000:	97a20012 	lhu	v0,18(sp)
    e004:	2463ffff 	addiu	v1,v1,-1
    e008:	34420004 	ori	v0,v0,0x4
    e00c:	3042fffc 	andi	v0,v0,0xfffc
    e010:	30630003 	andi	v1,v1,0x3
    e014:	00431025 	or	v0,v0,v1
    e018:	a7a20012 	sh	v0,18(sp)
    e01c:	24020101 	li	v0,257
    e020:	24c60000 	addiu	a2,a2,0
			e020: R_MIPS_LO16	$LC108
    e024:	02202021 	move	a0,s1
    e028:	02002821 	move	a1,s0
    e02c:	0260f809 	jalr	s3
    e030:	a7a20010 	sh	v0,16(sp)
    e034:	1440ffa5 	bnez	v0,decc <ar6000_init+0x34>
    e038:	2404fffb 	li	a0,-5
    e03c:	3c060000 	lui	a2,0x0
			e03c: R_MIPS_HI16	$LC109
    e040:	24020102 	li	v0,258
    e044:	24c60000 	addiu	a2,a2,0
			e044: R_MIPS_LO16	$LC109
    e048:	02202021 	move	a0,s1
    e04c:	02002821 	move	a1,s0
    e050:	0260f809 	jalr	s3
    e054:	a7a20010 	sh	v0,16(sp)
    e058:	1440ff9c 	bnez	v0,decc <ar6000_init+0x34>
    e05c:	2404fffb 	li	a0,-5
    e060:	3c060000 	lui	a2,0x0
			e060: R_MIPS_HI16	$LC110
    e064:	24020103 	li	v0,259
    e068:	24c60000 	addiu	a2,a2,0
			e068: R_MIPS_LO16	$LC110
    e06c:	02202021 	move	a0,s1
    e070:	02002821 	move	a1,s0
    e074:	0260f809 	jalr	s3
    e078:	a7a20010 	sh	v0,16(sp)
    e07c:	1440ff93 	bnez	v0,decc <ar6000_init+0x34>
    e080:	2404fffb 	li	a0,-5
    e084:	3c060000 	lui	a2,0x0
			e084: R_MIPS_HI16	$LC111
    e088:	24020104 	li	v0,260
    e08c:	02002821 	move	a1,s0
    e090:	24c60000 	addiu	a2,a2,0
			e090: R_MIPS_LO16	$LC111
    e094:	02202021 	move	a0,s1
    e098:	0260f809 	jalr	s3
    e09c:	a7a20010 	sh	v0,16(sp)
    e0a0:	1440ff8a 	bnez	v0,decc <ar6000_init+0x34>
    e0a4:	2404fffb 	li	a0,-5
    e0a8:	8e220510 	lw	v0,1296(s1)
    e0ac:	10400099 	beqz	v0,e314 <ar6000_init+0x47c>
    e0b0:	3c040000 	lui	a0,0x0
			e0b0: R_MIPS_HI16	$LC112
    e0b4:	8e220514 	lw	v0,1300(s1)
    e0b8:	1040008c 	beqz	v0,e2ec <ar6000_init+0x454>
    e0bc:	3c040000 	lui	a0,0x0
			e0bc: R_MIPS_HI16	$LC114
    e0c0:	8e220518 	lw	v0,1304(s1)
    e0c4:	1040007f 	beqz	v0,e2c4 <ar6000_init+0x42c>
    e0c8:	3c040000 	lui	a0,0x0
			e0c8: R_MIPS_HI16	$LC116
    e0cc:	8e22051c 	lw	v0,1308(s1)
    e0d0:	10400071 	beqz	v0,e298 <ar6000_init+0x400>
    e0d4:	24020001 	li	v0,1
    e0d8:	24030002 	li	v1,2
    e0dc:	8e250540 	lw	a1,1344(s1)
    e0e0:	a2220530 	sb	v0,1328(s1)
    e0e4:	24020003 	li	v0,3
    e0e8:	a2220533 	sb	v0,1331(s1)
    e0ec:	a2230532 	sb	v1,1330(s1)
    e0f0:	02202021 	move	a0,s1
    e0f4:	0280f809 	jalr	s4
    e0f8:	a2200531 	sb	zero,1329(s1)
    e0fc:	8e250510 	lw	a1,1296(s1)
    e100:	0280f809 	jalr	s4
    e104:	02202021 	move	a0,s1
    e108:	8ea20000 	lw	v0,0(s5)
			e108: R_MIPS_LO16	bypasswmi
    e10c:	1040000a 	beqz	v0,e138 <ar6000_init+0x2a0>
    e110:	00000000 	nop
    e114:	8e250514 	lw	a1,1300(s1)
    e118:	0280f809 	jalr	s4
    e11c:	02202021 	move	a0,s1
    e120:	8e250518 	lw	a1,1304(s1)
    e124:	0280f809 	jalr	s4
    e128:	02202021 	move	a0,s1
    e12c:	8e25051c 	lw	a1,1308(s1)
    e130:	0280f809 	jalr	s4
    e134:	02202021 	move	a0,s1
    e138:	8e240040 	lw	a0,64(s1)
    e13c:	3c020000 	lui	v0,0x0
			e13c: R_MIPS_HI16	ar6000_setup_credit_dist
    e140:	26250550 	addiu	a1,s1,1360
    e144:	24420000 	addiu	v0,v0,0
			e144: R_MIPS_LO16	ar6000_setup_credit_dist
    e148:	0040f809 	jalr	v0
    e14c:	3c100000 	lui	s0,0x0
			e14c: R_MIPS_HI16	.bss
    e150:	260409d4 	addiu	a0,s0,2516
			e150: R_MIPS_LO16	.bss
    e154:	ae2004cc 	sw	zero,1228(s1)
    e158:	00002821 	move	a1,zero
    e15c:	02c0f809 	jalr	s6
    e160:	24062580 	li	a2,9600
    e164:	3c020001 	lui	v0,0x1
			e164: R_MIPS_HI16	.text
    e168:	3c030000 	lui	v1,0x0
			e168: R_MIPS_HI16	.bss
    e16c:	261009d4 	addiu	s0,s0,2516
			e16c: R_MIPS_LO16	.bss
    e170:	2454aee0 	addiu	s4,v0,-20768
			e170: R_MIPS_LO16	.text
    e174:	24732f54 	addiu	s3,v1,12116
			e174: R_MIPS_LO16	.bss
    e178:	02002821 	move	a1,s0
    e17c:	02202021 	move	a0,s1
    e180:	0280f809 	jalr	s4
    e184:	26100040 	addiu	s0,s0,64
    e188:	1613fffc 	bne	s0,s3,e17c <ar6000_init+0x2e4>
    e18c:	02002821 	move	a1,s0
    e190:	3c020000 	lui	v0,0x0
			e190: R_MIPS_HI16	HTCStart
    e194:	24420000 	addiu	v0,v0,0
			e194: R_MIPS_LO16	HTCStart
    e198:	0040f809 	jalr	v0
    e19c:	8e240040 	lw	a0,64(s1)
    e1a0:	1440002d 	bnez	v0,e258 <ar6000_init+0x3c0>
    e1a4:	3c040000 	lui	a0,0x0
			e1a4: R_MIPS_HI16	$LC120
    e1a8:	3c050000 	lui	a1,0x0
			e1a8: R_MIPS_HI16	.rodata
    e1ac:	3c020000 	lui	v0,0x0
			e1ac: R_MIPS_HI16	printk
    e1b0:	24840000 	addiu	a0,a0,0
			e1b0: R_MIPS_LO16	$LC120
    e1b4:	24420000 	addiu	v0,v0,0
			e1b4: R_MIPS_LO16	printk
    e1b8:	0040f809 	jalr	v0
    e1bc:	24a5012c 	addiu	a1,a1,300
			e1bc: R_MIPS_LO16	.rodata
    e1c0:	24030001 	li	v1,1
    e1c4:	a2230030 	sb	v1,48(s1)
    e1c8:	8ea20000 	lw	v0,0(s5)
			e1c8: R_MIPS_LO16	bypasswmi
    e1cc:	10400020 	beqz	v0,e250 <ar6000_init+0x3b8>
    e1d0:	2402ffcc 	li	v0,-52
    e1d4:	a2420139 	sb	v0,313(s2)
    e1d8:	24020002 	li	v0,2
    e1dc:	a2430135 	sb	v1,309(s2)
    e1e0:	a2420136 	sb	v0,310(s2)
    e1e4:	2403ffaa 	li	v1,-86
    e1e8:	2402ffbb 	li	v0,-69
    e1ec:	00002021 	move	a0,zero
    e1f0:	a2430137 	sb	v1,311(s2)
    e1f4:	a2420138 	sb	v0,312(s2)
    e1f8:	080037b3 	j	decc <ar6000_init+0x34>
			e1f8: R_MIPS_26	.text
    e1fc:	a2400134 	sb	zero,308(s2)
    e200:	3c050000 	lui	a1,0x0
			e200: R_MIPS_HI16	.rodata
    e204:	3c020000 	lui	v0,0x0
			e204: R_MIPS_HI16	printk
    e208:	24840000 	addiu	a0,a0,0
			e208: R_MIPS_LO16	$LC106
    e20c:	24420000 	addiu	v0,v0,0
			e20c: R_MIPS_LO16	printk
    e210:	0040f809 	jalr	v0
    e214:	24a5012c 	addiu	a1,a1,300
			e214: R_MIPS_LO16	.rodata
    e218:	080037d5 	j	df54 <ar6000_init+0xbc>
			e218: R_MIPS_26	.text
    e21c:	3c020000 	lui	v0,0x0
			e21c: R_MIPS_HI16	HTCWaitTarget
    e220:	3c020000 	lui	v0,0x0
			e220: R_MIPS_HI16	debugdriver
    e224:	8c430000 	lw	v1,0(v0)
			e224: R_MIPS_LO16	debugdriver
    e228:	1060ff27 	beqz	v1,dec8 <ar6000_init+0x30>
    e22c:	3c040000 	lui	a0,0x0
			e22c: R_MIPS_HI16	$LC105
    e230:	3c050000 	lui	a1,0x0
			e230: R_MIPS_HI16	.rodata
    e234:	3c020000 	lui	v0,0x0
			e234: R_MIPS_HI16	printk
    e238:	24840000 	addiu	a0,a0,0
			e238: R_MIPS_LO16	$LC105
    e23c:	24420000 	addiu	v0,v0,0
			e23c: R_MIPS_LO16	printk
    e240:	0040f809 	jalr	v0
    e244:	24a5012c 	addiu	a1,a1,300
			e244: R_MIPS_LO16	.rodata
    e248:	080037b3 	j	decc <ar6000_init+0x34>
			e248: R_MIPS_26	.text
    e24c:	2404fffb 	li	a0,-5
    e250:	080037b3 	j	decc <ar6000_init+0x34>
			e250: R_MIPS_26	.text
    e254:	00002021 	move	a0,zero
    e258:	8e230034 	lw	v1,52(s1)
    e25c:	24020001 	li	v0,1
    e260:	14620008 	bne	v1,v0,e284 <ar6000_init+0x3ec>
    e264:	3c020001 	lui	v0,0x1
			e264: R_MIPS_HI16	.text
    e268:	3c020000 	lui	v0,0x0
			e268: R_MIPS_HI16	wmi_shutdown
    e26c:	24420000 	addiu	v0,v0,0
			e26c: R_MIPS_LO16	wmi_shutdown
    e270:	0040f809 	jalr	v0
    e274:	8e240004 	lw	a0,4(s1)
    e278:	ae200034 	sw	zero,52(s1)
    e27c:	ae200004 	sw	zero,4(s1)
    e280:	3c020001 	lui	v0,0x1
			e280: R_MIPS_HI16	.text
    e284:	2442a07c 	addiu	v0,v0,-24452
			e284: R_MIPS_LO16	.text
    e288:	0040f809 	jalr	v0
    e28c:	02202021 	move	a0,s1
    e290:	080037b3 	j	decc <ar6000_init+0x34>
			e290: R_MIPS_26	.text
    e294:	2404fffb 	li	a0,-5
    e298:	3c040000 	lui	a0,0x0
			e298: R_MIPS_HI16	$LC118
    e29c:	3c020000 	lui	v0,0x0
			e29c: R_MIPS_HI16	printk
    e2a0:	24840000 	addiu	a0,a0,0
			e2a0: R_MIPS_LO16	$LC118
    e2a4:	24420000 	addiu	v0,v0,0
			e2a4: R_MIPS_LO16	printk
    e2a8:	0040f809 	jalr	v0
    e2ac:	2405075b 	li	a1,1883
    e2b0:	3c040000 	lui	a0,0x0
			e2b0: R_MIPS_HI16	$LC119
    e2b4:	3c020000 	lui	v0,0x0
			e2b4: R_MIPS_HI16	panic
    e2b8:	24420000 	addiu	v0,v0,0
			e2b8: R_MIPS_LO16	panic
    e2bc:	0040f809 	jalr	v0
    e2c0:	24840000 	addiu	a0,a0,0
			e2c0: R_MIPS_LO16	$LC119
    e2c4:	3c020000 	lui	v0,0x0
			e2c4: R_MIPS_HI16	printk
    e2c8:	24840000 	addiu	a0,a0,0
			e2c8: R_MIPS_LO16	$LC116
    e2cc:	24420000 	addiu	v0,v0,0
			e2cc: R_MIPS_LO16	printk
    e2d0:	0040f809 	jalr	v0
    e2d4:	2405075a 	li	a1,1882
    e2d8:	3c040000 	lui	a0,0x0
			e2d8: R_MIPS_HI16	$LC117
    e2dc:	3c020000 	lui	v0,0x0
			e2dc: R_MIPS_HI16	panic
    e2e0:	24420000 	addiu	v0,v0,0
			e2e0: R_MIPS_LO16	panic
    e2e4:	0040f809 	jalr	v0
    e2e8:	24840000 	addiu	a0,a0,0
			e2e8: R_MIPS_LO16	$LC117
    e2ec:	3c020000 	lui	v0,0x0
			e2ec: R_MIPS_HI16	printk
    e2f0:	24840000 	addiu	a0,a0,0
			e2f0: R_MIPS_LO16	$LC114
    e2f4:	24420000 	addiu	v0,v0,0
			e2f4: R_MIPS_LO16	printk
    e2f8:	0040f809 	jalr	v0
    e2fc:	24050759 	li	a1,1881
    e300:	3c040000 	lui	a0,0x0
			e300: R_MIPS_HI16	$LC115
    e304:	3c020000 	lui	v0,0x0
			e304: R_MIPS_HI16	panic
    e308:	24420000 	addiu	v0,v0,0
			e308: R_MIPS_LO16	panic
    e30c:	0040f809 	jalr	v0
    e310:	24840000 	addiu	a0,a0,0
			e310: R_MIPS_LO16	$LC115
    e314:	3c020000 	lui	v0,0x0
			e314: R_MIPS_HI16	printk
    e318:	24840000 	addiu	a0,a0,0
			e318: R_MIPS_LO16	$LC112
    e31c:	24420000 	addiu	v0,v0,0
			e31c: R_MIPS_LO16	printk
    e320:	0040f809 	jalr	v0
    e324:	24050758 	li	a1,1880
    e328:	3c040000 	lui	a0,0x0
			e328: R_MIPS_HI16	$LC113
    e32c:	3c020000 	lui	v0,0x0
			e32c: R_MIPS_HI16	panic
    e330:	24420000 	addiu	v0,v0,0
			e330: R_MIPS_LO16	panic
    e334:	0040f809 	jalr	v0
    e338:	24840000 	addiu	a0,a0,0
			e338: R_MIPS_LO16	$LC113

0000e33c <deliver_frames_to_nw_stack>:
    e33c:	27bdffe8 	addiu	sp,sp,-24
    e340:	afb00010 	sw	s0,16(sp)
    e344:	afbf0014 	sw	ra,20(sp)
    e348:	10800018 	beqz	a0,e3ac <deliver_frames_to_nw_stack+0x70>
    e34c:	00808021 	move	s0,a0
    e350:	8c830018 	lw	v1,24(a0)
    e354:	8c6200bc 	lw	v0,188(v1)
    e358:	30420001 	andi	v0,v0,0x1
    e35c:	14400007 	bnez	v0,e37c <deliver_frames_to_nw_stack+0x40>
    e360:	00602821 	move	a1,v1
    e364:	3c190000 	lui	t9,0x0
			e364: R_MIPS_HI16	a_netbuf_free
    e368:	8fbf0014 	lw	ra,20(sp)
    e36c:	8fb00010 	lw	s0,16(sp)
    e370:	27390000 	addiu	t9,t9,0
			e370: R_MIPS_LO16	a_netbuf_free
    e374:	03200008 	jr	t9
    e378:	27bd0018 	addiu	sp,sp,24
    e37c:	3c020000 	lui	v0,0x0
			e37c: R_MIPS_HI16	eth_type_trans
    e380:	24420000 	addiu	v0,v0,0
			e380: R_MIPS_LO16	eth_type_trans
    e384:	0040f809 	jalr	v0
    e388:	00000000 	nop
    e38c:	a602006a 	sh	v0,106(s0)
    e390:	3c190000 	lui	t9,0x0
			e390: R_MIPS_HI16	netif_rx
    e394:	02002021 	move	a0,s0
    e398:	8fbf0014 	lw	ra,20(sp)
    e39c:	8fb00010 	lw	s0,16(sp)
    e3a0:	27390000 	addiu	t9,t9,0
			e3a0: R_MIPS_LO16	netif_rx
    e3a4:	03200008 	jr	t9
    e3a8:	27bd0018 	addiu	sp,sp,24
    e3ac:	8fbf0014 	lw	ra,20(sp)
    e3b0:	8fb00010 	lw	s0,16(sp)
    e3b4:	03e00008 	jr	ra
    e3b8:	27bd0018 	addiu	sp,sp,24

0000e3bc <ar6000_TxDataCleanup>:
    e3bc:	27bdffe0 	addiu	sp,sp,-32
    e3c0:	afbf0018 	sw	ra,24(sp)
    e3c4:	afb10014 	sw	s1,20(sp)
    e3c8:	afb00010 	sw	s0,16(sp)
    e3cc:	00808021 	move	s0,a0
    e3d0:	3c020000 	lui	v0,0x0
			e3d0: R_MIPS_HI16	HTCFlushEndpoint
    e3d4:	8e050510 	lw	a1,1296(s0)
    e3d8:	8c840040 	lw	a0,64(a0)
    e3dc:	24510000 	addiu	s1,v0,0
			e3dc: R_MIPS_LO16	HTCFlushEndpoint
    e3e0:	0220f809 	jalr	s1
    e3e4:	2406000b 	li	a2,11
    e3e8:	8e040040 	lw	a0,64(s0)
    e3ec:	8e050514 	lw	a1,1300(s0)
    e3f0:	0220f809 	jalr	s1
    e3f4:	2406000b 	li	a2,11
    e3f8:	8e040040 	lw	a0,64(s0)
    e3fc:	8e050518 	lw	a1,1304(s0)
    e400:	0220f809 	jalr	s1
    e404:	2406000b 	li	a2,11
    e408:	8e05051c 	lw	a1,1308(s0)
    e40c:	8e040040 	lw	a0,64(s0)
    e410:	0220c821 	move	t9,s1
    e414:	8fbf0018 	lw	ra,24(sp)
    e418:	8fb10014 	lw	s1,20(sp)
    e41c:	8fb00010 	lw	s0,16(sp)
    e420:	2406000b 	li	a2,11
    e424:	03200008 	jr	t9
    e428:	27bd0020 	addiu	sp,sp,32

0000e42c <dbglog_get_debug_hdr_ptr>:
    e42c:	27bdffe0 	addiu	sp,sp,-32
    e430:	afbf0018 	sw	ra,24(sp)
    e434:	8c8601cc 	lw	a2,460(a0)
    e438:	24020001 	li	v0,1
    e43c:	10c2000a 	beq	a2,v0,e468 <dbglog_get_debug_hdr_ptr+0x3c>
    e440:	24050608 	li	a1,1544
    e444:	3c030010 	lui	v1,0x10
    e448:	24020002 	li	v0,2
    e44c:	10c20006 	beq	a2,v0,e468 <dbglog_get_debug_hdr_ptr+0x3c>
    e450:	34650408 	ori	a1,v1,0x408
    e454:	3c030014 	lui	v1,0x14
    e458:	24020003 	li	v0,3
    e45c:	10c20002 	beq	a2,v0,e468 <dbglog_get_debug_hdr_ptr+0x3c>
    e460:	34650608 	ori	a1,v1,0x608
    e464:	00002821 	move	a1,zero
    e468:	8c840044 	lw	a0,68(a0)
    e46c:	3c020000 	lui	v0,0x0
			e46c: R_MIPS_HI16	ar6000_ReadDataDiag
    e470:	27a60010 	addiu	a2,sp,16
    e474:	24420000 	addiu	v0,v0,0
			e474: R_MIPS_LO16	ar6000_ReadDataDiag
    e478:	0040f809 	jalr	v0
    e47c:	24070004 	li	a3,4
    e480:	8fa30010 	lw	v1,16(sp)
    e484:	8fbf0018 	lw	ra,24(sp)
    e488:	0002180b 	movn	v1,zero,v0
    e48c:	00601021 	move	v0,v1
    e490:	03e00008 	jr	ra
    e494:	27bd0020 	addiu	sp,sp,32

0000e498 <ar6000_dbglog_get_debug_logs>:
    e498:	27bdffa0 	addiu	sp,sp,-96
    e49c:	afb1003c 	sw	s1,60(sp)
    e4a0:	afbf005c 	sw	ra,92(sp)
    e4a4:	afbe0058 	sw	s8,88(sp)
    e4a8:	afb70054 	sw	s7,84(sp)
    e4ac:	afb60050 	sw	s6,80(sp)
    e4b0:	afb5004c 	sw	s5,76(sp)
    e4b4:	afb40048 	sw	s4,72(sp)
    e4b8:	afb30044 	sw	s3,68(sp)
    e4bc:	afb20040 	sw	s2,64(sp)
    e4c0:	afb00038 	sw	s0,56(sp)
    e4c4:	8c820b44 	lw	v0,2884(a0)
    e4c8:	10400038 	beqz	v0,e5ac <ar6000_dbglog_get_debug_logs+0x114>
    e4cc:	00808821 	move	s1,a0
    e4d0:	40026000 	mfc0	v0,c0_status
    e4d4:	30420001 	andi	v0,v0,0x1
    e4d8:	10400022 	beqz	v0,e564 <ar6000_dbglog_get_debug_logs+0xcc>
    e4dc:	3c020000 	lui	v0,0x0
			e4dc: R_MIPS_HI16	debugdriver
    e4e0:	3c020000 	lui	v0,0x0
			e4e0: R_MIPS_HI16	local_bh_disable
    e4e4:	24420000 	addiu	v0,v0,0
			e4e4: R_MIPS_LO16	local_bh_disable
    e4e8:	0040f809 	jalr	v0
    e4ec:	00000000 	nop
    e4f0:	8f820014 	lw	v0,20(gp)
    e4f4:	24420001 	addiu	v0,v0,1
    e4f8:	af820014 	sw	v0,20(gp)
    e4fc:	8e220560 	lw	v0,1376(s1)
    e500:	10400037 	beqz	v0,e5e0 <ar6000_dbglog_get_debug_logs+0x148>
    e504:	24030001 	li	v1,1
    e508:	40026000 	mfc0	v0,c0_status
    e50c:	30420001 	andi	v0,v0,0x1
    e510:	1040001d 	beqz	v0,e588 <ar6000_dbglog_get_debug_logs+0xf0>
    e514:	3c020000 	lui	v0,0x0
			e514: R_MIPS_HI16	debugdriver
    e518:	8f830014 	lw	v1,20(gp)
    e51c:	3c040000 	lui	a0,0x0
			e51c: R_MIPS_HI16	local_bh_enable
    e520:	2463ffff 	addiu	v1,v1,-1
    e524:	24840000 	addiu	a0,a0,0
			e524: R_MIPS_LO16	local_bh_enable
    e528:	0080f809 	jalr	a0
    e52c:	af830014 	sw	v1,20(gp)
    e530:	2402000d 	li	v0,13
    e534:	8fbf005c 	lw	ra,92(sp)
    e538:	8fbe0058 	lw	s8,88(sp)
    e53c:	8fb70054 	lw	s7,84(sp)
    e540:	8fb60050 	lw	s6,80(sp)
    e544:	8fb5004c 	lw	s5,76(sp)
    e548:	8fb40048 	lw	s4,72(sp)
    e54c:	8fb30044 	lw	s3,68(sp)
    e550:	8fb20040 	lw	s2,64(sp)
    e554:	8fb1003c 	lw	s1,60(sp)
    e558:	8fb00038 	lw	s0,56(sp)
    e55c:	03e00008 	jr	ra
    e560:	27bd0060 	addiu	sp,sp,96
    e564:	8c430000 	lw	v1,0(v0)
			e564: R_MIPS_LO16	debugdriver
    e568:	1060ffdd 	beqz	v1,e4e0 <ar6000_dbglog_get_debug_logs+0x48>
    e56c:	3c040000 	lui	a0,0x0
			e56c: R_MIPS_HI16	$LC97
    e570:	3c020000 	lui	v0,0x0
			e570: R_MIPS_HI16	printk
    e574:	24420000 	addiu	v0,v0,0
			e574: R_MIPS_LO16	printk
    e578:	0040f809 	jalr	v0
    e57c:	24840000 	addiu	a0,a0,0
			e57c: R_MIPS_LO16	$LC97
    e580:	08003939 	j	e4e4 <ar6000_dbglog_get_debug_logs+0x4c>
			e580: R_MIPS_26	.text
    e584:	3c020000 	lui	v0,0x0
			e584: R_MIPS_HI16	local_bh_disable
    e588:	8c430000 	lw	v1,0(v0)
			e588: R_MIPS_LO16	debugdriver
    e58c:	1060ffe2 	beqz	v1,e518 <ar6000_dbglog_get_debug_logs+0x80>
    e590:	3c040000 	lui	a0,0x0
			e590: R_MIPS_HI16	$LC99
    e594:	3c020000 	lui	v0,0x0
			e594: R_MIPS_HI16	printk
    e598:	24420000 	addiu	v0,v0,0
			e598: R_MIPS_LO16	printk
    e59c:	0040f809 	jalr	v0
    e5a0:	24840000 	addiu	a0,a0,0
			e5a0: R_MIPS_LO16	$LC99
    e5a4:	08003946 	j	e518 <ar6000_dbglog_get_debug_logs+0x80>
			e5a4: R_MIPS_26	.text
    e5a8:	00000000 	nop
    e5ac:	8fbf005c 	lw	ra,92(sp)
    e5b0:	8fbe0058 	lw	s8,88(sp)
    e5b4:	8fb70054 	lw	s7,84(sp)
    e5b8:	8fb60050 	lw	s6,80(sp)
    e5bc:	8fb5004c 	lw	s5,76(sp)
    e5c0:	8fb40048 	lw	s4,72(sp)
    e5c4:	8fb30044 	lw	s3,68(sp)
    e5c8:	8fb20040 	lw	s2,64(sp)
    e5cc:	8fb1003c 	lw	s1,60(sp)
    e5d0:	8fb00038 	lw	s0,56(sp)
    e5d4:	2402ffff 	li	v0,-1
    e5d8:	03e00008 	jr	ra
    e5dc:	27bd0060 	addiu	sp,sp,96
    e5e0:	ae230560 	sw	v1,1376(s1)
    e5e4:	40026000 	mfc0	v0,c0_status
    e5e8:	30420001 	andi	v0,v0,0x1
    e5ec:	14400004 	bnez	v0,e600 <ar6000_dbglog_get_debug_logs+0x168>
    e5f0:	3c020000 	lui	v0,0x0
			e5f0: R_MIPS_HI16	debugdriver
    e5f4:	8c430000 	lw	v1,0(v0)
			e5f4: R_MIPS_LO16	debugdriver
    e5f8:	14600072 	bnez	v1,e7c4 <ar6000_dbglog_get_debug_logs+0x32c>
    e5fc:	3c040000 	lui	a0,0x0
			e5fc: R_MIPS_HI16	$LC99
    e600:	8f820014 	lw	v0,20(gp)
    e604:	3c030000 	lui	v1,0x0
			e604: R_MIPS_HI16	local_bh_enable
    e608:	2442ffff 	addiu	v0,v0,-1
    e60c:	24630000 	addiu	v1,v1,0
			e60c: R_MIPS_LO16	local_bh_enable
    e610:	0060f809 	jalr	v1
    e614:	af820014 	sw	v0,20(gp)
    e618:	3c020000 	lui	v0,0x0
			e618: R_MIPS_HI16	dbglog_get_debug_hdr_ptr
    e61c:	24420000 	addiu	v0,v0,0
			e61c: R_MIPS_LO16	dbglog_get_debug_hdr_ptr
    e620:	0040f809 	jalr	v0
    e624:	02202021 	move	a0,s1
    e628:	10400054 	beqz	v0,e77c <ar6000_dbglog_get_debug_logs+0x2e4>
    e62c:	00402821 	move	a1,v0
    e630:	8e2301cc 	lw	v1,460(s1)
    e634:	24020001 	li	v0,1
    e638:	1062006c 	beq	v1,v0,e7ec <ar6000_dbglog_get_debug_logs+0x354>
    e63c:	3c02001f 	lui	v0,0x1f
    e640:	3442ffff 	ori	v0,v0,0xffff
    e644:	00a22824 	and	a1,a1,v0
    e648:	8e240044 	lw	a0,68(s1)
    e64c:	3c100000 	lui	s0,0x0
			e64c: R_MIPS_HI16	ar6000_ReadDataDiag
    e650:	27a60010 	addiu	a2,sp,16
    e654:	26020000 	addiu	v0,s0,0
			e654: R_MIPS_LO16	ar6000_ReadDataDiag
    e658:	0040f809 	jalr	v0
    e65c:	24070008 	li	a3,8
    e660:	8e2301cc 	lw	v1,460(s1)
    e664:	24020001 	li	v0,1
    e668:	1062005c 	beq	v1,v0,e7dc <ar6000_dbglog_get_debug_logs+0x344>
    e66c:	8fa30010 	lw	v1,16(sp)
    e670:	3c02001f 	lui	v0,0x1f
    e674:	3442ffff 	ori	v0,v0,0xffff
    e678:	00629024 	and	s2,v1,v0
    e67c:	8fa20014 	lw	v0,20(sp)
    e680:	8e240044 	lw	a0,68(s1)
    e684:	27b70018 	addiu	s7,sp,24
    e688:	26100000 	addiu	s0,s0,0
			e688: R_MIPS_LO16	ar6000_ReadDataDiag
    e68c:	02402821 	move	a1,s2
    e690:	02e03021 	move	a2,s7
    e694:	24070018 	li	a3,24
    e698:	0200f809 	jalr	s0
    e69c:	afa20030 	sw	v0,48(sp)
    e6a0:	3c030fff 	lui	v1,0xfff
    e6a4:	3c02001f 	lui	v0,0x1f
    e6a8:	347effff 	ori	s8,v1,0xffff
    e6ac:	3454ffff 	ori	s4,v0,0xffff
    e6b0:	0200a821 	move	s5,s0
    e6b4:	24130001 	li	s3,1
    e6b8:	26360564 	addiu	s6,s1,1380
    e6bc:	8e2401cc 	lw	a0,460(s1)
    e6c0:	1093003c 	beq	a0,s3,e7b4 <ar6000_dbglog_get_debug_logs+0x31c>
    e6c4:	8fa2001c 	lw	v0,28(sp)
    e6c8:	00542824 	and	a1,v0,s4
    e6cc:	8fb00024 	lw	s0,36(sp)
    e6d0:	1200002d 	beqz	s0,e788 <ar6000_dbglog_get_debug_logs+0x2f0>
    e6d4:	3c020000 	lui	v0,0x0
			e6d4: R_MIPS_HI16	debugdriver
    e6d8:	8fa20020 	lw	v0,32(sp)
    e6dc:	0050102b 	sltu	v0,v0,s0
    e6e0:	14400029 	bnez	v0,e788 <ar6000_dbglog_get_debug_logs+0x2f0>
    e6e4:	3c020000 	lui	v0,0x0
			e6e4: R_MIPS_HI16	debugdriver
    e6e8:	8e230b40 	lw	v1,2880(s1)
    e6ec:	240205dc 	li	v0,1500
    e6f0:	00501023 	subu	v0,v0,s0
    e6f4:	0043102b 	sltu	v0,v0,v1
    e6f8:	10400003 	beqz	v0,e708 <ar6000_dbglog_get_debug_logs+0x270>
    e6fc:	00000000 	nop
    e700:	ae200b40 	sw	zero,2880(s1)
    e704:	00001821 	move	v1,zero
    e708:	8e240044 	lw	a0,68(s1)
    e70c:	02c33021 	addu	a2,s6,v1
    e710:	02a0f809 	jalr	s5
    e714:	02003821 	move	a3,s0
    e718:	14400018 	bnez	v0,e77c <ar6000_dbglog_get_debug_logs+0x2e4>
    e71c:	8fa50030 	lw	a1,48(sp)
    e720:	8e260b40 	lw	a2,2880(s1)
    e724:	3c030000 	lui	v1,0x0
			e724: R_MIPS_HI16	ar6000_dbglog_event
    e728:	02202021 	move	a0,s1
    e72c:	02c63021 	addu	a2,s6,a2
    e730:	24630000 	addiu	v1,v1,0
			e730: R_MIPS_LO16	ar6000_dbglog_event
    e734:	0060f809 	jalr	v1
    e738:	02003821 	move	a3,s0
    e73c:	8e220b40 	lw	v0,2880(s1)
    e740:	8e2401cc 	lw	a0,460(s1)
    e744:	00501021 	addu	v0,v0,s0
    e748:	ae220b40 	sw	v0,2880(s1)
    e74c:	1093001b 	beq	a0,s3,e7bc <ar6000_dbglog_get_debug_logs+0x324>
    e750:	8fa20018 	lw	v0,24(sp)
    e754:	00548024 	and	s0,v0,s4
    e758:	8e240044 	lw	a0,68(s1)
    e75c:	02002821 	move	a1,s0
    e760:	02e03021 	move	a2,s7
    e764:	02a0f809 	jalr	s5
    e768:	24070018 	li	a3,24
    e76c:	14400004 	bnez	v0,e780 <ar6000_dbglog_get_debug_logs+0x2e8>
    e770:	00001021 	move	v0,zero
    e774:	1612ffd1 	bne	s0,s2,e6bc <ar6000_dbglog_get_debug_logs+0x224>
    e778:	00000000 	nop
    e77c:	00001021 	move	v0,zero
    e780:	0800394d 	j	e534 <ar6000_dbglog_get_debug_logs+0x9c>
			e780: R_MIPS_26	.text
    e784:	ae200560 	sw	zero,1376(s1)
    e788:	8c430000 	lw	v1,0(v0)
			e788: R_MIPS_LO16	debugdriver
    e78c:	1060ffef 	beqz	v1,e74c <ar6000_dbglog_get_debug_logs+0x2b4>
    e790:	8fa60020 	lw	a2,32(sp)
    e794:	3c040000 	lui	a0,0x0
			e794: R_MIPS_HI16	$LC121
    e798:	3c030000 	lui	v1,0x0
			e798: R_MIPS_HI16	printk
    e79c:	24840000 	addiu	a0,a0,0
			e79c: R_MIPS_LO16	$LC121
    e7a0:	24630000 	addiu	v1,v1,0
			e7a0: R_MIPS_LO16	printk
    e7a4:	0060f809 	jalr	v1
    e7a8:	02002821 	move	a1,s0
    e7ac:	080039d3 	j	e74c <ar6000_dbglog_get_debug_logs+0x2b4>
			e7ac: R_MIPS_26	.text
    e7b0:	8e2401cc 	lw	a0,460(s1)
    e7b4:	080039b3 	j	e6cc <ar6000_dbglog_get_debug_logs+0x234>
			e7b4: R_MIPS_26	.text
    e7b8:	005e2824 	and	a1,v0,s8
    e7bc:	080039d6 	j	e758 <ar6000_dbglog_get_debug_logs+0x2c0>
			e7bc: R_MIPS_26	.text
    e7c0:	005e8024 	and	s0,v0,s8
    e7c4:	3c020000 	lui	v0,0x0
			e7c4: R_MIPS_HI16	printk
    e7c8:	24420000 	addiu	v0,v0,0
			e7c8: R_MIPS_LO16	printk
    e7cc:	0040f809 	jalr	v0
    e7d0:	24840000 	addiu	a0,a0,0
			e7d0: R_MIPS_LO16	$LC99
    e7d4:	08003980 	j	e600 <ar6000_dbglog_get_debug_logs+0x168>
			e7d4: R_MIPS_26	.text
    e7d8:	00000000 	nop
    e7dc:	3c020fff 	lui	v0,0xfff
    e7e0:	3442ffff 	ori	v0,v0,0xffff
    e7e4:	0800399f 	j	e67c <ar6000_dbglog_get_debug_logs+0x1e4>
			e7e4: R_MIPS_26	.text
    e7e8:	00629024 	and	s2,v1,v0
    e7ec:	3c020fff 	lui	v0,0xfff
    e7f0:	3442ffff 	ori	v0,v0,0xffff
    e7f4:	08003992 	j	e648 <ar6000_dbglog_get_debug_logs+0x1b0>
			e7f4: R_MIPS_26	.text
    e7f8:	00a22824 	and	a1,a1,v0

0000e7fc <ar6000_destroy>:
    e7fc:	27bdffd8 	addiu	sp,sp,-40
    e800:	afb40020 	sw	s4,32(sp)
    e804:	afb3001c 	sw	s3,28(sp)
    e808:	afb20018 	sw	s2,24(sp)
    e80c:	afbf0024 	sw	ra,36(sp)
    e810:	afb10014 	sw	s1,20(sp)
    e814:	afb00010 	sw	s0,16(sp)
    e818:	3c130000 	lui	s3,0x0
			e818: R_MIPS_HI16	debugdriver
    e81c:	8e620000 	lw	v0,0(s3)
			e81c: R_MIPS_LO16	debugdriver
    e820:	00809021 	move	s2,a0
    e824:	144000a5 	bnez	v0,eabc <ar6000_destroy+0x2c0>
    e828:	00a0a021 	move	s4,a1
    e82c:	124000ab 	beqz	s2,eadc <ar6000_destroy+0x2e0>
    e830:	00000000 	nop
    e834:	8e500194 	lw	s0,404(s2)
    e838:	120000a7 	beqz	s0,ead8 <ar6000_destroy+0x2dc>
    e83c:	3c020000 	lui	v0,0x0
			e83c: R_MIPS_HI16	cpu_data
    e840:	8c430008 	lw	v1,8(v0)
			e840: R_MIPS_LO16	cpu_data
    e844:	3c040001 	lui	a0,0x1
    e848:	00641824 	and	v1,v1,a0
    e84c:	1060005d 	beqz	v1,e9c4 <ar6000_destroy+0x1c8>
    e850:	00000000 	nop
    e854:	c242002c 	ll	v0,44(s2)
    e858:	34420001 	ori	v0,v0,0x1
    e85c:	e242002c 	sc	v0,44(s2)
    e860:	10401129 	beqz	v0,12d08 <ar6000_connect_event+0xbac>
    e864:	00000000 	nop
    e868:	8e020038 	lw	v0,56(s0)
    e86c:	24110001 	li	s1,1
    e870:	1051006e 	beq	v0,s1,ea2c <ar6000_destroy+0x230>
    e874:	3c020000 	lui	v0,0x0
			e874: R_MIPS_HI16	bypasswmi
    e878:	8e620000 	lw	v0,0(s3)
			e878: R_MIPS_LO16	debugdriver
    e87c:	144000c0 	bnez	v0,eb80 <ar6000_destroy+0x384>
    e880:	3c040000 	lui	a0,0x0
			e880: R_MIPS_HI16	$LC126
    e884:	8e020034 	lw	v0,52(s0)
    e888:	105100c8 	beq	v0,s1,ebac <ar6000_destroy+0x3b0>
    e88c:	3c020000 	lui	v0,0x0
			e88c: R_MIPS_HI16	debugdriver
    e890:	8e040040 	lw	a0,64(s0)
    e894:	1080000b 	beqz	a0,e8c4 <ar6000_destroy+0xc8>
    e898:	8e620000 	lw	v0,0(s3)
			e898: R_MIPS_LO16	debugdriver
    e89c:	144000b2 	bnez	v0,eb68 <ar6000_destroy+0x36c>
    e8a0:	3c020000 	lui	v0,0x0
			e8a0: R_MIPS_HI16	printk
    e8a4:	3c020000 	lui	v0,0x0
			e8a4: R_MIPS_HI16	HTCStop
    e8a8:	24420000 	addiu	v0,v0,0
			e8a8: R_MIPS_LO16	HTCStop
    e8ac:	0040f809 	jalr	v0
    e8b0:	00000000 	nop
    e8b4:	3c020000 	lui	v0,0x0
			e8b4: R_MIPS_HI16	HTCDestroy
    e8b8:	24420000 	addiu	v0,v0,0
			e8b8: R_MIPS_LO16	HTCDestroy
    e8bc:	0040f809 	jalr	v0
    e8c0:	8e040040 	lw	a0,64(s0)
    e8c4:	3c020000 	lui	v0,0x0
			e8c4: R_MIPS_HI16	resetok
    e8c8:	8c430000 	lw	v1,0(v0)
			e8c8: R_MIPS_LO16	resetok
    e8cc:	10600092 	beqz	v1,eb18 <ar6000_destroy+0x31c>
    e8d0:	8e620000 	lw	v0,0(s3)
			e8d0: R_MIPS_LO16	debugdriver
    e8d4:	144000c5 	bnez	v0,ebec <ar6000_destroy+0x3f0>
    e8d8:	3c040000 	lui	a0,0x0
			e8d8: R_MIPS_HI16	$LC129
    e8dc:	8e040044 	lw	a0,68(s0)
    e8e0:	1080000f 	beqz	a0,e920 <ar6000_destroy+0x124>
    e8e4:	3c020000 	lui	v0,0x0
			e8e4: R_MIPS_HI16	ar6000_reset_device
    e8e8:	8e0501cc 	lw	a1,460(s0)
    e8ec:	24420000 	addiu	v0,v0,0
			e8ec: R_MIPS_LO16	ar6000_reset_device
    e8f0:	0040f809 	jalr	v0
    e8f4:	24060001 	li	a2,1
    e8f8:	8e040044 	lw	a0,68(s0)
    e8fc:	10800008 	beqz	a0,e920 <ar6000_destroy+0x124>
    e900:	3c020000 	lui	v0,0x0
			e900: R_MIPS_HI16	HIFReleaseDevice
    e904:	24420000 	addiu	v0,v0,0
			e904: R_MIPS_LO16	HIFReleaseDevice
    e908:	0040f809 	jalr	v0
    e90c:	00000000 	nop
    e910:	3c020000 	lui	v0,0x0
			e910: R_MIPS_HI16	HIFShutDownDevice
    e914:	24420000 	addiu	v0,v0,0
			e914: R_MIPS_LO16	HIFShutDownDevice
    e918:	0040f809 	jalr	v0
    e91c:	8e040044 	lw	a0,68(s0)
    e920:	3c020001 	lui	v0,0x1
			e920: R_MIPS_HI16	.text
    e924:	2442a07c 	addiu	v0,v0,-24452
			e924: R_MIPS_LO16	.text
    e928:	0040f809 	jalr	v0
    e92c:	02002021 	move	a0,s0
    e930:	3c030000 	lui	v1,0x0
			e930: R_MIPS_HI16	BMIInit
    e934:	24630000 	addiu	v1,v1,0
			e934: R_MIPS_LO16	BMIInit
    e938:	0060f809 	jalr	v1
    e93c:	3c100000 	lui	s0,0x0
			e93c: R_MIPS_HI16	memset
    e940:	3c040000 	lui	a0,0x0
			e940: R_MIPS_HI16	tx_attempt
    e944:	24840000 	addiu	a0,a0,0
			e944: R_MIPS_LO16	tx_attempt
    e948:	26100000 	addiu	s0,s0,0
			e948: R_MIPS_LO16	memset
    e94c:	00002821 	move	a1,zero
    e950:	0200f809 	jalr	s0
    e954:	24060010 	li	a2,16
    e958:	3c040000 	lui	a0,0x0
			e958: R_MIPS_HI16	tx_post
    e95c:	24840000 	addiu	a0,a0,0
			e95c: R_MIPS_LO16	tx_post
    e960:	00002821 	move	a1,zero
    e964:	0200f809 	jalr	s0
    e968:	24060010 	li	a2,16
    e96c:	3c040000 	lui	a0,0x0
			e96c: R_MIPS_HI16	tx_complete
    e970:	24840000 	addiu	a0,a0,0
			e970: R_MIPS_LO16	tx_complete
    e974:	00002821 	move	a1,zero
    e978:	0200f809 	jalr	s0
    e97c:	24060010 	li	a2,16
    e980:	16800074 	bnez	s4,eb54 <ar6000_destroy+0x358>
    e984:	3c020000 	lui	v0,0x0
			e984: R_MIPS_HI16	unregister_netdev
    e988:	3c020000 	lui	v0,0x0
			e988: R_MIPS_HI16	kfree
    e98c:	24420000 	addiu	v0,v0,0
			e98c: R_MIPS_LO16	kfree
    e990:	0040f809 	jalr	v0
    e994:	02402021 	move	a0,s2
    e998:	8e630000 	lw	v1,0(s3)
			e998: R_MIPS_LO16	debugdriver
    e99c:	14600062 	bnez	v1,eb28 <ar6000_destroy+0x32c>
    e9a0:	3c190000 	lui	t9,0x0
			e9a0: R_MIPS_HI16	printk
    e9a4:	8fbf0024 	lw	ra,36(sp)
    e9a8:	8fb40020 	lw	s4,32(sp)
    e9ac:	8fb3001c 	lw	s3,28(sp)
    e9b0:	8fb20018 	lw	s2,24(sp)
    e9b4:	8fb10014 	lw	s1,20(sp)
    e9b8:	8fb00010 	lw	s0,16(sp)
    e9bc:	03e00008 	jr	ra
    e9c0:	27bd0028 	addiu	sp,sp,40
    e9c4:	40036000 	mfc0	v1,c0_status
    e9c8:	3461001f 	ori	at,v1,0x1f
    e9cc:	3821001f 	xori	at,at,0x1f
    e9d0:	40816000 	mtc0	at,c0_status
    e9d4:	00000040 	ssnop
    e9d8:	00000040 	ssnop
    e9dc:	00000040 	ssnop
    e9e0:	000000c0 	sll	zero,zero,0x3
    e9e4:	8e42002c 	lw	v0,44(s2)
    e9e8:	34420001 	ori	v0,v0,0x1
    e9ec:	ae42002c 	sw	v0,44(s2)
    e9f0:	40016000 	mfc0	at,c0_status
    e9f4:	30630001 	andi	v1,v1,0x1
    e9f8:	3421001f 	ori	at,at,0x1f
    e9fc:	3821001f 	xori	at,at,0x1f
    ea00:	00611825 	or	v1,v1,at
    ea04:	40836000 	mtc0	v1,c0_status
    ea08:	00000040 	ssnop
    ea0c:	00000040 	ssnop
    ea10:	00000040 	ssnop
    ea14:	000000c0 	sll	zero,zero,0x3
    ea18:	8e020038 	lw	v0,56(s0)
    ea1c:	24110001 	li	s1,1
    ea20:	1451ff96 	bne	v0,s1,e87c <ar6000_destroy+0x80>
    ea24:	8e620000 	lw	v0,0(s3)
			ea24: R_MIPS_LO16	debugdriver
    ea28:	3c020000 	lui	v0,0x0
			ea28: R_MIPS_HI16	bypasswmi
    ea2c:	8c430000 	lw	v1,0(v0)
			ea2c: R_MIPS_LO16	bypasswmi
    ea30:	14600018 	bnez	v1,ea94 <ar6000_destroy+0x298>
    ea34:	8e620000 	lw	v0,0(s3)
			ea34: R_MIPS_LO16	debugdriver
    ea38:	8e02003c 	lw	v0,60(s0)
    ea3c:	10510072 	beq	v0,s1,ec08 <ar6000_destroy+0x40c>
    ea40:	8e620000 	lw	v0,0(s3)
			ea40: R_MIPS_LO16	debugdriver
    ea44:	8e0204d8 	lw	v0,1240(s0)
    ea48:	1051006e 	beq	v0,s1,ec04 <ar6000_destroy+0x408>
    ea4c:	3c020000 	lui	v0,0x0
			ea4c: R_MIPS_HI16	ar6000_dbglog_get_debug_logs
    ea50:	24420000 	addiu	v0,v0,0
			ea50: R_MIPS_LO16	ar6000_dbglog_get_debug_logs
    ea54:	0040f809 	jalr	v0
    ea58:	02002021 	move	a0,s0
    ea5c:	8e040004 	lw	a0,4(s0)
    ea60:	3c020000 	lui	v0,0x0
			ea60: R_MIPS_HI16	wmi_shutdown
    ea64:	ae000038 	sw	zero,56(s0)
    ea68:	ae00003c 	sw	zero,60(s0)
    ea6c:	24420000 	addiu	v0,v0,0
			ea6c: R_MIPS_LO16	wmi_shutdown
    ea70:	0040f809 	jalr	v0
    ea74:	ae0004d8 	sw	zero,1240(s0)
    ea78:	24030001 	li	v1,1
    ea7c:	ae03044c 	sw	v1,1100(s0)
    ea80:	ae000034 	sw	zero,52(s0)
    ea84:	ae000004 	sw	zero,4(s0)
    ea88:	ae000b4c 	sw	zero,2892(s0)
    ea8c:	ae000b50 	sw	zero,2896(s0)
    ea90:	8e620000 	lw	v0,0(s3)
			ea90: R_MIPS_LO16	debugdriver
    ea94:	1040ff7e 	beqz	v0,e890 <ar6000_destroy+0x94>
    ea98:	3c040000 	lui	a0,0x0
			ea98: R_MIPS_HI16	$LC125
    ea9c:	3c050000 	lui	a1,0x0
			ea9c: R_MIPS_HI16	.rodata
    eaa0:	3c020000 	lui	v0,0x0
			eaa0: R_MIPS_HI16	printk
    eaa4:	24840000 	addiu	a0,a0,0
			eaa4: R_MIPS_LO16	$LC125
    eaa8:	24420000 	addiu	v0,v0,0
			eaa8: R_MIPS_LO16	printk
    eaac:	0040f809 	jalr	v0
    eab0:	24a500b4 	addiu	a1,a1,180
			eab0: R_MIPS_LO16	.rodata
    eab4:	08003a25 	j	e894 <ar6000_destroy+0x98>
			eab4: R_MIPS_26	.text
    eab8:	8e040040 	lw	a0,64(s0)
    eabc:	3c040000 	lui	a0,0x0
			eabc: R_MIPS_HI16	$LC122
    eac0:	3c020000 	lui	v0,0x0
			eac0: R_MIPS_HI16	printk
    eac4:	24420000 	addiu	v0,v0,0
			eac4: R_MIPS_LO16	printk
    eac8:	0040f809 	jalr	v0
    eacc:	24840000 	addiu	a0,a0,0
			eacc: R_MIPS_LO16	$LC122
    ead0:	1640ff58 	bnez	s2,e834 <ar6000_destroy+0x38>
    ead4:	00000000 	nop
    ead8:	8e620000 	lw	v0,0(s3)
			ead8: R_MIPS_LO16	debugdriver
    eadc:	1040ffb2 	beqz	v0,e9a8 <ar6000_destroy+0x1ac>
    eae0:	8fbf0024 	lw	ra,36(sp)
    eae4:	3c040000 	lui	a0,0x0
			eae4: R_MIPS_HI16	$LC123
    eae8:	3c050000 	lui	a1,0x0
			eae8: R_MIPS_HI16	.rodata
    eaec:	3c190000 	lui	t9,0x0
			eaec: R_MIPS_HI16	printk
    eaf0:	8fb40020 	lw	s4,32(sp)
    eaf4:	8fb3001c 	lw	s3,28(sp)
    eaf8:	8fb20018 	lw	s2,24(sp)
    eafc:	8fb10014 	lw	s1,20(sp)
    eb00:	8fb00010 	lw	s0,16(sp)
    eb04:	24840000 	addiu	a0,a0,0
			eb04: R_MIPS_LO16	$LC123
    eb08:	24a500b4 	addiu	a1,a1,180
			eb08: R_MIPS_LO16	.rodata
    eb0c:	27390000 	addiu	t9,t9,0
			eb0c: R_MIPS_LO16	printk
    eb10:	03200008 	jr	t9
    eb14:	27bd0028 	addiu	sp,sp,40
    eb18:	1440002e 	bnez	v0,ebd4 <ar6000_destroy+0x3d8>
    eb1c:	3c020000 	lui	v0,0x0
			eb1c: R_MIPS_HI16	printk
    eb20:	08003a3f 	j	e8fc <ar6000_destroy+0x100>
			eb20: R_MIPS_26	.text
    eb24:	8e040044 	lw	a0,68(s0)
    eb28:	3c040000 	lui	a0,0x0
			eb28: R_MIPS_HI16	$LC131
    eb2c:	8fbf0024 	lw	ra,36(sp)
    eb30:	8fb40020 	lw	s4,32(sp)
    eb34:	8fb3001c 	lw	s3,28(sp)
    eb38:	8fb20018 	lw	s2,24(sp)
    eb3c:	8fb10014 	lw	s1,20(sp)
    eb40:	8fb00010 	lw	s0,16(sp)
    eb44:	24840000 	addiu	a0,a0,0
			eb44: R_MIPS_LO16	$LC131
    eb48:	27390000 	addiu	t9,t9,0
			eb48: R_MIPS_LO16	printk
    eb4c:	03200008 	jr	t9
    eb50:	27bd0028 	addiu	sp,sp,40
    eb54:	24420000 	addiu	v0,v0,0
			eb54: R_MIPS_LO16	unregister_netdev
    eb58:	0040f809 	jalr	v0
    eb5c:	02402021 	move	a0,s2
    eb60:	08003a63 	j	e98c <ar6000_destroy+0x190>
			eb60: R_MIPS_26	.text
    eb64:	3c020000 	lui	v0,0x0
			eb64: R_MIPS_HI16	kfree
    eb68:	3c040000 	lui	a0,0x0
			eb68: R_MIPS_HI16	$LC128
    eb6c:	24420000 	addiu	v0,v0,0
			eb6c: R_MIPS_LO16	printk
    eb70:	0040f809 	jalr	v0
    eb74:	24840000 	addiu	a0,a0,0
			eb74: R_MIPS_LO16	$LC128
    eb78:	08003a29 	j	e8a4 <ar6000_destroy+0xa8>
			eb78: R_MIPS_26	.text
    eb7c:	8e040040 	lw	a0,64(s0)
    eb80:	8e070004 	lw	a3,4(s0)
    eb84:	3c050000 	lui	a1,0x0
			eb84: R_MIPS_HI16	.rodata
    eb88:	3c020000 	lui	v0,0x0
			eb88: R_MIPS_HI16	printk
    eb8c:	24840000 	addiu	a0,a0,0
			eb8c: R_MIPS_LO16	$LC126
    eb90:	24a500b4 	addiu	a1,a1,180
			eb90: R_MIPS_LO16	.rodata
    eb94:	24420000 	addiu	v0,v0,0
			eb94: R_MIPS_LO16	printk
    eb98:	0040f809 	jalr	v0
    eb9c:	02003021 	move	a2,s0
    eba0:	8e020034 	lw	v0,52(s0)
    eba4:	1451ff3a 	bne	v0,s1,e890 <ar6000_destroy+0x94>
    eba8:	3c020000 	lui	v0,0x0
			eba8: R_MIPS_HI16	debugdriver
    ebac:	8c430000 	lw	v1,0(v0)
			ebac: R_MIPS_LO16	debugdriver
    ebb0:	1460003d 	bnez	v1,eca8 <ar6000_destroy+0x4ac>
    ebb4:	3c040000 	lui	a0,0x0
			ebb4: R_MIPS_HI16	$LC127
    ebb8:	3c020000 	lui	v0,0x0
			ebb8: R_MIPS_HI16	wmi_shutdown
    ebbc:	24420000 	addiu	v0,v0,0
			ebbc: R_MIPS_LO16	wmi_shutdown
    ebc0:	0040f809 	jalr	v0
    ebc4:	8e040004 	lw	a0,4(s0)
    ebc8:	ae000034 	sw	zero,52(s0)
    ebcc:	08003a24 	j	e890 <ar6000_destroy+0x94>
			ebcc: R_MIPS_26	.text
    ebd0:	ae000004 	sw	zero,4(s0)
    ebd4:	3c040000 	lui	a0,0x0
			ebd4: R_MIPS_HI16	$LC130
    ebd8:	24420000 	addiu	v0,v0,0
			ebd8: R_MIPS_LO16	printk
    ebdc:	0040f809 	jalr	v0
    ebe0:	24840000 	addiu	a0,a0,0
			ebe0: R_MIPS_LO16	$LC130
    ebe4:	08003a3f 	j	e8fc <ar6000_destroy+0x100>
			ebe4: R_MIPS_26	.text
    ebe8:	8e040044 	lw	a0,68(s0)
    ebec:	3c020000 	lui	v0,0x0
			ebec: R_MIPS_HI16	printk
    ebf0:	24420000 	addiu	v0,v0,0
			ebf0: R_MIPS_LO16	printk
    ebf4:	0040f809 	jalr	v0
    ebf8:	24840000 	addiu	a0,a0,0
			ebf8: R_MIPS_LO16	$LC129
    ebfc:	08003a38 	j	e8e0 <ar6000_destroy+0xe4>
			ebfc: R_MIPS_26	.text
    ec00:	8e040044 	lw	a0,68(s0)
    ec04:	8e620000 	lw	v0,0(s3)
			ec04: R_MIPS_LO16	debugdriver
    ec08:	1440002f 	bnez	v0,ecc8 <ar6000_destroy+0x4cc>
    ec0c:	3c040000 	lui	a0,0x0
			ec0c: R_MIPS_HI16	$LC124
    ec10:	40026000 	mfc0	v0,c0_status
    ec14:	30420001 	andi	v0,v0,0x1
    ec18:	14400006 	bnez	v0,ec34 <ar6000_destroy+0x438>
    ec1c:	3c020000 	lui	v0,0x0
			ec1c: R_MIPS_HI16	local_bh_disable
    ec20:	3c020000 	lui	v0,0x0
			ec20: R_MIPS_HI16	debugdriver
    ec24:	8c430000 	lw	v1,0(v0)
			ec24: R_MIPS_LO16	debugdriver
    ec28:	1460002f 	bnez	v1,ece8 <ar6000_destroy+0x4ec>
    ec2c:	3c040000 	lui	a0,0x0
			ec2c: R_MIPS_HI16	$LC97
    ec30:	3c020000 	lui	v0,0x0
			ec30: R_MIPS_HI16	local_bh_disable
    ec34:	24420000 	addiu	v0,v0,0
			ec34: R_MIPS_LO16	local_bh_disable
    ec38:	0040f809 	jalr	v0
    ec3c:	00000000 	nop
    ec40:	8f820014 	lw	v0,20(gp)
    ec44:	24420001 	addiu	v0,v0,1
    ec48:	af820014 	sw	v0,20(gp)
    ec4c:	3c020000 	lui	v0,0x0
			ec4c: R_MIPS_HI16	ar6000_init_profile_info
    ec50:	24420000 	addiu	v0,v0,0
			ec50: R_MIPS_LO16	ar6000_init_profile_info
    ec54:	0040f809 	jalr	v0
    ec58:	02002021 	move	a0,s0
    ec5c:	40036000 	mfc0	v1,c0_status
    ec60:	30630001 	andi	v1,v1,0x1
    ec64:	14600004 	bnez	v1,ec78 <ar6000_destroy+0x47c>
    ec68:	00000000 	nop
    ec6c:	8e620000 	lw	v0,0(s3)
			ec6c: R_MIPS_LO16	debugdriver
    ec70:	14400023 	bnez	v0,ed00 <ar6000_destroy+0x504>
    ec74:	3c040000 	lui	a0,0x0
			ec74: R_MIPS_HI16	$LC99
    ec78:	8f820014 	lw	v0,20(gp)
    ec7c:	3c030000 	lui	v1,0x0
			ec7c: R_MIPS_HI16	local_bh_enable
    ec80:	2442ffff 	addiu	v0,v0,-1
    ec84:	24630000 	addiu	v1,v1,0
			ec84: R_MIPS_LO16	local_bh_enable
    ec88:	0060f809 	jalr	v1
    ec8c:	af820014 	sw	v0,20(gp)
    ec90:	3c020000 	lui	v0,0x0
			ec90: R_MIPS_HI16	wmi_disconnect_cmd
    ec94:	24420000 	addiu	v0,v0,0
			ec94: R_MIPS_LO16	wmi_disconnect_cmd
    ec98:	0040f809 	jalr	v0
    ec9c:	8e040004 	lw	a0,4(s0)
    eca0:	08003a94 	j	ea50 <ar6000_destroy+0x254>
			eca0: R_MIPS_26	.text
    eca4:	3c020000 	lui	v0,0x0
			eca4: R_MIPS_HI16	ar6000_dbglog_get_debug_logs
    eca8:	3c050000 	lui	a1,0x0
			eca8: R_MIPS_HI16	.rodata
    ecac:	3c020000 	lui	v0,0x0
			ecac: R_MIPS_HI16	printk
    ecb0:	24840000 	addiu	a0,a0,0
			ecb0: R_MIPS_LO16	$LC127
    ecb4:	24420000 	addiu	v0,v0,0
			ecb4: R_MIPS_LO16	printk
    ecb8:	0040f809 	jalr	v0
    ecbc:	24a500b4 	addiu	a1,a1,180
			ecbc: R_MIPS_LO16	.rodata
    ecc0:	08003aef 	j	ebbc <ar6000_destroy+0x3c0>
			ecc0: R_MIPS_26	.text
    ecc4:	3c020000 	lui	v0,0x0
			ecc4: R_MIPS_HI16	wmi_shutdown
    ecc8:	3c050000 	lui	a1,0x0
			ecc8: R_MIPS_HI16	.rodata
    eccc:	3c020000 	lui	v0,0x0
			eccc: R_MIPS_HI16	printk
    ecd0:	24840000 	addiu	a0,a0,0
			ecd0: R_MIPS_LO16	$LC124
    ecd4:	24420000 	addiu	v0,v0,0
			ecd4: R_MIPS_LO16	printk
    ecd8:	0040f809 	jalr	v0
    ecdc:	24a500b4 	addiu	a1,a1,180
			ecdc: R_MIPS_LO16	.rodata
    ece0:	08003b04 	j	ec10 <ar6000_destroy+0x414>
			ece0: R_MIPS_26	.text
    ece4:	00000000 	nop
    ece8:	3c020000 	lui	v0,0x0
			ece8: R_MIPS_HI16	printk
    ecec:	24420000 	addiu	v0,v0,0
			ecec: R_MIPS_LO16	printk
    ecf0:	0040f809 	jalr	v0
    ecf4:	24840000 	addiu	a0,a0,0
			ecf4: R_MIPS_LO16	$LC97
    ecf8:	08003b0d 	j	ec34 <ar6000_destroy+0x438>
			ecf8: R_MIPS_26	.text
    ecfc:	3c020000 	lui	v0,0x0
			ecfc: R_MIPS_HI16	local_bh_disable
    ed00:	3c020000 	lui	v0,0x0
			ed00: R_MIPS_HI16	printk
    ed04:	24420000 	addiu	v0,v0,0
			ed04: R_MIPS_LO16	printk
    ed08:	0040f809 	jalr	v0
    ed0c:	24840000 	addiu	a0,a0,0
			ed0c: R_MIPS_LO16	$LC99
    ed10:	08003b1e 	j	ec78 <ar6000_destroy+0x47c>
			ed10: R_MIPS_26	.text
    ed14:	00000000 	nop

0000ed18 <ar6000_unavail_ev>:
    ed18:	27bdffe8 	addiu	sp,sp,-24
    ed1c:	afbf0010 	sw	ra,16(sp)
    ed20:	8c83054c 	lw	v1,1356(a0)
    ed24:	3c020000 	lui	v0,0x0
			ed24: R_MIPS_HI16	.bss
    ed28:	244209d0 	addiu	v0,v0,2512
			ed28: R_MIPS_LO16	.bss
    ed2c:	00031880 	sll	v1,v1,0x2
    ed30:	00621821 	addu	v1,v1,v0
    ed34:	ac600000 	sw	zero,0(v1)
    ed38:	8c840000 	lw	a0,0(a0)
    ed3c:	3c020001 	lui	v0,0x1
			ed3c: R_MIPS_HI16	.text
    ed40:	2442e7fc 	addiu	v0,v0,-6148
			ed40: R_MIPS_LO16	.text
    ed44:	0040f809 	jalr	v0
    ed48:	24050001 	li	a1,1
    ed4c:	8fbf0010 	lw	ra,16(sp)
    ed50:	00001021 	move	v0,zero
    ed54:	03e00008 	jr	ra
    ed58:	27bd0018 	addiu	sp,sp,24

0000ed5c <ar6000_target_failure>:
    ed5c:	27bdffe0 	addiu	sp,sp,-32
    ed60:	afb00018 	sw	s0,24(sp)
    ed64:	00808021 	move	s0,a0
    ed68:	3c040000 	lui	a0,0x0
			ed68: R_MIPS_HI16	$LC133
    ed6c:	afbf001c 	sw	ra,28(sp)
    ed70:	14a00005 	bnez	a1,ed88 <ar6000_target_failure+0x2c>
    ed74:	24840000 	addiu	a0,a0,0
			ed74: R_MIPS_LO16	$LC133
    ed78:	8fbf001c 	lw	ra,28(sp)
    ed7c:	8fb00018 	lw	s0,24(sp)
    ed80:	03e00008 	jr	ra
    ed84:	27bd0020 	addiu	sp,sp,32
    ed88:	3c020000 	lui	v0,0x0
			ed88: R_MIPS_HI16	printk
    ed8c:	24420000 	addiu	v0,v0,0
			ed8c: R_MIPS_LO16	printk
    ed90:	0040f809 	jalr	v0
    ed94:	00000000 	nop
    ed98:	8e0304e0 	lw	v1,1248(s0)
    ed9c:	1460001c 	bnez	v1,ee10 <ar6000_target_failure+0xb4>
    eda0:	260404e0 	addiu	a0,s0,1248
    eda4:	8e0501cc 	lw	a1,460(s0)
    eda8:	3c020000 	lui	v0,0x0
			eda8: R_MIPS_HI16	ar6000_dump_target_assert_info
    edac:	24420000 	addiu	v0,v0,0
			edac: R_MIPS_LO16	ar6000_dump_target_assert_info
    edb0:	0040f809 	jalr	v0
    edb4:	8e040044 	lw	a0,68(s0)
    edb8:	3c020000 	lui	v0,0x0
			edb8: R_MIPS_HI16	ar6000_dbglog_get_debug_logs
    edbc:	24420000 	addiu	v0,v0,0
			edbc: R_MIPS_LO16	ar6000_dbglog_get_debug_logs
    edc0:	0040f809 	jalr	v0
    edc4:	02002021 	move	a0,s0
    edc8:	3c030000 	lui	v1,0x0
			edc8: R_MIPS_HI16	.bss
    edcc:	8c6209cc 	lw	v0,2508(v1)
			edcc: R_MIPS_LO16	.bss
    edd0:	02002021 	move	a0,s0
    edd4:	2405100d 	li	a1,4109
    edd8:	27a60010 	addiu	a2,sp,16
    eddc:	1440ffe6 	bnez	v0,ed78 <ar6000_target_failure+0x1c>
    ede0:	24070004 	li	a3,4
    ede4:	24020001 	li	v0,1
    ede8:	ac6209cc 	sw	v0,2508(v1)
			ede8: R_MIPS_LO16	.bss
    edec:	24030060 	li	v1,96
    edf0:	3c020000 	lui	v0,0x0
			edf0: R_MIPS_HI16	ar6000_send_event_to_app
    edf4:	24420000 	addiu	v0,v0,0
			edf4: R_MIPS_LO16	ar6000_send_event_to_app
    edf8:	0040f809 	jalr	v0
    edfc:	afa30010 	sw	v1,16(sp)
    ee00:	8fbf001c 	lw	ra,28(sp)
    ee04:	8fb00018 	lw	s0,24(sp)
    ee08:	03e00008 	jr	ra
    ee0c:	27bd0020 	addiu	sp,sp,32
    ee10:	3c020000 	lui	v0,0x0
			ee10: R_MIPS_HI16	del_timer
    ee14:	24420000 	addiu	v0,v0,0
			ee14: R_MIPS_LO16	del_timer
    ee18:	0040f809 	jalr	v0
    ee1c:	00000000 	nop
    ee20:	08003b6a 	j	eda8 <ar6000_target_failure+0x4c>
			ee20: R_MIPS_26	.text
    ee24:	8e0501cc 	lw	a1,460(s0)

0000ee28 <ar6000_set_host_app_area>:
    ee28:	27bdffd8 	addiu	sp,sp,-40
    ee2c:	afb00020 	sw	s0,32(sp)
    ee30:	afbf0024 	sw	ra,36(sp)
    ee34:	8c8301cc 	lw	v1,460(a0)
    ee38:	24020001 	li	v0,1
    ee3c:	1062002b 	beq	v1,v0,eeec <ar6000_set_host_app_area+0xc4>
    ee40:	00808021 	move	s0,a0
    ee44:	24020002 	li	v0,2
    ee48:	1062002a 	beq	v1,v0,eef4 <ar6000_set_host_app_area+0xcc>
    ee4c:	3c020010 	lui	v0,0x10
    ee50:	24020003 	li	v0,3
    ee54:	10620029 	beq	v1,v0,eefc <ar6000_set_host_app_area+0xd4>
    ee58:	3c020014 	lui	v0,0x14
    ee5c:	00001021 	move	v0,zero
    ee60:	8e040044 	lw	a0,68(s0)
    ee64:	afa20010 	sw	v0,16(sp)
    ee68:	3c020000 	lui	v0,0x0
			ee68: R_MIPS_HI16	ar6000_ReadRegDiag
    ee6c:	27a50010 	addiu	a1,sp,16
    ee70:	24420000 	addiu	v0,v0,0
			ee70: R_MIPS_LO16	ar6000_ReadRegDiag
    ee74:	0040f809 	jalr	v0
    ee78:	27a60014 	addiu	a2,sp,20
    ee7c:	14400016 	bnez	v0,eed8 <ar6000_set_host_app_area+0xb0>
    ee80:	24020001 	li	v0,1
    ee84:	8e0301cc 	lw	v1,460(s0)
    ee88:	1062001e 	beq	v1,v0,ef04 <ar6000_set_host_app_area+0xdc>
    ee8c:	3c02001f 	lui	v0,0x1f
    ee90:	8fa30014 	lw	v1,20(sp)
    ee94:	3442ffff 	ori	v0,v0,0xffff
    ee98:	00621824 	and	v1,v1,v0
    ee9c:	24020002 	li	v0,2
    eea0:	8e040044 	lw	a0,68(s0)
    eea4:	afa20018 	sw	v0,24(sp)
    eea8:	3c020000 	lui	v0,0x0
			eea8: R_MIPS_HI16	ar6000_WriteDataDiag
    eeac:	00602821 	move	a1,v1
    eeb0:	27a60018 	addiu	a2,sp,24
    eeb4:	24070004 	li	a3,4
    eeb8:	24420000 	addiu	v0,v0,0
			eeb8: R_MIPS_LO16	ar6000_WriteDataDiag
    eebc:	0040f809 	jalr	v0
    eec0:	afa30010 	sw	v1,16(sp)
    eec4:	14400004 	bnez	v0,eed8 <ar6000_set_host_app_area+0xb0>
    eec8:	8fbf0024 	lw	ra,36(sp)
    eecc:	8fb00020 	lw	s0,32(sp)
    eed0:	03e00008 	jr	ra
    eed4:	27bd0028 	addiu	sp,sp,40
    eed8:	8fbf0024 	lw	ra,36(sp)
    eedc:	8fb00020 	lw	s0,32(sp)
    eee0:	2402ffff 	li	v0,-1
    eee4:	03e00008 	jr	ra
    eee8:	27bd0028 	addiu	sp,sp,40
    eeec:	08003b98 	j	ee60 <ar6000_set_host_app_area+0x38>
			eeec: R_MIPS_26	.text
    eef0:	24020600 	li	v0,1536
    eef4:	08003b98 	j	ee60 <ar6000_set_host_app_area+0x38>
			eef4: R_MIPS_26	.text
    eef8:	34420400 	ori	v0,v0,0x400
    eefc:	08003b98 	j	ee60 <ar6000_set_host_app_area+0x38>
			eefc: R_MIPS_26	.text
    ef00:	34420600 	ori	v0,v0,0x600
    ef04:	8fa30014 	lw	v1,20(sp)
    ef08:	3c020fff 	lui	v0,0xfff
    ef0c:	3442ffff 	ori	v0,v0,0xffff
    ef10:	08003ba7 	j	ee9c <ar6000_set_host_app_area+0x74>
			ef10: R_MIPS_26	.text
    ef14:	00621824 	and	v1,v1,v0

0000ef18 <ar6000_ready_event>:
    ef18:	27bdffc0 	addiu	sp,sp,-64
    ef1c:	24020001 	li	v0,1
    ef20:	afbf003c 	sw	ra,60(sp)
    ef24:	afb60038 	sw	s6,56(sp)
    ef28:	afb50034 	sw	s5,52(sp)
    ef2c:	afb40030 	sw	s4,48(sp)
    ef30:	afb3002c 	sw	s3,44(sp)
    ef34:	afb20028 	sw	s2,40(sp)
    ef38:	afb00020 	sw	s0,32(sp)
    ef3c:	afb10024 	sw	s1,36(sp)
    ef40:	00809021 	move	s2,a0
    ef44:	ac820038 	sw	v0,56(a0)
    ef48:	3c040000 	lui	a0,0x0
			ef48: R_MIPS_HI16	arEvent
    ef4c:	3c020000 	lui	v0,0x0
			ef4c: R_MIPS_HI16	__wake_up
    ef50:	24840000 	addiu	a0,a0,0
			ef50: R_MIPS_LO16	arEvent
    ef54:	24420000 	addiu	v0,v0,0
			ef54: R_MIPS_LO16	__wake_up
    ef58:	00a0a821 	move	s5,a1
    ef5c:	00e0b021 	move	s6,a3
    ef60:	24050003 	li	a1,3
    ef64:	00003821 	move	a3,zero
    ef68:	30d400ff 	andi	s4,a2,0xff
    ef6c:	24060001 	li	a2,1
    ef70:	3c100000 	lui	s0,0x0
			ef70: R_MIPS_HI16	.rodata
    ef74:	0040f809 	jalr	v0
    ef78:	8e510000 	lw	s1,0(s2)
    ef7c:	3c020000 	lui	v0,0x0
			ef7c: R_MIPS_HI16	printk
    ef80:	3c040000 	lui	a0,0x0
			ef80: R_MIPS_HI16	$LC134
    ef84:	26050100 	addiu	a1,s0,256
			ef84: R_MIPS_LO16	.rodata
    ef88:	24530000 	addiu	s3,v0,0
			ef88: R_MIPS_LO16	printk
    ef8c:	0260f809 	jalr	s3
    ef90:	24840000 	addiu	a0,a0,0
			ef90: R_MIPS_LO16	$LC134
    ef94:	3c020000 	lui	v0,0x0
			ef94: R_MIPS_HI16	ar6000_set_host_app_area
    ef98:	24420000 	addiu	v0,v0,0
			ef98: R_MIPS_LO16	ar6000_set_host_app_area
    ef9c:	0040f809 	jalr	v0
    efa0:	02402021 	move	a0,s2
    efa4:	3c040000 	lui	a0,0x0
			efa4: R_MIPS_HI16	$LC135
    efa8:	24840000 	addiu	a0,a0,0
			efa8: R_MIPS_LO16	$LC135
    efac:	14400022 	bnez	v0,f038 <ar6000_ready_event+0x120>
    efb0:	26050100 	addiu	a1,s0,256
			efb0: R_MIPS_LO16	.rodata
    efb4:	3c020000 	lui	v0,0x0
			efb4: R_MIPS_HI16	memcpy
    efb8:	26240134 	addiu	a0,s1,308
    efbc:	02a02821 	move	a1,s5
    efc0:	24420000 	addiu	v0,v0,0
			efc0: R_MIPS_LO16	memcpy
    efc4:	0040f809 	jalr	v0
    efc8:	24060006 	li	a2,6
    efcc:	3c030000 	lui	v1,0x0
			efcc: R_MIPS_HI16	debugdriver
    efd0:	8c620000 	lw	v0,0(v1)
			efd0: R_MIPS_LO16	debugdriver
    efd4:	3c040000 	lui	a0,0x0
			efd4: R_MIPS_HI16	$LC136
    efd8:	1040000b 	beqz	v0,f008 <ar6000_ready_event+0xf0>
    efdc:	24840000 	addiu	a0,a0,0
			efdc: R_MIPS_LO16	$LC136
    efe0:	92230137 	lbu	v1,311(s1)
    efe4:	92250134 	lbu	a1,308(s1)
    efe8:	92260135 	lbu	a2,309(s1)
    efec:	92270136 	lbu	a3,310(s1)
    eff0:	afa30010 	sw	v1,16(sp)
    eff4:	92220138 	lbu	v0,312(s1)
    eff8:	afa20014 	sw	v0,20(sp)
    effc:	92230139 	lbu	v1,313(s1)
    f000:	0260f809 	jalr	s3
    f004:	afa30018 	sw	v1,24(sp)
    f008:	ae5601c8 	sw	s6,456(s2)
    f00c:	a2540431 	sb	s4,1073(s2)
    f010:	8fbf003c 	lw	ra,60(sp)
    f014:	8fb60038 	lw	s6,56(sp)
    f018:	8fb50034 	lw	s5,52(sp)
    f01c:	8fb40030 	lw	s4,48(sp)
    f020:	8fb3002c 	lw	s3,44(sp)
    f024:	8fb20028 	lw	s2,40(sp)
    f028:	8fb10024 	lw	s1,36(sp)
    f02c:	8fb00020 	lw	s0,32(sp)
    f030:	03e00008 	jr	ra
    f034:	27bd0040 	addiu	sp,sp,64
    f038:	0260f809 	jalr	s3
    f03c:	00000000 	nop
    f040:	08003bee 	j	efb8 <ar6000_ready_event+0xa0>
			f040: R_MIPS_26	.text
    f044:	3c020000 	lui	v0,0x0
			f044: R_MIPS_HI16	memcpy

0000f048 <ar6000_rx>:
    f048:	27bdffb8 	addiu	sp,sp,-72
    f04c:	afb20028 	sw	s2,40(sp)
    f050:	afb10024 	sw	s1,36(sp)
    f054:	afbf0044 	sw	ra,68(sp)
    f058:	afbe0040 	sw	s8,64(sp)
    f05c:	afb7003c 	sw	s7,60(sp)
    f060:	afb60038 	sw	s6,56(sp)
    f064:	afb50034 	sw	s5,52(sp)
    f068:	afb40030 	sw	s4,48(sp)
    f06c:	afb3002c 	sw	s3,44(sp)
    f070:	afb00020 	sw	s0,32(sp)
    f074:	8cb30020 	lw	s3,32(a1)
    f078:	00a09021 	move	s2,a1
    f07c:	00808821 	move	s1,a0
    f080:	8cb40008 	lw	s4,8(a1)
    f084:	126000a9 	beqz	s3,f32c <ar6000_rx+0x2e4>
    f088:	8cb5001c 	lw	s5,28(a1)
    f08c:	3c100000 	lui	s0,0x0
			f08c: R_MIPS_HI16	debugdriver
    f090:	8e030000 	lw	v1,0(s0)
			f090: R_MIPS_LO16	debugdriver
    f094:	28620002 	slti	v0,v1,2
    f098:	1440000d 	bnez	v0,f0d0 <ar6000_rx+0x88>
    f09c:	3c040000 	lui	a0,0x0
			f09c: R_MIPS_HI16	$LC139
    f0a0:	8e420010 	lw	v0,16(s2)
    f0a4:	8e430018 	lw	v1,24(s2)
    f0a8:	afa20010 	sw	v0,16(sp)
    f0ac:	3c020000 	lui	v0,0x0
			f0ac: R_MIPS_HI16	printk
    f0b0:	afa30014 	sw	v1,20(sp)
    f0b4:	24840000 	addiu	a0,a0,0
			f0b4: R_MIPS_LO16	$LC139
    f0b8:	02202821 	move	a1,s1
    f0bc:	02a03021 	move	a2,s5
    f0c0:	24420000 	addiu	v0,v0,0
			f0c0: R_MIPS_LO16	printk
    f0c4:	0040f809 	jalr	v0
    f0c8:	02803821 	move	a3,s4
    f0cc:	8e030000 	lw	v1,0(s0)
			f0cc: R_MIPS_LO16	debugdriver
    f0d0:	1260004a 	beqz	s3,f1fc <ar6000_rx+0x1b4>
    f0d4:	28620002 	slti	v0,v1,2
    f0d8:	14400005 	bnez	v0,f0f0 <ar6000_rx+0xa8>
    f0dc:	3c020000 	lui	v0,0x0
			f0dc: R_MIPS_HI16	printk
    f0e0:	3c040000 	lui	a0,0x0
			f0e0: R_MIPS_HI16	$LC140
    f0e4:	24420000 	addiu	v0,v0,0
			f0e4: R_MIPS_LO16	printk
    f0e8:	0040f809 	jalr	v0
    f0ec:	24840000 	addiu	a0,a0,0
			f0ec: R_MIPS_LO16	$LC140
    f0f0:	40026000 	mfc0	v0,c0_status
    f0f4:	30420001 	andi	v0,v0,0x1
    f0f8:	14400004 	bnez	v0,f10c <ar6000_rx+0xc4>
    f0fc:	3c160000 	lui	s6,0x0
			f0fc: R_MIPS_HI16	local_bh_disable
    f100:	8e020000 	lw	v0,0(s0)
			f100: R_MIPS_LO16	debugdriver
    f104:	144000d3 	bnez	v0,f454 <ar6000_rx+0x40c>
    f108:	3c040000 	lui	a0,0x0
			f108: R_MIPS_HI16	$LC97
    f10c:	26c20000 	addiu	v0,s6,0
			f10c: R_MIPS_LO16	local_bh_disable
    f110:	0040f809 	jalr	v0
    f114:	00000000 	nop
    f118:	8f820014 	lw	v0,20(gp)
    f11c:	24420001 	addiu	v0,v0,1
    f120:	af820014 	sw	v0,20(gp)
    f124:	00151880 	sll	v1,s5,0x2
    f128:	00711821 	addu	v1,v1,s1
    f12c:	8c620054 	lw	v0,84(v1)
    f130:	2442ffff 	addiu	v0,v0,-1
    f134:	126000a6 	beqz	s3,f3d0 <ar6000_rx+0x388>
    f138:	ac620054 	sw	v0,84(v1)
    f13c:	40026000 	mfc0	v0,c0_status
    f140:	30420001 	andi	v0,v0,0x1
    f144:	14400003 	bnez	v0,f154 <ar6000_rx+0x10c>
    f148:	8e020000 	lw	v0,0(s0)
			f148: R_MIPS_LO16	debugdriver
    f14c:	144000bb 	bnez	v0,f43c <ar6000_rx+0x3f4>
    f150:	3c040000 	lui	a0,0x0
			f150: R_MIPS_HI16	$LC99
    f154:	8f820014 	lw	v0,20(gp)
    f158:	3c1e0000 	lui	s8,0x0
			f158: R_MIPS_HI16	local_bh_enable
    f15c:	2442ffff 	addiu	v0,v0,-1
    f160:	27c30000 	addiu	v1,s8,0
			f160: R_MIPS_LO16	local_bh_enable
    f164:	0060f809 	jalr	v1
    f168:	af820014 	sw	v0,20(gp)
    f16c:	8e220000 	lw	v0,0(s1)
    f170:	16600081 	bnez	s3,f378 <ar6000_rx+0x330>
    f174:	ae820018 	sw	v0,24(s4)
    f178:	8e230034 	lw	v1,52(s1)
    f17c:	24020001 	li	v0,1
    f180:	14620057 	bne	v1,v0,f2e0 <ar6000_rx+0x298>
    f184:	3c020001 	lui	v0,0x1
			f184: R_MIPS_HI16	.text
    f188:	8e220540 	lw	v0,1344(s1)
    f18c:	12a200bd 	beq	s5,v0,f484 <ar6000_rx+0x43c>
    f190:	3c020000 	lui	v0,0x0
			f190: R_MIPS_HI16	processDot11Hdr
    f194:	8c440000 	lw	a0,0(v0)
			f194: R_MIPS_LO16	processDot11Hdr
    f198:	9225009d 	lbu	a1,157(s1)
    f19c:	24130024 	li	s3,36
    f1a0:	2402001a 	li	v0,26
    f1a4:	24030010 	li	v1,16
    f1a8:	10a300c3 	beq	a1,v1,f4b8 <ar6000_rx+0x470>
    f1ac:	0044980a 	movz	s3,v0,a0
    f1b0:	8e450018 	lw	a1,24(s2)
    f1b4:	00b3102b 	sltu	v0,a1,s3
    f1b8:	10400018 	beqz	v0,f21c <ar6000_rx+0x1d4>
    f1bc:	2ca20681 	sltiu	v0,a1,1665
    f1c0:	8e020000 	lw	v0,0(s0)
			f1c0: R_MIPS_LO16	debugdriver
    f1c4:	144000a9 	bnez	v0,f46c <ar6000_rx+0x424>
    f1c8:	3c040000 	lui	a0,0x0
			f1c8: R_MIPS_HI16	$LC142
    f1cc:	8e2201ec 	lw	v0,492(s1)
    f1d0:	8e230204 	lw	v1,516(s1)
    f1d4:	24420001 	addiu	v0,v0,1
    f1d8:	24630001 	addiu	v1,v1,1
    f1dc:	ae2201ec 	sw	v0,492(s1)
    f1e0:	3c020000 	lui	v0,0x0
			f1e0: R_MIPS_HI16	a_netbuf_free
    f1e4:	ae230204 	sw	v1,516(s1)
    f1e8:	24420000 	addiu	v0,v0,0
			f1e8: R_MIPS_LO16	a_netbuf_free
    f1ec:	0040f809 	jalr	v0
    f1f0:	02802021 	move	a0,s4
    f1f4:	08003cbc 	j	f2f0 <ar6000_rx+0x2a8>
			f1f4: R_MIPS_26	.text
    f1f8:	3c190001 	lui	t9,0x1
			f1f8: R_MIPS_HI16	.text
    f1fc:	1440ffbc 	bnez	v0,f0f0 <ar6000_rx+0xa8>
    f200:	3c020000 	lui	v0,0x0
			f200: R_MIPS_HI16	printk
    f204:	3c040000 	lui	a0,0x0
			f204: R_MIPS_HI16	$LC141
    f208:	24420000 	addiu	v0,v0,0
			f208: R_MIPS_LO16	printk
    f20c:	0040f809 	jalr	v0
    f210:	24840000 	addiu	a0,a0,0
			f210: R_MIPS_LO16	$LC141
    f214:	08003c3c 	j	f0f0 <ar6000_rx+0xa8>
			f214: R_MIPS_26	.text
    f218:	00000000 	nop
    f21c:	1040ffe9 	beqz	v0,f1c4 <ar6000_rx+0x17c>
    f220:	8e020000 	lw	v0,0(s0)
			f220: R_MIPS_LO16	debugdriver
    f224:	8e240004 	lw	a0,4(s1)
    f228:	3c020000 	lui	v0,0x0
			f228: R_MIPS_HI16	wmi_data_hdr_remove
    f22c:	24420000 	addiu	v0,v0,0
			f22c: R_MIPS_LO16	wmi_data_hdr_remove
    f230:	0040f809 	jalr	v0
    f234:	02802821 	move	a1,s4
    f238:	3c020000 	lui	v0,0x0
			f238: R_MIPS_HI16	processDot11Hdr
    f23c:	8c430000 	lw	v1,0(v0)
			f23c: R_MIPS_LO16	processDot11Hdr
    f240:	10600097 	beqz	v1,f4a0 <ar6000_rx+0x458>
    f244:	3c020000 	lui	v0,0x0
			f244: R_MIPS_HI16	wmi_dot3_2_dix
    f248:	3c020000 	lui	v0,0x0
			f248: R_MIPS_HI16	wmi_dot11_hdr_remove
    f24c:	8e240004 	lw	a0,4(s1)
    f250:	24420000 	addiu	v0,v0,0
			f250: R_MIPS_LO16	wmi_dot11_hdr_remove
    f254:	0040f809 	jalr	v0
    f258:	02802821 	move	a1,s4
    f25c:	8e230000 	lw	v1,0(s1)
    f260:	8c6200bc 	lw	v0,188(v1)
    f264:	30420001 	andi	v0,v0,0x1
    f268:	1040001d 	beqz	v0,f2e0 <ar6000_rx+0x298>
    f26c:	3c020001 	lui	v0,0x1
			f26c: R_MIPS_HI16	.text
    f270:	9223009d 	lbu	v1,157(s1)
    f274:	24020010 	li	v0,16
    f278:	14620019 	bne	v1,v0,f2e0 <ar6000_rx+0x298>
    f27c:	3c020001 	lui	v0,0x1
			f27c: R_MIPS_HI16	.text
    f280:	3c020000 	lui	v0,0x0
			f280: R_MIPS_HI16	a_netbuf_to_data
    f284:	24420000 	addiu	v0,v0,0
			f284: R_MIPS_LO16	a_netbuf_to_data
    f288:	0040f809 	jalr	v0
    f28c:	02802021 	move	a0,s4
    f290:	00402821 	move	a1,v0
    f294:	90420000 	lbu	v0,0(v0)
    f298:	30420001 	andi	v0,v0,0x1
    f29c:	104000e2 	beqz	v0,f628 <ar6000_rx+0x5e0>
    f2a0:	3c020000 	lui	v0,0x0
			f2a0: R_MIPS_HI16	ieee80211_find_conn
    f2a4:	3c020000 	lui	v0,0x0
			f2a4: R_MIPS_HI16	skb_copy
    f2a8:	02802021 	move	a0,s4
    f2ac:	24420000 	addiu	v0,v0,0
			f2ac: R_MIPS_LO16	skb_copy
    f2b0:	0040f809 	jalr	v0
    f2b4:	24050020 	li	a1,32
    f2b8:	10400008 	beqz	v0,f2dc <ar6000_rx+0x294>
    f2bc:	00402021 	move	a0,v0
    f2c0:	92221578 	lbu	v0,5496(s1)
    f2c4:	10400006 	beqz	v0,f2e0 <ar6000_rx+0x298>
    f2c8:	3c020001 	lui	v0,0x1
			f2c8: R_MIPS_HI16	.text
    f2cc:	3c020001 	lui	v0,0x1
			f2cc: R_MIPS_HI16	.text
    f2d0:	2442d03c 	addiu	v0,v0,-12228
			f2d0: R_MIPS_LO16	.text
    f2d4:	0040f809 	jalr	v0
    f2d8:	8e250000 	lw	a1,0(s1)
    f2dc:	3c020001 	lui	v0,0x1
			f2dc: R_MIPS_HI16	.text
    f2e0:	2442e33c 	addiu	v0,v0,-7364
			f2e0: R_MIPS_LO16	.text
    f2e4:	0040f809 	jalr	v0
    f2e8:	02802021 	move	a0,s4
    f2ec:	3c190001 	lui	t9,0x1
			f2ec: R_MIPS_HI16	.text
    f2f0:	02202021 	move	a0,s1
    f2f4:	02a02821 	move	a1,s5
    f2f8:	8fbf0044 	lw	ra,68(sp)
    f2fc:	8fbe0040 	lw	s8,64(sp)
    f300:	8fb7003c 	lw	s7,60(sp)
    f304:	8fb60038 	lw	s6,56(sp)
    f308:	8fb50034 	lw	s5,52(sp)
    f30c:	8fb40030 	lw	s4,48(sp)
    f310:	8fb3002c 	lw	s3,44(sp)
    f314:	8fb20028 	lw	s2,40(sp)
    f318:	8fb10024 	lw	s1,36(sp)
    f31c:	8fb00020 	lw	s0,32(sp)
    f320:	2739dc9c 	addiu	t9,t9,-9060
			f320: R_MIPS_LO16	.text
    f324:	03200008 	jr	t9
    f328:	27bd0048 	addiu	sp,sp,72
    f32c:	3c020000 	lui	v0,0x0
			f32c: R_MIPS_HI16	a_netbuf_to_data
    f330:	02802021 	move	a0,s4
    f334:	24420000 	addiu	v0,v0,0
			f334: R_MIPS_LO16	a_netbuf_to_data
    f338:	0040f809 	jalr	v0
    f33c:	8cb00010 	lw	s0,16(a1)
    f340:	24420006 	addiu	v0,v0,6
    f344:	1202ff52 	beq	s0,v0,f090 <ar6000_rx+0x48>
    f348:	3c100000 	lui	s0,0x0
			f348: R_MIPS_HI16	debugdriver
    f34c:	3c040000 	lui	a0,0x0
			f34c: R_MIPS_HI16	$LC137
    f350:	3c020000 	lui	v0,0x0
			f350: R_MIPS_HI16	printk
    f354:	24840000 	addiu	a0,a0,0
			f354: R_MIPS_LO16	$LC137
    f358:	24420000 	addiu	v0,v0,0
			f358: R_MIPS_LO16	printk
    f35c:	0040f809 	jalr	v0
    f360:	24050aa9 	li	a1,2729
    f364:	3c040000 	lui	a0,0x0
			f364: R_MIPS_HI16	$LC138
    f368:	3c020000 	lui	v0,0x0
			f368: R_MIPS_HI16	panic
    f36c:	24420000 	addiu	v0,v0,0
			f36c: R_MIPS_LO16	panic
    f370:	0040f809 	jalr	v0
    f374:	24840000 	addiu	a0,a0,0
			f374: R_MIPS_LO16	$LC138
    f378:	8e2201ec 	lw	v0,492(s1)
    f37c:	24420001 	addiu	v0,v0,1
    f380:	ae2201ec 	sw	v0,492(s1)
    f384:	3c020000 	lui	v0,0x0
			f384: R_MIPS_HI16	a_netbuf_free
    f388:	24420000 	addiu	v0,v0,0
			f388: R_MIPS_LO16	a_netbuf_free
    f38c:	0040f809 	jalr	v0
    f390:	02802021 	move	a0,s4
    f394:	24030010 	li	v1,16
    f398:	1663ffd5 	bne	s3,v1,f2f0 <ar6000_rx+0x2a8>
    f39c:	3c190001 	lui	t9,0x1
			f39c: R_MIPS_HI16	.text
    f3a0:	8fbf0044 	lw	ra,68(sp)
    f3a4:	8fbe0040 	lw	s8,64(sp)
    f3a8:	8fb7003c 	lw	s7,60(sp)
    f3ac:	8fb60038 	lw	s6,56(sp)
    f3b0:	8fb50034 	lw	s5,52(sp)
    f3b4:	8fb40030 	lw	s4,48(sp)
    f3b8:	8fb3002c 	lw	s3,44(sp)
    f3bc:	8fb20028 	lw	s2,40(sp)
    f3c0:	8fb10024 	lw	s1,36(sp)
    f3c4:	8fb00020 	lw	s0,32(sp)
    f3c8:	03e00008 	jr	ra
    f3cc:	27bd0048 	addiu	sp,sp,72
    f3d0:	8e2201dc 	lw	v0,476(s1)
    f3d4:	8e2401e4 	lw	a0,484(s1)
    f3d8:	24420001 	addiu	v0,v0,1
    f3dc:	ae2201dc 	sw	v0,476(s1)
    f3e0:	8e430018 	lw	v1,24(s2)
    f3e4:	3c020000 	lui	v0,0x0
			f3e4: R_MIPS_HI16	a_netbuf_put
    f3e8:	00832021 	addu	a0,a0,v1
    f3ec:	ae2401e4 	sw	a0,484(s1)
    f3f0:	8e450018 	lw	a1,24(s2)
    f3f4:	02802021 	move	a0,s4
    f3f8:	24420000 	addiu	v0,v0,0
			f3f8: R_MIPS_LO16	a_netbuf_put
    f3fc:	0040f809 	jalr	v0
    f400:	24a50006 	addiu	a1,a1,6
    f404:	3c020000 	lui	v0,0x0
			f404: R_MIPS_HI16	a_netbuf_pull
    f408:	02802021 	move	a0,s4
    f40c:	24420000 	addiu	v0,v0,0
			f40c: R_MIPS_LO16	a_netbuf_pull
    f410:	0040f809 	jalr	v0
    f414:	24050006 	li	a1,6
    f418:	8e030000 	lw	v1,0(s0)
			f418: R_MIPS_LO16	debugdriver
    f41c:	28630002 	slti	v1,v1,2
    f420:	1460ff46 	bnez	v1,f13c <ar6000_rx+0xf4>
    f424:	3c020001 	lui	v0,0x1
			f424: R_MIPS_HI16	.text
    f428:	2442afac 	addiu	v0,v0,-20564
			f428: R_MIPS_LO16	.text
    f42c:	0040f809 	jalr	v0
    f430:	02802021 	move	a0,s4
    f434:	08003c4f 	j	f13c <ar6000_rx+0xf4>
			f434: R_MIPS_26	.text
    f438:	00000000 	nop
    f43c:	3c020000 	lui	v0,0x0
			f43c: R_MIPS_HI16	printk
    f440:	24420000 	addiu	v0,v0,0
			f440: R_MIPS_LO16	printk
    f444:	0040f809 	jalr	v0
    f448:	24840000 	addiu	a0,a0,0
			f448: R_MIPS_LO16	$LC99
    f44c:	08003c55 	j	f154 <ar6000_rx+0x10c>
			f44c: R_MIPS_26	.text
    f450:	00000000 	nop
    f454:	3c020000 	lui	v0,0x0
			f454: R_MIPS_HI16	printk
    f458:	24420000 	addiu	v0,v0,0
			f458: R_MIPS_LO16	printk
    f45c:	0040f809 	jalr	v0
    f460:	24840000 	addiu	a0,a0,0
			f460: R_MIPS_LO16	$LC97
    f464:	08003c43 	j	f10c <ar6000_rx+0xc4>
			f464: R_MIPS_26	.text
    f468:	3c160000 	lui	s6,0x0
			f468: R_MIPS_HI16	local_bh_disable
    f46c:	3c020000 	lui	v0,0x0
			f46c: R_MIPS_HI16	printk
    f470:	24420000 	addiu	v0,v0,0
			f470: R_MIPS_LO16	printk
    f474:	0040f809 	jalr	v0
    f478:	24840000 	addiu	a0,a0,0
			f478: R_MIPS_LO16	$LC142
    f47c:	08003c74 	j	f1d0 <ar6000_rx+0x188>
			f47c: R_MIPS_26	.text
    f480:	8e2201ec 	lw	v0,492(s1)
    f484:	8e240004 	lw	a0,4(s1)
    f488:	3c020000 	lui	v0,0x0
			f488: R_MIPS_HI16	wmi_control_rx
    f48c:	24420000 	addiu	v0,v0,0
			f48c: R_MIPS_LO16	wmi_control_rx
    f490:	0040f809 	jalr	v0
    f494:	02802821 	move	a1,s4
    f498:	08003cbc 	j	f2f0 <ar6000_rx+0x2a8>
			f498: R_MIPS_26	.text
    f49c:	3c190001 	lui	t9,0x1
			f49c: R_MIPS_HI16	.text
    f4a0:	8e240004 	lw	a0,4(s1)
    f4a4:	24420000 	addiu	v0,v0,0
			f4a4: R_MIPS_LO16	wmi_dot3_2_dix
    f4a8:	0040f809 	jalr	v0
    f4ac:	02802821 	move	a1,s4
    f4b0:	08003c98 	j	f260 <ar6000_rx+0x218>
			f4b0: R_MIPS_26	.text
    f4b4:	8e230000 	lw	v1,0(s1)
    f4b8:	3c100000 	lui	s0,0x0
			f4b8: R_MIPS_HI16	a_netbuf_to_data
    f4bc:	26100000 	addiu	s0,s0,0
			f4bc: R_MIPS_LO16	a_netbuf_to_data
    f4c0:	0200f809 	jalr	s0
    f4c4:	02802021 	move	a0,s4
    f4c8:	90420001 	lbu	v0,1(v0)
    f4cc:	02802021 	move	a0,s4
    f4d0:	0200f809 	jalr	s0
    f4d4:	afa20018 	sw	v0,24(sp)
    f4d8:	2445000a 	addiu	a1,v0,10
    f4dc:	3c020000 	lui	v0,0x0
			f4dc: R_MIPS_HI16	ieee80211_find_conn
    f4e0:	24420000 	addiu	v0,v0,0
			f4e0: R_MIPS_LO16	ieee80211_find_conn
    f4e4:	0040f809 	jalr	v0
    f4e8:	02202021 	move	a0,s1
    f4ec:	10400055 	beqz	v0,f644 <ar6000_rx+0x5fc>
    f4f0:	0040b821 	move	s7,v0
    f4f4:	8fa30018 	lw	v1,24(sp)
    f4f8:	30620020 	andi	v0,v1,0x20
    f4fc:	10400016 	beqz	v0,f558 <ar6000_rx+0x510>
    f500:	96e30000 	lhu	v1,0(s7)
    f504:	34620001 	ori	v0,v1,0x1
    f508:	a6e20000 	sh	v0,0(s7)
    f50c:	96e20000 	lhu	v0,0(s7)
    f510:	30630001 	andi	v1,v1,0x1
    f514:	30420001 	andi	v0,v0,0x1
    f518:	10620003 	beq	v1,v0,f528 <ar6000_rx+0x4e0>
    f51c:	00000000 	nop
    f520:	10400010 	beqz	v0,f564 <ar6000_rx+0x51c>
    f524:	26c20000 	addiu	v0,s6,0
			f524: R_MIPS_LO16	local_bh_disable
    f528:	8e450018 	lw	a1,24(s2)
    f52c:	00b3102b 	sltu	v0,a1,s3
    f530:	14400003 	bnez	v0,f540 <ar6000_rx+0x4f8>
    f534:	2ca20681 	sltiu	v0,a1,1665
    f538:	1440ff3a 	bnez	v0,f224 <ar6000_rx+0x1dc>
    f53c:	00000000 	nop
    f540:	3c020000 	lui	v0,0x0
			f540: R_MIPS_HI16	a_netbuf_free
    f544:	24420000 	addiu	v0,v0,0
			f544: R_MIPS_LO16	a_netbuf_free
    f548:	0040f809 	jalr	v0
    f54c:	02802021 	move	a0,s4
    f550:	08003cbc 	j	f2f0 <ar6000_rx+0x2a8>
			f550: R_MIPS_26	.text
    f554:	3c190001 	lui	t9,0x1
			f554: R_MIPS_HI16	.text
    f558:	3062fffe 	andi	v0,v1,0xfffe
    f55c:	08003d43 	j	f50c <ar6000_rx+0x4c4>
			f55c: R_MIPS_26	.text
    f560:	a6e20000 	sh	v0,0(s7)
    f564:	0040f809 	jalr	v0
    f568:	00000000 	nop
    f56c:	8f820014 	lw	v0,20(gp)
    f570:	24420001 	addiu	v0,v0,1
    f574:	af820014 	sw	v0,20(gp)
    f578:	26e2010c 	addiu	v0,s7,268
    f57c:	08003d77 	j	f5dc <ar6000_rx+0x594>
			f57c: R_MIPS_26	.text
    f580:	afa2001c 	sw	v0,28(sp)
    f584:	24630000 	addiu	v1,v1,0
			f584: R_MIPS_LO16	a_netbuf_dequeue
    f588:	0060f809 	jalr	v1
    f58c:	8fa4001c 	lw	a0,28(sp)
    f590:	00408021 	move	s0,v0
    f594:	8f820014 	lw	v0,20(gp)
    f598:	2442ffff 	addiu	v0,v0,-1
    f59c:	af820014 	sw	v0,20(gp)
    f5a0:	3c020000 	lui	v0,0x0
			f5a0: R_MIPS_HI16	local_bh_enable
    f5a4:	24420000 	addiu	v0,v0,0
			f5a4: R_MIPS_LO16	local_bh_enable
    f5a8:	0040f809 	jalr	v0
    f5ac:	00000000 	nop
    f5b0:	8e250000 	lw	a1,0(s1)
    f5b4:	3c030001 	lui	v1,0x1
			f5b4: R_MIPS_HI16	.text
    f5b8:	2463d03c 	addiu	v1,v1,-12228
			f5b8: R_MIPS_LO16	.text
    f5bc:	0060f809 	jalr	v1
    f5c0:	02002021 	move	a0,s0
    f5c4:	26c30000 	addiu	v1,s6,0
			f5c4: R_MIPS_LO16	local_bh_disable
    f5c8:	0060f809 	jalr	v1
    f5cc:	00000000 	nop
    f5d0:	8f820014 	lw	v0,20(gp)
    f5d4:	24420001 	addiu	v0,v0,1
    f5d8:	af820014 	sw	v0,20(gp)
    f5dc:	3c030000 	lui	v1,0x0
			f5dc: R_MIPS_HI16	a_netbuf_queue_empty
    f5e0:	24630000 	addiu	v1,v1,0
			f5e0: R_MIPS_LO16	a_netbuf_queue_empty
    f5e4:	0060f809 	jalr	v1
    f5e8:	8fa4001c 	lw	a0,28(sp)
    f5ec:	1040ffe5 	beqz	v0,f584 <ar6000_rx+0x53c>
    f5f0:	3c030000 	lui	v1,0x0
			f5f0: R_MIPS_HI16	a_netbuf_dequeue
    f5f4:	8f820014 	lw	v0,20(gp)
    f5f8:	27c40000 	addiu	a0,s8,0
			f5f8: R_MIPS_LO16	local_bh_enable
    f5fc:	2442ffff 	addiu	v0,v0,-1
    f600:	0080f809 	jalr	a0
    f604:	af820014 	sw	v0,20(gp)
    f608:	92e50008 	lbu	a1,8(s7)
    f60c:	8e240004 	lw	a0,4(s1)
    f610:	3c020000 	lui	v0,0x0
			f610: R_MIPS_HI16	wmi_set_pvb_cmd
    f614:	24420000 	addiu	v0,v0,0
			f614: R_MIPS_LO16	wmi_set_pvb_cmd
    f618:	0040f809 	jalr	v0
    f61c:	00003021 	move	a2,zero
    f620:	08003d4b 	j	f52c <ar6000_rx+0x4e4>
			f620: R_MIPS_26	.text
    f624:	8e450018 	lw	a1,24(s2)
    f628:	24420000 	addiu	v0,v0,0
			f628: R_MIPS_LO16	ieee80211_find_conn
    f62c:	0040f809 	jalr	v0
    f630:	02202021 	move	a0,s1
    f634:	1040ff29 	beqz	v0,f2dc <ar6000_rx+0x294>
    f638:	02802021 	move	a0,s4
    f63c:	08003cb0 	j	f2c0 <ar6000_rx+0x278>
			f63c: R_MIPS_26	.text
    f640:	0000a021 	move	s4,zero
    f644:	3c040000 	lui	a0,0x0
			f644: R_MIPS_HI16	$LC143
    f648:	3c020000 	lui	v0,0x0
			f648: R_MIPS_HI16	printk
    f64c:	24840000 	addiu	a0,a0,0
			f64c: R_MIPS_LO16	$LC143
    f650:	24420000 	addiu	v0,v0,0
			f650: R_MIPS_LO16	printk
    f654:	0040f809 	jalr	v0
    f658:	24050b28 	li	a1,2856
    f65c:	3c040000 	lui	a0,0x0
			f65c: R_MIPS_HI16	$LC144
    f660:	3c020000 	lui	v0,0x0
			f660: R_MIPS_HI16	panic
    f664:	24420000 	addiu	v0,v0,0
			f664: R_MIPS_LO16	panic
    f668:	0040f809 	jalr	v0
    f66c:	24840000 	addiu	a0,a0,0
			f66c: R_MIPS_LO16	$LC144

0000f670 <ar6000_disconnect_event>:
    f670:	27bdff90 	addiu	sp,sp,-112
    f674:	afbe0068 	sw	s8,104(sp)
    f678:	afb70064 	sw	s7,100(sp)
    f67c:	afb60060 	sw	s6,96(sp)
    f680:	afb30054 	sw	s3,84(sp)
    f684:	afbf006c 	sw	ra,108(sp)
    f688:	afb5005c 	sw	s5,92(sp)
    f68c:	afb40058 	sw	s4,88(sp)
    f690:	afb20050 	sw	s2,80(sp)
    f694:	afb1004c 	sw	s1,76(sp)
    f698:	afb00048 	sw	s0,72(sp)
    f69c:	9082009d 	lbu	v0,157(a0)
    f6a0:	97a30084 	lhu	v1,132(sp)
    f6a4:	30420010 	andi	v0,v0,0x10
    f6a8:	0080b021 	move	s6,a0
    f6ac:	00c0b821 	move	s7,a2
    f6b0:	30be00ff 	andi	s8,a1,0xff
    f6b4:	30f300ff 	andi	s3,a3,0xff
    f6b8:	144000df 	bnez	v0,fa38 <ar6000_disconnect_event+0x3c8>
    f6bc:	afa30040 	sw	v1,64(sp)
    f6c0:	24110001 	li	s1,1
    f6c4:	13d1000f 	beq	s8,s1,f704 <ar6000_disconnect_event+0x94>
    f6c8:	27b00030 	addiu	s0,sp,48
    f6cc:	3c020000 	lui	v0,0x0
			f6cc: R_MIPS_HI16	memset
    f6d0:	02002021 	move	a0,s0
    f6d4:	00002821 	move	a1,zero
    f6d8:	24420000 	addiu	v0,v0,0
			f6d8: R_MIPS_LO16	memset
    f6dc:	0040f809 	jalr	v0
    f6e0:	24060010 	li	a2,16
    f6e4:	8ec40000 	lw	a0,0(s6)
    f6e8:	3c020000 	lui	v0,0x0
			f6e8: R_MIPS_HI16	wireless_send_event
    f6ec:	02003021 	move	a2,s0
    f6f0:	34058b15 	li	a1,0x8b15
    f6f4:	00003821 	move	a3,zero
    f6f8:	24420000 	addiu	v0,v0,0
			f6f8: R_MIPS_LO16	wireless_send_event
    f6fc:	0040f809 	jalr	v0
    f700:	a7b10030 	sh	s1,48(sp)
    f704:	3c020000 	lui	v0,0x0
			f704: R_MIPS_HI16	del_timer
    f708:	24420000 	addiu	v0,v0,0
			f708: R_MIPS_LO16	del_timer
    f70c:	0040f809 	jalr	v0
    f710:	26c41610 	addiu	a0,s6,5648
    f714:	3c0a0000 	lui	t2,0x0
			f714: R_MIPS_HI16	printk
    f718:	3c040000 	lui	a0,0x0
			f718: R_MIPS_HI16	$LC145
    f71c:	25420000 	addiu	v0,t2,0
			f71c: R_MIPS_LO16	printk
    f720:	0040f809 	jalr	v0
    f724:	24840000 	addiu	a0,a0,0
			f724: R_MIPS_LO16	$LC145
    f728:	92e50000 	lbu	a1,0(s7)
    f72c:	14a000a2 	bnez	a1,f9b8 <ar6000_disconnect_event+0x348>
    f730:	26e60001 	addiu	a2,s7,1
    f734:	92e20001 	lbu	v0,1(s7)
    f738:	104000e9 	beqz	v0,fae0 <ar6000_disconnect_event+0x470>
    f73c:	26e70002 	addiu	a3,s7,2
    f740:	26e30003 	addiu	v1,s7,3
    f744:	26e80004 	addiu	t0,s7,4
    f748:	26e40005 	addiu	a0,s7,5
    f74c:	90890000 	lbu	t1,0(a0)
    f750:	90630000 	lbu	v1,0(v1)
    f754:	91080000 	lbu	t0,0(t0)
    f758:	90c60000 	lbu	a2,0(a2)
    f75c:	90e70000 	lbu	a3,0(a3)
    f760:	3c040000 	lui	a0,0x0
			f760: R_MIPS_HI16	$LC146
    f764:	3c0a0000 	lui	t2,0x0
			f764: R_MIPS_HI16	printk
    f768:	24840000 	addiu	a0,a0,0
			f768: R_MIPS_LO16	$LC146
    f76c:	25420000 	addiu	v0,t2,0
			f76c: R_MIPS_LO16	printk
    f770:	afa30010 	sw	v1,16(sp)
    f774:	afa80014 	sw	t0,20(sp)
    f778:	0040f809 	jalr	v0
    f77c:	afa90018 	sw	t1,24(sp)
    f780:	3c110000 	lui	s1,0x0
			f780: R_MIPS_HI16	debugdriver
    f784:	8e220000 	lw	v0,0(s1)
			f784: R_MIPS_LO16	debugdriver
    f788:	14400072 	bnez	v0,f954 <ar6000_disconnect_event+0x2e4>
    f78c:	3c020000 	lui	v0,0x0
			f78c: R_MIPS_HI16	printk
    f790:	1260001a 	beqz	s3,f7fc <ar6000_disconnect_event+0x18c>
    f794:	3c020000 	lui	v0,0x0
			f794: R_MIPS_HI16	printk
    f798:	24550000 	addiu	s5,v0,0
			f798: R_MIPS_LO16	printk
    f79c:	00008021 	move	s0,zero
    f7a0:	3c140000 	lui	s4,0x0
			f7a0: R_MIPS_HI16	$LC1
    f7a4:	08003df1 	j	f7c4 <ar6000_disconnect_event+0x154>
			f7a4: R_MIPS_26	.text
    f7a8:	3c120000 	lui	s2,0x0
			f7a8: R_MIPS_HI16	$LC58
    f7ac:	14400087 	bnez	v0,f9cc <ar6000_disconnect_event+0x35c>
    f7b0:	26840000 	addiu	a0,s4,0
			f7b0: R_MIPS_LO16	$LC1
    f7b4:	26020001 	addiu	v0,s0,1
    f7b8:	305000ff 	andi	s0,v0,0xff
    f7bc:	12700010 	beq	s3,s0,f800 <ar6000_disconnect_event+0x190>
    f7c0:	8e220000 	lw	v0,0(s1)
			f7c0: R_MIPS_LO16	debugdriver
    f7c4:	3202000f 	andi	v0,s0,0xf
    f7c8:	1040fff8 	beqz	v0,f7ac <ar6000_disconnect_event+0x13c>
    f7cc:	8e220000 	lw	v0,0(s1)
			f7cc: R_MIPS_LO16	debugdriver
    f7d0:	8fa40080 	lw	a0,128(sp)
    f7d4:	8e220000 	lw	v0,0(s1)
			f7d4: R_MIPS_LO16	debugdriver
    f7d8:	02041821 	addu	v1,s0,a0
    f7dc:	1040fff5 	beqz	v0,f7b4 <ar6000_disconnect_event+0x144>
    f7e0:	26440000 	addiu	a0,s2,0
			f7e0: R_MIPS_LO16	$LC58
    f7e4:	02a0f809 	jalr	s5
    f7e8:	90650000 	lbu	a1,0(v1)
    f7ec:	26020001 	addiu	v0,s0,1
    f7f0:	305000ff 	andi	s0,v0,0xff
    f7f4:	1670fff4 	bne	s3,s0,f7c8 <ar6000_disconnect_event+0x158>
    f7f8:	3202000f 	andi	v0,s0,0xf
    f7fc:	8e220000 	lw	v0,0(s1)
			f7fc: R_MIPS_LO16	debugdriver
    f800:	144000c0 	bnez	v0,fb04 <ar6000_disconnect_event+0x494>
    f804:	24020003 	li	v0,3
    f808:	13c200c7 	beq	s8,v0,fb28 <ar6000_disconnect_event+0x4b8>
    f80c:	3c110000 	lui	s1,0x0
			f80c: R_MIPS_HI16	reconnect_flag
    f810:	24030001 	li	v1,1
    f814:	24020006 	li	v0,6
    f818:	13c20109 	beq	s8,v0,fc40 <ar6000_disconnect_event+0x5d0>
    f81c:	aec304d8 	sw	v1,1240(s6)
    f820:	13c300e5 	beq	s8,v1,fbb8 <ar6000_disconnect_event+0x548>
    f824:	3c100000 	lui	s0,0x0
			f824: R_MIPS_HI16	wmi_free_node
    f828:	3c110000 	lui	s1,0x0
			f828: R_MIPS_HI16	reconnect_flag
    f82c:	40106000 	mfc0	s0,c0_status
    f830:	3601001f 	ori	at,s0,0x1f
    f834:	3821001f 	xori	at,at,0x1f
    f838:	40816000 	mtc0	at,c0_status
    f83c:	00000040 	ssnop
    f840:	00000040 	ssnop
    f844:	00000040 	ssnop
    f848:	000000c0 	sll	zero,zero,0x3
    f84c:	8f820014 	lw	v0,20(gp)
    f850:	24420001 	addiu	v0,v0,1
    f854:	af820014 	sw	v0,20(gp)
    f858:	3c020000 	lui	v0,0x0
			f858: R_MIPS_HI16	netif_carrier_off
    f85c:	8ec40000 	lw	a0,0(s6)
    f860:	24420000 	addiu	v0,v0,0
			f860: R_MIPS_LO16	netif_carrier_off
    f864:	0040f809 	jalr	v0
    f868:	aec0003c 	sw	zero,60(s6)
    f86c:	40016000 	mfc0	at,c0_status
    f870:	32100001 	andi	s0,s0,0x1
    f874:	3421001f 	ori	at,at,0x1f
    f878:	3821001f 	xori	at,at,0x1f
    f87c:	02018025 	or	s0,s0,at
    f880:	40906000 	mtc0	s0,c0_status
    f884:	00000040 	ssnop
    f888:	00000040 	ssnop
    f88c:	00000040 	ssnop
    f890:	000000c0 	sll	zero,zero,0x3
    f894:	8f830014 	lw	v1,20(gp)
    f898:	2463ffff 	addiu	v1,v1,-1
    f89c:	af830014 	sw	v1,20(gp)
    f8a0:	8f830008 	lw	v1,8(gp)
    f8a4:	30630004 	andi	v1,v1,0x4
    f8a8:	146000fc 	bnez	v1,fc9c <ar6000_disconnect_event+0x62c>
    f8ac:	3c020000 	lui	v0,0x0
			f8ac: R_MIPS_HI16	preempt_schedule
    f8b0:	24020008 	li	v0,8
    f8b4:	13c200dd 	beq	s8,v0,fc2c <ar6000_disconnect_event+0x5bc>
    f8b8:	8e230000 	lw	v1,0(s1)
			f8b8: R_MIPS_LO16	reconnect_flag
    f8bc:	ae200000 	sw	zero,0(s1)
			f8bc: R_MIPS_LO16	reconnect_flag
    f8c0:	aec00b4c 	sw	zero,2892(s6)
    f8c4:	aec00b50 	sw	zero,2896(s6)
    f8c8:	3c020000 	lui	v0,0x0
			f8c8: R_MIPS_HI16	cpu_data
    f8cc:	8c430008 	lw	v1,8(v0)
			f8cc: R_MIPS_LO16	cpu_data
    f8d0:	3c040001 	lui	a0,0x1
    f8d4:	00641824 	and	v1,v1,a0
    f8d8:	10600040 	beqz	v1,f9dc <ar6000_disconnect_event+0x36c>
    f8dc:	8ec40000 	lw	a0,0(s6)
    f8e0:	c082002c 	ll	v0,44(a0)
    f8e4:	34420001 	ori	v0,v0,0x1
    f8e8:	e082002c 	sc	v0,44(a0)
    f8ec:	10400d08 	beqz	v0,12d10 <ar6000_connect_event+0xbb4>
    f8f0:	00000000 	nop
    f8f4:	3c020000 	lui	v0,0x0
			f8f4: R_MIPS_HI16	memset
    f8f8:	26c401ad 	addiu	a0,s6,429
    f8fc:	00002821 	move	a1,zero
    f900:	24420000 	addiu	v0,v0,0
			f900: R_MIPS_LO16	memset
    f904:	0040f809 	jalr	v0
    f908:	24060006 	li	a2,6
    f90c:	3c020000 	lui	v0,0x0
			f90c: R_MIPS_HI16	ar6000_TxDataCleanup
    f910:	a6c001bc 	sh	zero,444(s6)
    f914:	a6c004d4 	sh	zero,1236(s6)
    f918:	24420000 	addiu	v0,v0,0
			f918: R_MIPS_LO16	ar6000_TxDataCleanup
    f91c:	0040f809 	jalr	v0
    f920:	02c02021 	move	a0,s6
    f924:	8fbf006c 	lw	ra,108(sp)
    f928:	8fbe0068 	lw	s8,104(sp)
    f92c:	8fb70064 	lw	s7,100(sp)
    f930:	8fb60060 	lw	s6,96(sp)
    f934:	8fb5005c 	lw	s5,92(sp)
    f938:	8fb40058 	lw	s4,88(sp)
    f93c:	8fb30054 	lw	s3,84(sp)
    f940:	8fb20050 	lw	s2,80(sp)
    f944:	8fb1004c 	lw	s1,76(sp)
    f948:	8fb00048 	lw	s0,72(sp)
    f94c:	03e00008 	jr	ra
    f950:	27bd0070 	addiu	sp,sp,112
    f954:	3c040000 	lui	a0,0x0
			f954: R_MIPS_HI16	$LC147
    f958:	24840000 	addiu	a0,a0,0
			f958: R_MIPS_LO16	$LC147
    f95c:	24500000 	addiu	s0,v0,0
			f95c: R_MIPS_LO16	printk
    f960:	0200f809 	jalr	s0
    f964:	03c02821 	move	a1,s8
    f968:	8e230000 	lw	v1,0(s1)
			f968: R_MIPS_LO16	debugdriver
    f96c:	1060ff88 	beqz	v1,f790 <ar6000_disconnect_event+0x120>
    f970:	3c040000 	lui	a0,0x0
			f970: R_MIPS_HI16	$LC148
    f974:	8fa50040 	lw	a1,64(sp)
    f978:	0200f809 	jalr	s0
    f97c:	24840000 	addiu	a0,a0,0
			f97c: R_MIPS_LO16	$LC148
    f980:	8e230000 	lw	v1,0(s1)
			f980: R_MIPS_LO16	debugdriver
    f984:	1060ff82 	beqz	v1,f790 <ar6000_disconnect_event+0x120>
    f988:	00000000 	nop
    f98c:	126000c1 	beqz	s3,fc94 <ar6000_disconnect_event+0x624>
    f990:	3c020000 	lui	v0,0x0
			f990: R_MIPS_HI16	$LC150
    f994:	3c020000 	lui	v0,0x0
			f994: R_MIPS_HI16	$LC149
    f998:	24450000 	addiu	a1,v0,0
			f998: R_MIPS_LO16	$LC149
    f99c:	3c030000 	lui	v1,0x0
			f99c: R_MIPS_HI16	printk
    f9a0:	3c040000 	lui	a0,0x0
			f9a0: R_MIPS_HI16	$LC151
    f9a4:	24620000 	addiu	v0,v1,0
			f9a4: R_MIPS_LO16	printk
    f9a8:	0040f809 	jalr	v0
    f9ac:	24840000 	addiu	a0,a0,0
			f9ac: R_MIPS_LO16	$LC151
    f9b0:	08003de4 	j	f790 <ar6000_disconnect_event+0x120>
			f9b0: R_MIPS_26	.text
    f9b4:	00000000 	nop
    f9b8:	26e70002 	addiu	a3,s7,2
    f9bc:	26e30003 	addiu	v1,s7,3
    f9c0:	26e80004 	addiu	t0,s7,4
    f9c4:	08003dd3 	j	f74c <ar6000_disconnect_event+0xdc>
			f9c4: R_MIPS_26	.text
    f9c8:	26e40005 	addiu	a0,s7,5
    f9cc:	02a0f809 	jalr	s5
    f9d0:	00000000 	nop
    f9d4:	08003df5 	j	f7d4 <ar6000_disconnect_event+0x164>
			f9d4: R_MIPS_26	.text
    f9d8:	8fa40080 	lw	a0,128(sp)
    f9dc:	40036000 	mfc0	v1,c0_status
    f9e0:	3461001f 	ori	at,v1,0x1f
    f9e4:	3821001f 	xori	at,at,0x1f
    f9e8:	40816000 	mtc0	at,c0_status
    f9ec:	00000040 	ssnop
    f9f0:	00000040 	ssnop
    f9f4:	00000040 	ssnop
    f9f8:	000000c0 	sll	zero,zero,0x3
    f9fc:	8c82002c 	lw	v0,44(a0)
    fa00:	34420001 	ori	v0,v0,0x1
    fa04:	ac82002c 	sw	v0,44(a0)
    fa08:	40016000 	mfc0	at,c0_status
    fa0c:	30630001 	andi	v1,v1,0x1
    fa10:	3421001f 	ori	at,at,0x1f
    fa14:	3821001f 	xori	at,at,0x1f
    fa18:	00611825 	or	v1,v1,at
    fa1c:	40836000 	mtc0	v1,c0_status
    fa20:	00000040 	ssnop
    fa24:	00000040 	ssnop
    fa28:	00000040 	ssnop
    fa2c:	000000c0 	sll	zero,zero,0x3
    fa30:	08003e3e 	j	f8f8 <ar6000_disconnect_event+0x288>
			fa30: R_MIPS_26	.text
    fa34:	3c020000 	lui	v0,0x0
			fa34: R_MIPS_HI16	memset
    fa38:	3c020000 	lui	v0,0x0
			fa38: R_MIPS_HI16	remove_sta
    fa3c:	00603021 	move	a2,v1
    fa40:	24420000 	addiu	v0,v0,0
			fa40: R_MIPS_LO16	remove_sta
    fa44:	0040f809 	jalr	v0
    fa48:	02e02821 	move	a1,s7
    fa4c:	1040ffb6 	beqz	v0,f928 <ar6000_disconnect_event+0x2b8>
    fa50:	8fbf006c 	lw	ra,108(sp)
    fa54:	92c215b4 	lbu	v0,5556(s6)
    fa58:	10400039 	beqz	v0,fb40 <ar6000_disconnect_event+0x4d0>
    fa5c:	3c020000 	lui	v0,0x0
			fa5c: R_MIPS_HI16	local_bh_disable
    fa60:	27b00020 	addiu	s0,sp,32
    fa64:	3c020000 	lui	v0,0x0
			fa64: R_MIPS_HI16	memset
    fa68:	02002021 	move	a0,s0
    fa6c:	00002821 	move	a1,zero
    fa70:	24420000 	addiu	v0,v0,0
			fa70: R_MIPS_LO16	memset
    fa74:	0040f809 	jalr	v0
    fa78:	24060010 	li	a2,16
    fa7c:	3c020000 	lui	v0,0x0
			fa7c: R_MIPS_HI16	memcpy
    fa80:	02e02821 	move	a1,s7
    fa84:	27a40022 	addiu	a0,sp,34
    fa88:	24420000 	addiu	v0,v0,0
			fa88: R_MIPS_LO16	memcpy
    fa8c:	0040f809 	jalr	v0
    fa90:	24060006 	li	a2,6
    fa94:	8ec40000 	lw	a0,0(s6)
    fa98:	3c020000 	lui	v0,0x0
			fa98: R_MIPS_HI16	wireless_send_event
    fa9c:	02003021 	move	a2,s0
    faa0:	34058c04 	li	a1,0x8c04
    faa4:	24420000 	addiu	v0,v0,0
			faa4: R_MIPS_LO16	wireless_send_event
    faa8:	0040f809 	jalr	v0
    faac:	00003821 	move	a3,zero
    fab0:	8fbf006c 	lw	ra,108(sp)
    fab4:	8fbe0068 	lw	s8,104(sp)
    fab8:	8fb70064 	lw	s7,100(sp)
    fabc:	8fb60060 	lw	s6,96(sp)
    fac0:	8fb5005c 	lw	s5,92(sp)
    fac4:	8fb40058 	lw	s4,88(sp)
    fac8:	8fb30054 	lw	s3,84(sp)
    facc:	8fb20050 	lw	s2,80(sp)
    fad0:	8fb1004c 	lw	s1,76(sp)
    fad4:	8fb00048 	lw	s0,72(sp)
    fad8:	03e00008 	jr	ra
    fadc:	27bd0070 	addiu	sp,sp,112
    fae0:	92e20002 	lbu	v0,2(s7)
    fae4:	14400012 	bnez	v0,fb30 <ar6000_disconnect_event+0x4c0>
    fae8:	00000000 	nop
    faec:	92e20003 	lbu	v0,3(s7)
    faf0:	1040005e 	beqz	v0,fc6c <ar6000_disconnect_event+0x5fc>
    faf4:	26e30003 	addiu	v1,s7,3
    faf8:	26e80004 	addiu	t0,s7,4
    fafc:	08003dd3 	j	f74c <ar6000_disconnect_event+0xdc>
			fafc: R_MIPS_26	.text
    fb00:	26e40005 	addiu	a0,s7,5
    fb04:	3c0a0000 	lui	t2,0x0
			fb04: R_MIPS_HI16	printk
    fb08:	3c040000 	lui	a0,0x0
			fb08: R_MIPS_HI16	$LC1
    fb0c:	25420000 	addiu	v0,t2,0
			fb0c: R_MIPS_LO16	printk
    fb10:	0040f809 	jalr	v0
    fb14:	24840000 	addiu	a0,a0,0
			fb14: R_MIPS_LO16	$LC1
    fb18:	24020003 	li	v0,3
    fb1c:	17c2ff3d 	bne	s8,v0,f814 <ar6000_disconnect_event+0x1a4>
    fb20:	24030001 	li	v1,1
    fb24:	3c110000 	lui	s1,0x0
			fb24: R_MIPS_HI16	reconnect_flag
    fb28:	08003e0b 	j	f82c <ar6000_disconnect_event+0x1bc>
			fb28: R_MIPS_26	.text
    fb2c:	aec004d8 	sw	zero,1240(s6)
    fb30:	26e30003 	addiu	v1,s7,3
    fb34:	26e80004 	addiu	t0,s7,4
    fb38:	08003dd3 	j	f74c <ar6000_disconnect_event+0xdc>
			fb38: R_MIPS_26	.text
    fb3c:	26e40005 	addiu	a0,s7,5
    fb40:	24420000 	addiu	v0,v0,0
			fb40: R_MIPS_LO16	local_bh_disable
    fb44:	0040f809 	jalr	v0
    fb48:	00000000 	nop
    fb4c:	8f820014 	lw	v0,20(gp)
    fb50:	24420001 	addiu	v0,v0,1
    fb54:	af820014 	sw	v0,20(gp)
    fb58:	3c020000 	lui	v0,0x0
			fb58: R_MIPS_HI16	a_netbuf_queue_empty
    fb5c:	24530000 	addiu	s3,v0,0
			fb5c: R_MIPS_LO16	a_netbuf_queue_empty
    fb60:	3c030000 	lui	v1,0x0
			fb60: R_MIPS_HI16	a_netbuf_dequeue
    fb64:	3c020000 	lui	v0,0x0
			fb64: R_MIPS_HI16	a_netbuf_free
    fb68:	24720000 	addiu	s2,v1,0
			fb68: R_MIPS_LO16	a_netbuf_dequeue
    fb6c:	24510000 	addiu	s1,v0,0
			fb6c: R_MIPS_LO16	a_netbuf_free
    fb70:	08003ee2 	j	fb88 <ar6000_disconnect_event+0x518>
			fb70: R_MIPS_26	.text
    fb74:	26d015f8 	addiu	s0,s6,5624
    fb78:	0240f809 	jalr	s2
    fb7c:	00000000 	nop
    fb80:	0220f809 	jalr	s1
    fb84:	00402021 	move	a0,v0
    fb88:	0260f809 	jalr	s3
    fb8c:	02002021 	move	a0,s0
    fb90:	1040fff9 	beqz	v0,fb78 <ar6000_disconnect_event+0x508>
    fb94:	02002021 	move	a0,s0
    fb98:	8f830014 	lw	v1,20(gp)
    fb9c:	3c040000 	lui	a0,0x0
			fb9c: R_MIPS_HI16	local_bh_enable
    fba0:	2463ffff 	addiu	v1,v1,-1
    fba4:	24840000 	addiu	a0,a0,0
			fba4: R_MIPS_LO16	local_bh_enable
    fba8:	0080f809 	jalr	a0
    fbac:	af830014 	sw	v1,20(gp)
    fbb0:	08003e99 	j	fa64 <ar6000_disconnect_event+0x3f4>
			fbb0: R_MIPS_26	.text
    fbb4:	27b00020 	addiu	s0,sp,32
    fbb8:	8ec40004 	lw	a0,4(s6)
    fbbc:	26100000 	addiu	s0,s0,0
			fbbc: R_MIPS_LO16	wmi_free_node
    fbc0:	0200f809 	jalr	s0
    fbc4:	02e02821 	move	a1,s7
    fbc8:	3c020000 	lui	v0,0x0
			fbc8: R_MIPS_HI16	wmi_find_Ssidnode
    fbcc:	24530000 	addiu	s3,v0,0
			fbcc: R_MIPS_LO16	wmi_find_Ssidnode
    fbd0:	26d1007c 	addiu	s1,s6,124
    fbd4:	08003ef9 	j	fbe4 <ar6000_disconnect_event+0x574>
			fbd4: R_MIPS_26	.text
    fbd8:	24120001 	li	s2,1
    fbdc:	0200f809 	jalr	s0
    fbe0:	8ec40004 	lw	a0,4(s6)
    fbe4:	8ec40004 	lw	a0,4(s6)
    fbe8:	8ec60078 	lw	a2,120(s6)
    fbec:	02202821 	move	a1,s1
    fbf0:	00003821 	move	a3,zero
    fbf4:	0260f809 	jalr	s3
    fbf8:	afb20010 	sw	s2,16(sp)
    fbfc:	1440fff7 	bnez	v0,fbdc <ar6000_disconnect_event+0x56c>
    fc00:	00402821 	move	a1,v0
    fc04:	3c020000 	lui	v0,0x0
			fc04: R_MIPS_HI16	ar6000_init_profile_info
    fc08:	24420000 	addiu	v0,v0,0
			fc08: R_MIPS_LO16	ar6000_init_profile_info
    fc0c:	0040f809 	jalr	v0
    fc10:	02c02021 	move	a0,s6
    fc14:	3c020000 	lui	v0,0x0
			fc14: R_MIPS_HI16	wmi_disconnect_cmd
    fc18:	24420000 	addiu	v0,v0,0
			fc18: R_MIPS_LO16	wmi_disconnect_cmd
    fc1c:	0040f809 	jalr	v0
    fc20:	8ec40004 	lw	a0,4(s6)
    fc24:	08003e0b 	j	f82c <ar6000_disconnect_event+0x1bc>
			fc24: R_MIPS_26	.text
    fc28:	3c110000 	lui	s1,0x0
			fc28: R_MIPS_HI16	reconnect_flag
    fc2c:	24020001 	li	v0,1
    fc30:	1062ff25 	beq	v1,v0,f8c8 <ar6000_disconnect_event+0x258>
    fc34:	3c020000 	lui	v0,0x0
			fc34: R_MIPS_HI16	reconnect_flag
    fc38:	08003e32 	j	f8c8 <ar6000_disconnect_event+0x258>
			fc38: R_MIPS_26	.text
    fc3c:	ac400000 	sw	zero,0(v0)
			fc3c: R_MIPS_LO16	reconnect_flag
    fc40:	8fa40040 	lw	a0,64(sp)
    fc44:	24020011 	li	v0,17
    fc48:	10820006 	beq	a0,v0,fc64 <ar6000_disconnect_event+0x5f4>
    fc4c:	00000000 	nop
    fc50:	1480fef6 	bnez	a0,f82c <ar6000_disconnect_event+0x1bc>
    fc54:	3c110000 	lui	s1,0x0
			fc54: R_MIPS_HI16	reconnect_flag
    fc58:	8e220000 	lw	v0,0(s1)
			fc58: R_MIPS_LO16	reconnect_flag
    fc5c:	1443fef3 	bne	v0,v1,f82c <ar6000_disconnect_event+0x1bc>
    fc60:	00000000 	nop
    fc64:	08003e49 	j	f924 <ar6000_disconnect_event+0x2b4>
			fc64: R_MIPS_26	.text
    fc68:	aec3003c 	sw	v1,60(s6)
    fc6c:	92e20004 	lbu	v0,4(s7)
    fc70:	14400006 	bnez	v0,fc8c <ar6000_disconnect_event+0x61c>
    fc74:	26e80004 	addiu	t0,s7,4
    fc78:	92e20005 	lbu	v0,5(s7)
    fc7c:	1040fec0 	beqz	v0,f780 <ar6000_disconnect_event+0x110>
    fc80:	26e40005 	addiu	a0,s7,5
    fc84:	08003dd4 	j	f750 <ar6000_disconnect_event+0xe0>
			fc84: R_MIPS_26	.text
    fc88:	90890000 	lbu	t1,0(a0)
    fc8c:	08003dd3 	j	f74c <ar6000_disconnect_event+0xdc>
			fc8c: R_MIPS_26	.text
    fc90:	26e40005 	addiu	a0,s7,5
    fc94:	08003e67 	j	f99c <ar6000_disconnect_event+0x32c>
			fc94: R_MIPS_26	.text
    fc98:	24450000 	addiu	a1,v0,0
			fc98: R_MIPS_LO16	$LC150
    fc9c:	24420000 	addiu	v0,v0,0
			fc9c: R_MIPS_LO16	preempt_schedule
    fca0:	0040f809 	jalr	v0
    fca4:	00000000 	nop
    fca8:	08003e2d 	j	f8b4 <ar6000_disconnect_event+0x244>
			fca8: R_MIPS_26	.text
    fcac:	24020008 	li	v0,8

0000fcb0 <ar6000_control_tx>:
    fcb0:	27bdffc8 	addiu	sp,sp,-56
    fcb4:	afb60028 	sw	s6,40(sp)
    fcb8:	afb20018 	sw	s2,24(sp)
    fcbc:	afbf0034 	sw	ra,52(sp)
    fcc0:	afbe0030 	sw	s8,48(sp)
    fcc4:	afb7002c 	sw	s7,44(sp)
    fcc8:	afb50024 	sw	s5,36(sp)
    fccc:	afb40020 	sw	s4,32(sp)
    fcd0:	afb3001c 	sw	s3,28(sp)
    fcd4:	afb10014 	sw	s1,20(sp)
    fcd8:	afb00010 	sw	s0,16(sp)
    fcdc:	0080b021 	move	s6,a0
    fce0:	00a09021 	move	s2,a1
    fce4:	afa60040 	sw	a2,64(sp)
    fce8:	40026000 	mfc0	v0,c0_status
    fcec:	30420001 	andi	v0,v0,0x1
    fcf0:	14400006 	bnez	v0,fd0c <ar6000_control_tx+0x5c>
    fcf4:	3c020000 	lui	v0,0x0
			fcf4: R_MIPS_HI16	local_bh_disable
    fcf8:	3c030000 	lui	v1,0x0
			fcf8: R_MIPS_HI16	debugdriver
    fcfc:	8c620000 	lw	v0,0(v1)
			fcfc: R_MIPS_LO16	debugdriver
    fd00:	1440009f 	bnez	v0,ff80 <ar6000_control_tx+0x2d0>
    fd04:	3c040000 	lui	a0,0x0
			fd04: R_MIPS_HI16	$LC97
    fd08:	3c020000 	lui	v0,0x0
			fd08: R_MIPS_HI16	local_bh_disable
    fd0c:	24420000 	addiu	v0,v0,0
			fd0c: R_MIPS_LO16	local_bh_disable
    fd10:	0040f809 	jalr	v0
    fd14:	00000000 	nop
    fd18:	8f820014 	lw	v0,20(gp)
    fd1c:	24420001 	addiu	v0,v0,1
    fd20:	af820014 	sw	v0,20(gp)
    fd24:	3c040000 	lui	a0,0x0
			fd24: R_MIPS_HI16	debugdriver
    fd28:	8c820000 	lw	v0,0(a0)
			fd28: R_MIPS_LO16	debugdriver
    fd2c:	28420002 	slti	v0,v0,2
    fd30:	1440000c 	bnez	v0,fd64 <ar6000_control_tx+0xb4>
    fd34:	3c020000 	lui	v0,0x0
			fd34: R_MIPS_HI16	a_netbuf_to_len
    fd38:	24420000 	addiu	v0,v0,0
			fd38: R_MIPS_LO16	a_netbuf_to_len
    fd3c:	0040f809 	jalr	v0
    fd40:	02402021 	move	a0,s2
    fd44:	00403021 	move	a2,v0
    fd48:	3c040000 	lui	a0,0x0
			fd48: R_MIPS_HI16	$LC152
    fd4c:	3c020000 	lui	v0,0x0
			fd4c: R_MIPS_HI16	printk
    fd50:	8fa70040 	lw	a3,64(sp)
    fd54:	24840000 	addiu	a0,a0,0
			fd54: R_MIPS_LO16	$LC152
    fd58:	24420000 	addiu	v0,v0,0
			fd58: R_MIPS_LO16	printk
    fd5c:	0040f809 	jalr	v0
    fd60:	02402821 	move	a1,s2
    fd64:	8ec2055c 	lw	v0,1372(s6)
    fd68:	10400004 	beqz	v0,fd7c <ar6000_control_tx+0xcc>
    fd6c:	8fa30040 	lw	v1,64(sp)
    fd70:	8ec20540 	lw	v0,1344(s6)
    fd74:	1062004e 	beq	v1,v0,feb0 <ar6000_control_tx+0x200>
    fd78:	3c020000 	lui	v0,0x0
			fd78: R_MIPS_HI16	debugdriver
    fd7c:	3c020001 	lui	v0,0x1
			fd7c: R_MIPS_HI16	.text
    fd80:	2442a084 	addiu	v0,v0,-24444
			fd80: R_MIPS_LO16	.text
    fd84:	0040f809 	jalr	v0
    fd88:	02c02021 	move	a0,s6
    fd8c:	1040008f 	beqz	v0,ffcc <ar6000_control_tx+0x31c>
    fd90:	00408821 	move	s1,v0
    fd94:	3c020000 	lui	v0,0x0
			fd94: R_MIPS_HI16	logWmiRawMsgs
    fd98:	8c430000 	lw	v1,0(v0)
			fd98: R_MIPS_LO16	logWmiRawMsgs
    fd9c:	1460004a 	bnez	v1,fec8 <ar6000_control_tx+0x218>
    fda0:	3c1e0000 	lui	s8,0x0
			fda0: R_MIPS_HI16	wmiSendCmdNum
    fda4:	8fc20000 	lw	v0,0(s8)
			fda4: R_MIPS_LO16	wmiSendCmdNum
    fda8:	8fa40040 	lw	a0,64(sp)
    fdac:	24420001 	addiu	v0,v0,1
    fdb0:	00041880 	sll	v1,a0,0x2
    fdb4:	afc20000 	sw	v0,0(s8)
			fdb4: R_MIPS_LO16	wmiSendCmdNum
    fdb8:	00761821 	addu	v1,v1,s6
    fdbc:	8c620008 	lw	v0,8(v1)
    fdc0:	8ec40540 	lw	a0,1344(s6)
    fdc4:	24420001 	addiu	v0,v0,1
    fdc8:	ac620008 	sw	v0,8(v1)
    fdcc:	8fa20040 	lw	v0,64(sp)
    fdd0:	10440005 	beq	v0,a0,fde8 <ar6000_control_tx+0x138>
    fdd4:	00008021 	move	s0,zero
    fdd8:	8ec2002c 	lw	v0,44(s6)
    fddc:	00008021 	move	s0,zero
    fde0:	24420001 	addiu	v0,v0,1
    fde4:	aec2002c 	sw	v0,44(s6)
    fde8:	40026000 	mfc0	v0,c0_status
    fdec:	30420001 	andi	v0,v0,0x1
    fdf0:	14400004 	bnez	v0,fe04 <ar6000_control_tx+0x154>
    fdf4:	3c030000 	lui	v1,0x0
			fdf4: R_MIPS_HI16	debugdriver
    fdf8:	8c620000 	lw	v0,0(v1)
			fdf8: R_MIPS_LO16	debugdriver
    fdfc:	14400075 	bnez	v0,ffd4 <ar6000_control_tx+0x324>
    fe00:	3c040000 	lui	a0,0x0
			fe00: R_MIPS_HI16	$LC99
    fe04:	8f830014 	lw	v1,20(gp)
    fe08:	3c040000 	lui	a0,0x0
			fe08: R_MIPS_HI16	local_bh_enable
    fe0c:	2463ffff 	addiu	v1,v1,-1
    fe10:	24840000 	addiu	a0,a0,0
			fe10: R_MIPS_LO16	local_bh_enable
    fe14:	0080f809 	jalr	a0
    fe18:	af830014 	sw	v1,20(gp)
    fe1c:	12200017 	beqz	s1,fe7c <ar6000_control_tx+0x1cc>
    fe20:	3c020000 	lui	v0,0x0
			fe20: R_MIPS_HI16	a_netbuf_to_data
    fe24:	02402021 	move	a0,s2
    fe28:	ae320000 	sw	s2,0(s1)
    fe2c:	ae200004 	sw	zero,4(s1)
    fe30:	24420000 	addiu	v0,v0,0
			fe30: R_MIPS_LO16	a_netbuf_to_data
    fe34:	0040f809 	jalr	v0
    fe38:	ae310010 	sw	s1,16(s1)
    fe3c:	ae220018 	sw	v0,24(s1)
    fe40:	3c020000 	lui	v0,0x0
			fe40: R_MIPS_HI16	a_netbuf_to_len
    fe44:	24420000 	addiu	v0,v0,0
			fe44: R_MIPS_LO16	a_netbuf_to_len
    fe48:	0040f809 	jalr	v0
    fe4c:	02402021 	move	a0,s2
    fe50:	ae220020 	sw	v0,32(s1)
    fe54:	8fa40040 	lw	a0,64(sp)
    fe58:	2402000a 	li	v0,10
    fe5c:	a622002c 	sh	v0,44(s1)
    fe60:	ae240024 	sw	a0,36(s1)
    fe64:	8ec40040 	lw	a0,64(s6)
    fe68:	3c020000 	lui	v0,0x0
			fe68: R_MIPS_HI16	HTCSendPkt
    fe6c:	24420000 	addiu	v0,v0,0
			fe6c: R_MIPS_LO16	HTCSendPkt
    fe70:	0040f809 	jalr	v0
    fe74:	26250008 	addiu	a1,s1,8
    fe78:	00008021 	move	s0,zero
    fe7c:	02001021 	move	v0,s0
    fe80:	8fbf0034 	lw	ra,52(sp)
    fe84:	8fbe0030 	lw	s8,48(sp)
    fe88:	8fb7002c 	lw	s7,44(sp)
    fe8c:	8fb60028 	lw	s6,40(sp)
    fe90:	8fb50024 	lw	s5,36(sp)
    fe94:	8fb40020 	lw	s4,32(sp)
    fe98:	8fb3001c 	lw	s3,28(sp)
    fe9c:	8fb20018 	lw	s2,24(sp)
    fea0:	8fb10014 	lw	s1,20(sp)
    fea4:	8fb00010 	lw	s0,16(sp)
    fea8:	03e00008 	jr	ra
    feac:	27bd0038 	addiu	sp,sp,56
    feb0:	8c430000 	lw	v1,0(v0)
			feb0: R_MIPS_LO16	debugdriver
    feb4:	14600038 	bnez	v1,ff98 <ar6000_control_tx+0x2e8>
    feb8:	3c020000 	lui	v0,0x0
			feb8: R_MIPS_HI16	a_netbuf_to_len
    febc:	24100002 	li	s0,2
    fec0:	08003f7a 	j	fde8 <ar6000_control_tx+0x138>
			fec0: R_MIPS_26	.text
    fec4:	00008821 	move	s1,zero
    fec8:	3c020000 	lui	v0,0x0
			fec8: R_MIPS_HI16	printk
    fecc:	8fc50000 	lw	a1,0(s8)
			fecc: R_MIPS_LO16	wmiSendCmdNum
    fed0:	3c040000 	lui	a0,0x0
			fed0: R_MIPS_HI16	$LC154
    fed4:	24500000 	addiu	s0,v0,0
			fed4: R_MIPS_LO16	printk
    fed8:	0200f809 	jalr	s0
    fedc:	24840000 	addiu	a0,a0,0
			fedc: R_MIPS_LO16	$LC154
    fee0:	3c020000 	lui	v0,0x0
			fee0: R_MIPS_HI16	a_netbuf_to_len
    fee4:	24550000 	addiu	s5,v0,0
			fee4: R_MIPS_LO16	a_netbuf_to_len
    fee8:	3c020000 	lui	v0,0x0
			fee8: R_MIPS_HI16	a_netbuf_to_data
    feec:	0200a021 	move	s4,s0
    fef0:	24570000 	addiu	s7,v0,0
			fef0: R_MIPS_LO16	a_netbuf_to_data
    fef4:	00008021 	move	s0,zero
    fef8:	08003fc7 	j	ff1c <ar6000_control_tx+0x26c>
			fef8: R_MIPS_26	.text
    fefc:	3c130000 	lui	s3,0x0
			fefc: R_MIPS_HI16	$LC155
    ff00:	02e0f809 	jalr	s7
    ff04:	00000000 	nop
    ff08:	00501021 	addu	v0,v0,s0
    ff0c:	90450000 	lbu	a1,0(v0)
    ff10:	0280f809 	jalr	s4
    ff14:	26640000 	addiu	a0,s3,0
			ff14: R_MIPS_LO16	$LC155
    ff18:	26100001 	addiu	s0,s0,1
    ff1c:	02a0f809 	jalr	s5
    ff20:	02402021 	move	a0,s2
    ff24:	0202102b 	sltu	v0,s0,v0
    ff28:	1440fff5 	bnez	v0,ff00 <ar6000_control_tx+0x250>
    ff2c:	02402021 	move	a0,s2
    ff30:	3c030000 	lui	v1,0x0
			ff30: R_MIPS_HI16	printk
    ff34:	3c040000 	lui	a0,0x0
			ff34: R_MIPS_HI16	$LC1
    ff38:	24620000 	addiu	v0,v1,0
			ff38: R_MIPS_LO16	printk
    ff3c:	0040f809 	jalr	v0
    ff40:	24840000 	addiu	a0,a0,0
			ff40: R_MIPS_LO16	$LC1
    ff44:	8fc20000 	lw	v0,0(s8)
			ff44: R_MIPS_LO16	wmiSendCmdNum
    ff48:	8fa40040 	lw	a0,64(sp)
    ff4c:	24420001 	addiu	v0,v0,1
    ff50:	00041880 	sll	v1,a0,0x2
    ff54:	afc20000 	sw	v0,0(s8)
			ff54: R_MIPS_LO16	wmiSendCmdNum
    ff58:	00761821 	addu	v1,v1,s6
    ff5c:	8c620008 	lw	v0,8(v1)
    ff60:	8ec40540 	lw	a0,1344(s6)
    ff64:	24420001 	addiu	v0,v0,1
    ff68:	ac620008 	sw	v0,8(v1)
    ff6c:	8fa20040 	lw	v0,64(sp)
    ff70:	1444ff99 	bne	v0,a0,fdd8 <ar6000_control_tx+0x128>
    ff74:	00008021 	move	s0,zero
    ff78:	08003f7a 	j	fde8 <ar6000_control_tx+0x138>
			ff78: R_MIPS_26	.text
    ff7c:	00000000 	nop
    ff80:	3c020000 	lui	v0,0x0
			ff80: R_MIPS_HI16	printk
    ff84:	24420000 	addiu	v0,v0,0
			ff84: R_MIPS_LO16	printk
    ff88:	0040f809 	jalr	v0
    ff8c:	24840000 	addiu	a0,a0,0
			ff8c: R_MIPS_LO16	$LC97
    ff90:	08003f43 	j	fd0c <ar6000_control_tx+0x5c>
			ff90: R_MIPS_26	.text
    ff94:	3c020000 	lui	v0,0x0
			ff94: R_MIPS_HI16	local_bh_disable
    ff98:	24420000 	addiu	v0,v0,0
			ff98: R_MIPS_LO16	a_netbuf_to_len
    ff9c:	0040f809 	jalr	v0
    ffa0:	02402021 	move	a0,s2
    ffa4:	00403021 	move	a2,v0
    ffa8:	3c040000 	lui	a0,0x0
			ffa8: R_MIPS_HI16	$LC153
    ffac:	3c020000 	lui	v0,0x0
			ffac: R_MIPS_HI16	printk
    ffb0:	24840000 	addiu	a0,a0,0
			ffb0: R_MIPS_LO16	$LC153
    ffb4:	24420000 	addiu	v0,v0,0
			ffb4: R_MIPS_LO16	printk
    ffb8:	0040f809 	jalr	v0
    ffbc:	02402821 	move	a1,s2
    ffc0:	24100002 	li	s0,2
    ffc4:	08003f7a 	j	fde8 <ar6000_control_tx+0x138>
			ffc4: R_MIPS_26	.text
    ffc8:	00008821 	move	s1,zero
    ffcc:	08003f7a 	j	fde8 <ar6000_control_tx+0x138>
			ffcc: R_MIPS_26	.text
    ffd0:	24100002 	li	s0,2
    ffd4:	3c020000 	lui	v0,0x0
			ffd4: R_MIPS_HI16	printk
    ffd8:	24420000 	addiu	v0,v0,0
			ffd8: R_MIPS_LO16	printk
    ffdc:	0040f809 	jalr	v0
    ffe0:	24840000 	addiu	a0,a0,0
			ffe0: R_MIPS_LO16	$LC99
    ffe4:	08003f81 	j	fe04 <ar6000_control_tx+0x154>
			ffe4: R_MIPS_26	.text
    ffe8:	00000000 	nop

0000ffec <ar6000_indicate_tx_activity>:
    ffec:	27bdffd8 	addiu	sp,sp,-40
    fff0:	afb20018 	sw	s2,24(sp)
    fff4:	afb10014 	sw	s1,20(sp)
    fff8:	afb00010 	sw	s0,16(sp)
    fffc:	afbf0024 	sw	ra,36(sp)
   10000:	afb40020 	sw	s4,32(sp)
   10004:	afb3001c 	sw	s3,28(sp)
   10008:	8c820034 	lw	v0,52(a0)
   1000c:	00808021 	move	s0,a0
   10010:	00c09021 	move	s2,a2
   10014:	10400031 	beqz	v0,100dc <ar6000_indicate_tx_activity+0xf0>
   10018:	30b100ff 	andi	s1,a1,0xff
   1001c:	00119880 	sll	s3,s1,0x2
   10020:	02641821 	addu	v1,s3,a0
   10024:	8c740510 	lw	s4,1296(v1)
   10028:	40026000 	mfc0	v0,c0_status
   1002c:	30420001 	andi	v0,v0,0x1
   10030:	10400040 	beqz	v0,10134 <ar6000_indicate_tx_activity+0x148>
   10034:	3c020000 	lui	v0,0x0
			10034: R_MIPS_HI16	debugdriver
   10038:	3c020000 	lui	v0,0x0
			10038: R_MIPS_HI16	local_bh_disable
   1003c:	24420000 	addiu	v0,v0,0
			1003c: R_MIPS_LO16	local_bh_disable
   10040:	0040f809 	jalr	v0
   10044:	00000000 	nop
   10048:	8f820014 	lw	v0,20(gp)
   1004c:	24420001 	addiu	v0,v0,1
   10050:	af820014 	sw	v0,20(gp)
   10054:	02701021 	addu	v0,s3,s0
   10058:	1640002e 	bnez	s2,10114 <ar6000_indicate_tx_activity+0x128>
   1005c:	ac520520 	sw	s2,1312(v0)
   10060:	02301021 	addu	v0,s1,s0
   10064:	90440530 	lbu	a0,1328(v0)
   10068:	92030534 	lbu	v1,1332(s0)
   1006c:	10640040 	beq	v1,a0,10170 <ar6000_indicate_tx_activity+0x184>
   10070:	02001821 	move	v1,s0
   10074:	40026000 	mfc0	v0,c0_status
   10078:	30420001 	andi	v0,v0,0x1
   1007c:	14400004 	bnez	v0,10090 <ar6000_indicate_tx_activity+0xa4>
   10080:	3c020000 	lui	v0,0x0
			10080: R_MIPS_HI16	debugdriver
   10084:	8c430000 	lw	v1,0(v0)
			10084: R_MIPS_LO16	debugdriver
   10088:	14600033 	bnez	v1,10158 <ar6000_indicate_tx_activity+0x16c>
   1008c:	3c040000 	lui	a0,0x0
			1008c: R_MIPS_HI16	$LC99
   10090:	8f830014 	lw	v1,20(gp)
   10094:	3c040000 	lui	a0,0x0
			10094: R_MIPS_HI16	local_bh_enable
   10098:	2463ffff 	addiu	v1,v1,-1
   1009c:	24840000 	addiu	a0,a0,0
			1009c: R_MIPS_LO16	local_bh_enable
   100a0:	0080f809 	jalr	a0
   100a4:	af830014 	sw	v1,20(gp)
   100a8:	8e040040 	lw	a0,64(s0)
   100ac:	3c190000 	lui	t9,0x0
			100ac: R_MIPS_HI16	HTCIndicateActivityChange
   100b0:	02802821 	move	a1,s4
   100b4:	02403021 	move	a2,s2
   100b8:	8fbf0024 	lw	ra,36(sp)
   100bc:	8fb40020 	lw	s4,32(sp)
   100c0:	8fb3001c 	lw	s3,28(sp)
   100c4:	8fb20018 	lw	s2,24(sp)
   100c8:	8fb10014 	lw	s1,20(sp)
   100cc:	8fb00010 	lw	s0,16(sp)
   100d0:	27390000 	addiu	t9,t9,0
			100d0: R_MIPS_LO16	HTCIndicateActivityChange
   100d4:	03200008 	jr	t9
   100d8:	27bd0028 	addiu	sp,sp,40
   100dc:	0220a021 	move	s4,s1
   100e0:	8e040040 	lw	a0,64(s0)
   100e4:	3c190000 	lui	t9,0x0
			100e4: R_MIPS_HI16	HTCIndicateActivityChange
   100e8:	02802821 	move	a1,s4
   100ec:	02403021 	move	a2,s2
   100f0:	8fbf0024 	lw	ra,36(sp)
   100f4:	8fb40020 	lw	s4,32(sp)
   100f8:	8fb3001c 	lw	s3,28(sp)
   100fc:	8fb20018 	lw	s2,24(sp)
   10100:	8fb10014 	lw	s1,20(sp)
   10104:	8fb00010 	lw	s0,16(sp)
   10108:	27390000 	addiu	t9,t9,0
			10108: R_MIPS_LO16	HTCIndicateActivityChange
   1010c:	03200008 	jr	t9
   10110:	27bd0028 	addiu	sp,sp,40
   10114:	02301821 	addu	v1,s1,s0
   10118:	90630530 	lbu	v1,1328(v1)
   1011c:	92020534 	lbu	v0,1332(s0)
   10120:	0043102b 	sltu	v0,v0,v1
   10124:	1040ffd3 	beqz	v0,10074 <ar6000_indicate_tx_activity+0x88>
   10128:	00000000 	nop
   1012c:	0800401d 	j	10074 <ar6000_indicate_tx_activity+0x88>
			1012c: R_MIPS_26	.text
   10130:	a2030534 	sb	v1,1332(s0)
   10134:	8c430000 	lw	v1,0(v0)
			10134: R_MIPS_LO16	debugdriver
   10138:	1060ffbf 	beqz	v1,10038 <ar6000_indicate_tx_activity+0x4c>
   1013c:	3c040000 	lui	a0,0x0
			1013c: R_MIPS_HI16	$LC97
   10140:	3c020000 	lui	v0,0x0
			10140: R_MIPS_HI16	printk
   10144:	24420000 	addiu	v0,v0,0
			10144: R_MIPS_LO16	printk
   10148:	0040f809 	jalr	v0
   1014c:	24840000 	addiu	a0,a0,0
			1014c: R_MIPS_LO16	$LC97
   10150:	0800400f 	j	1003c <ar6000_indicate_tx_activity+0x50>
			10150: R_MIPS_26	.text
   10154:	3c020000 	lui	v0,0x0
			10154: R_MIPS_HI16	local_bh_disable
   10158:	3c020000 	lui	v0,0x0
			10158: R_MIPS_HI16	printk
   1015c:	24420000 	addiu	v0,v0,0
			1015c: R_MIPS_LO16	printk
   10160:	0040f809 	jalr	v0
   10164:	24840000 	addiu	a0,a0,0
			10164: R_MIPS_LO16	$LC99
   10168:	08004024 	j	10090 <ar6000_indicate_tx_activity+0xa4>
			10168: R_MIPS_26	.text
   1016c:	00000000 	nop
   10170:	a2000534 	sb	zero,1332(s0)
   10174:	00002021 	move	a0,zero
   10178:	24060004 	li	a2,4
   1017c:	8c620520 	lw	v0,1312(v1)
   10180:	02042821 	addu	a1,s0,a0
   10184:	24630004 	addiu	v1,v1,4
   10188:	10400007 	beqz	v0,101a8 <ar6000_indicate_tx_activity+0x1bc>
   1018c:	24840001 	addiu	a0,a0,1
   10190:	90a50530 	lbu	a1,1328(a1)
   10194:	92020534 	lbu	v0,1332(s0)
   10198:	0045102b 	sltu	v0,v0,a1
   1019c:	10400002 	beqz	v0,101a8 <ar6000_indicate_tx_activity+0x1bc>
   101a0:	00000000 	nop
   101a4:	a2050534 	sb	a1,1332(s0)
   101a8:	1486fff4 	bne	a0,a2,1017c <ar6000_indicate_tx_activity+0x190>
   101ac:	00000000 	nop
   101b0:	0800401d 	j	10074 <ar6000_indicate_tx_activity+0x88>
			101b0: R_MIPS_26	.text
   101b4:	00000000 	nop

000101b8 <ar6000_avail_ev>:
   101b8:	27bdffa0 	addiu	sp,sp,-96
   101bc:	afb70054 	sw	s7,84(sp)
   101c0:	afb20040 	sw	s2,64(sp)
   101c4:	afbf005c 	sw	ra,92(sp)
   101c8:	afbe0058 	sw	s8,88(sp)
   101cc:	afb60050 	sw	s6,80(sp)
   101d0:	afb5004c 	sw	s5,76(sp)
   101d4:	afb40048 	sw	s4,72(sp)
   101d8:	afb30044 	sw	s3,68(sp)
   101dc:	afb1003c 	sw	s1,60(sp)
   101e0:	afb00038 	sw	s0,56(sp)
   101e4:	3c170000 	lui	s7,0x0
			101e4: R_MIPS_HI16	debugdriver
   101e8:	8ee20000 	lw	v0,0(s7)
			101e8: R_MIPS_LO16	debugdriver
   101ec:	14400256 	bnez	v0,10b48 <ar6000_avail_ev+0x990>
   101f0:	00a09021 	move	s2,a1
   101f4:	3c030000 	lui	v1,0x0
			101f4: R_MIPS_HI16	.bss
   101f8:	8c6209d0 	lw	v0,2512(v1)
			101f8: R_MIPS_LO16	.bss
   101fc:	1440025c 	bnez	v0,10b70 <ar6000_avail_ev+0x9b8>
   10200:	8ee20000 	lw	v0,0(s7)
			10200: R_MIPS_LO16	debugdriver
   10204:	3c100000 	lui	s0,0x0
			10204: R_MIPS_HI16	ether_setup
   10208:	3c050000 	lui	a1,0x0
			10208: R_MIPS_HI16	$LC158
   1020c:	3c020000 	lui	v0,0x0
			1020c: R_MIPS_HI16	alloc_netdev_mq
   10210:	24a50000 	addiu	a1,a1,0
			10210: R_MIPS_LO16	$LC158
   10214:	24041628 	li	a0,5672
   10218:	26060000 	addiu	a2,s0,0
			10218: R_MIPS_LO16	ether_setup
   1021c:	24420000 	addiu	v0,v0,0
			1021c: R_MIPS_LO16	alloc_netdev_mq
   10220:	0040f809 	jalr	v0
   10224:	24070001 	li	a3,1
   10228:	1040025f 	beqz	v0,10ba8 <ar6000_avail_ev+0x9f0>
   1022c:	0040a821 	move	s5,v0
   10230:	3c030000 	lui	v1,0x0
			10230: R_MIPS_HI16	ifname
   10234:	80620000 	lb	v0,0(v1)
			10234: R_MIPS_LO16	ifname
   10238:	1440006c 	bnez	v0,103ec <ar6000_avail_ev+0x234>
   1023c:	24620000 	addiu	v0,v1,0
			1023c: R_MIPS_LO16	ifname
   10240:	26020000 	addiu	v0,s0,0
			10240: R_MIPS_LO16	ether_setup
   10244:	0040f809 	jalr	v0
   10248:	02a02021 	move	a0,s5
   1024c:	8eb40194 	lw	s4,404(s5)
   10250:	1280025e 	beqz	s4,10bcc <ar6000_avail_ev+0xa14>
   10254:	3c1e0000 	lui	s8,0x0
			10254: R_MIPS_HI16	memset
   10258:	24100001 	li	s0,1
   1025c:	00002821 	move	a1,zero
   10260:	24061628 	li	a2,5672
   10264:	27d10000 	addiu	s1,s8,0
			10264: R_MIPS_LO16	memset
   10268:	02802021 	move	a0,s4
   1026c:	0220f809 	jalr	s1
   10270:	3c160000 	lui	s6,0x0
			10270: R_MIPS_HI16	init_timer
   10274:	26c30000 	addiu	v1,s6,0
			10274: R_MIPS_LO16	init_timer
   10278:	ae920044 	sw	s2,68(s4)
   1027c:	ae90044c 	sw	s0,1100(s4)
   10280:	268404e0 	addiu	a0,s4,1248
   10284:	ae950000 	sw	s5,0(s4)
   10288:	0060f809 	jalr	v1
   1028c:	ae80054c 	sw	zero,1356(s4)
   10290:	3c020001 	lui	v0,0x1
			10290: R_MIPS_HI16	.text
   10294:	2442102c 	addiu	v0,v0,4140
			10294: R_MIPS_LO16	.text
   10298:	ae8204ec 	sw	v0,1260(s4)
   1029c:	3c020000 	lui	v0,0x0
			1029c: R_MIPS_HI16	ar6000_init_profile_info
   102a0:	ae9004f8 	sw	s0,1272(s4)
   102a4:	a2900505 	sb	s0,1285(s4)
   102a8:	02802021 	move	a0,s4
   102ac:	24420000 	addiu	v0,v0,0
			102ac: R_MIPS_LO16	ar6000_init_profile_info
   102b0:	ae9504f0 	sw	s5,1264(s4)
   102b4:	ae8004fc 	sw	zero,1276(s4)
   102b8:	ae800500 	sw	zero,1280(s4)
   102bc:	a2800504 	sb	zero,1284(s4)
   102c0:	0040f809 	jalr	v0
   102c4:	ae800034 	sw	zero,52(s4)
   102c8:	268400a5 	addiu	a0,s4,165
   102cc:	00002821 	move	a1,zero
   102d0:	24060108 	li	a2,264
   102d4:	0220f809 	jalr	s1
   102d8:	a28000a4 	sb	zero,164(s4)
   102dc:	3c023101 	lui	v0,0x3101
   102e0:	24031388 	li	v1,5000
   102e4:	34420149 	ori	v0,v0,0x149
   102e8:	a68301be 	sh	v1,446(s4)
   102ec:	a2901608 	sb	s0,5640(s4)
   102f0:	ae9004dc 	sw	s0,1244(s4)
   102f4:	ae8201c0 	sw	v0,448(s4)
   102f8:	a68001ba 	sh	zero,442(s4)
   102fc:	a28001d0 	sb	zero,464(s4)
   10300:	a28001d1 	sb	zero,465(s4)
   10304:	ae8001d4 	sw	zero,468(s4)
   10308:	a28004d2 	sb	zero,1234(s4)
   1030c:	a68004d4 	sh	zero,1236(s4)
   10310:	ae8001d8 	sw	zero,472(s4)
   10314:	a2800430 	sb	zero,1072(s4)
   10318:	26840cf4 	addiu	a0,s4,3316
   1031c:	00002821 	move	a1,zero
   10320:	0220f809 	jalr	s1
   10324:	240608c0 	li	a2,2240
   10328:	3c030000 	lui	v1,0x0
			10328: R_MIPS_HI16	a_netbuf_queue_init
   1032c:	24730000 	addiu	s3,v1,0
			1032c: R_MIPS_LO16	a_netbuf_queue_init
   10330:	00008821 	move	s1,zero
   10334:	24120008 	li	s2,8
   10338:	26900e00 	addiu	s0,s4,3584
   1033c:	02002021 	move	a0,s0
   10340:	0260f809 	jalr	s3
   10344:	26310001 	addiu	s1,s1,1
   10348:	1632fffc 	bne	s1,s2,1033c <ar6000_avail_ev+0x184>
   1034c:	26100118 	addiu	s0,s0,280
   10350:	268415f8 	addiu	a0,s4,5624
   10354:	0260f809 	jalr	s3
   10358:	a6800ca8 	sh	zero,3240(s4)
   1035c:	3c100000 	lui	s0,0x0
			1035c: R_MIPS_HI16	init_waitqueue_head
   10360:	3c040000 	lui	a0,0x0
			10360: R_MIPS_HI16	arEvent
   10364:	24840000 	addiu	a0,a0,0
			10364: R_MIPS_LO16	arEvent
   10368:	26100000 	addiu	s0,s0,0
			10368: R_MIPS_LO16	init_waitqueue_head
   1036c:	0200f809 	jalr	s0
   10370:	24110001 	li	s1,1
   10374:	2684004c 	addiu	a0,s4,76
   10378:	0200f809 	jalr	s0
   1037c:	ae910048 	sw	s1,72(s4)
   10380:	26c30000 	addiu	v1,s6,0
			10380: R_MIPS_LO16	init_timer
   10384:	ae80160c 	sw	zero,5644(s4)
   10388:	0060f809 	jalr	v1
   1038c:	26841610 	addiu	a0,s4,5648
   10390:	3c020001 	lui	v0,0x1
			10390: R_MIPS_HI16	.text
   10394:	24420fe0 	addiu	v0,v0,4064
			10394: R_MIPS_LO16	.text
   10398:	ae82161c 	sw	v0,5660(s4)
   1039c:	ae951620 	sw	s5,5664(s4)
   103a0:	3c020000 	lui	v0,0x0
			103a0: R_MIPS_HI16	skipflash
   103a4:	8c430000 	lw	v1,0(v0)
			103a4: R_MIPS_LO16	skipflash
   103a8:	10600018 	beqz	v1,1040c <ar6000_avail_ev+0x254>
   103ac:	8ee20000 	lw	v0,0(s7)
			103ac: R_MIPS_LO16	debugdriver
   103b0:	144001f7 	bnez	v0,10b90 <ar6000_avail_ev+0x9d8>
   103b4:	3c020000 	lui	v0,0x0
			103b4: R_MIPS_HI16	printk
   103b8:	2402ffff 	li	v0,-1
   103bc:	8fbf005c 	lw	ra,92(sp)
   103c0:	8fbe0058 	lw	s8,88(sp)
   103c4:	8fb70054 	lw	s7,84(sp)
   103c8:	8fb60050 	lw	s6,80(sp)
   103cc:	8fb5004c 	lw	s5,76(sp)
   103d0:	8fb40048 	lw	s4,72(sp)
   103d4:	8fb30044 	lw	s3,68(sp)
   103d8:	8fb20040 	lw	s2,64(sp)
   103dc:	8fb1003c 	lw	s1,60(sp)
   103e0:	8fb00038 	lw	s0,56(sp)
   103e4:	03e00008 	jr	ra
   103e8:	27bd0060 	addiu	sp,sp,96
   103ec:	02a02021 	move	a0,s5
   103f0:	90410000 	lbu	at,0(v0)
   103f4:	24420001 	addiu	v0,v0,1
   103f8:	a0810000 	sb	at,0(a0)
   103fc:	1420fffc 	bnez	at,103f0 <ar6000_avail_ev+0x238>
   10400:	24840001 	addiu	a0,a0,1
   10404:	08004091 	j	10244 <ar6000_avail_ev+0x8c>
			10404: R_MIPS_26	.text
   10408:	26020000 	addiu	v0,s0,0
			10408: R_MIPS_LO16	ether_setup
   1040c:	3c020000 	lui	v0,0x0
			1040c: R_MIPS_HI16	BMIInit
   10410:	24420000 	addiu	v0,v0,0
			10410: R_MIPS_LO16	BMIInit
   10414:	0040f809 	jalr	v0
   10418:	00000000 	nop
   1041c:	3c020000 	lui	v0,0x0
			1041c: R_MIPS_HI16	BMIGetTargetInfo
   10420:	8e840044 	lw	a0,68(s4)
   10424:	24420000 	addiu	v0,v0,0
			10424: R_MIPS_LO16	BMIGetTargetInfo
   10428:	0040f809 	jalr	v0
   1042c:	27a50028 	addiu	a1,sp,40
   10430:	1440ffe2 	bnez	v0,103bc <ar6000_avail_ev+0x204>
   10434:	2402ffff 	li	v0,-1
   10438:	8fa2002c 	lw	v0,44(sp)
   1043c:	8e840044 	lw	a0,68(s4)
   10440:	ae8201c4 	sw	v0,452(s4)
   10444:	8fa50030 	lw	a1,48(sp)
   10448:	3c020000 	lui	v0,0x0
			10448: R_MIPS_HI16	ar6000_prepare_target
   1044c:	ae8501cc 	sw	a1,460(s4)
   10450:	8fa50030 	lw	a1,48(sp)
   10454:	24420000 	addiu	v0,v0,0
			10454: R_MIPS_LO16	ar6000_prepare_target
   10458:	0040f809 	jalr	v0
   1045c:	8fa6002c 	lw	a2,44(sp)
   10460:	1440ffd5 	bnez	v0,103b8 <ar6000_avail_ev+0x200>
   10464:	3c020000 	lui	v0,0x0
			10464: R_MIPS_HI16	enableuartprint
   10468:	8c430000 	lw	v1,0(v0)
			10468: R_MIPS_LO16	enableuartprint
   1046c:	146001de 	bnez	v1,10be8 <ar6000_avail_ev+0xa30>
   10470:	27b00018 	addiu	s0,sp,24
   10474:	3c130000 	lui	s3,0x0
			10474: R_MIPS_HI16	BMIWriteMemory
   10478:	24050002 	li	a1,2
   1047c:	afa50018 	sw	a1,24(sp)
   10480:	8e8301cc 	lw	v1,460(s4)
   10484:	24020001 	li	v0,1
   10488:	106201fc 	beq	v1,v0,10c7c <ar6000_avail_ev+0xac4>
   1048c:	8e840044 	lw	a0,68(s4)
   10490:	106501ff 	beq	v1,a1,10c90 <ar6000_avail_ev+0xad8>
   10494:	24020003 	li	v0,3
   10498:	106201fb 	beq	v1,v0,10c88 <ar6000_avail_ev+0xad0>
   1049c:	3c020054 	lui	v0,0x54
   104a0:	00002821 	move	a1,zero
   104a4:	02003021 	move	a2,s0
   104a8:	26620000 	addiu	v0,s3,0
			104a8: R_MIPS_LO16	BMIWriteMemory
   104ac:	0040f809 	jalr	v0
   104b0:	24070004 	li	a3,4
   104b4:	14400257 	bnez	v0,10e14 <ar6000_avail_ev+0xc5c>
   104b8:	3c020000 	lui	v0,0x0
			104b8: R_MIPS_HI16	testmode
   104bc:	8c430000 	lw	v1,0(v0)
			104bc: R_MIPS_LO16	testmode
   104c0:	106001e3 	beqz	v1,10c50 <ar6000_avail_ev+0xa98>
   104c4:	24020003 	li	v0,3
   104c8:	24020002 	li	v0,2
   104cc:	ae820440 	sw	v0,1088(s4)
   104d0:	3c020000 	lui	v0,0x0
			104d0: R_MIPS_HI16	enabletimerwar
   104d4:	8c430000 	lw	v1,0(v0)
			104d4: R_MIPS_LO16	enabletimerwar
   104d8:	1060002a 	beqz	v1,10584 <ar6000_avail_ev+0x3cc>
   104dc:	3c120000 	lui	s2,0x0
			104dc: R_MIPS_HI16	BMIReadMemory
   104e0:	8e8301cc 	lw	v1,460(s4)
   104e4:	24020001 	li	v0,1
   104e8:	106201db 	beq	v1,v0,10c58 <ar6000_avail_ev+0xaa0>
   104ec:	8e840044 	lw	a0,68(s4)
   104f0:	24020002 	li	v0,2
   104f4:	1062029c 	beq	v1,v0,10f68 <ar6000_avail_ev+0xdb0>
   104f8:	24020003 	li	v0,3
   104fc:	10620298 	beq	v1,v0,10f60 <ar6000_avail_ev+0xda8>
   10500:	3c020054 	lui	v0,0x54
   10504:	00002821 	move	a1,zero
   10508:	3c120000 	lui	s2,0x0
			10508: R_MIPS_HI16	BMIReadMemory
   1050c:	27a6001c 	addiu	a2,sp,28
   10510:	26420000 	addiu	v0,s2,0
			10510: R_MIPS_LO16	BMIReadMemory
   10514:	0040f809 	jalr	v0
   10518:	24070004 	li	a3,4
   1051c:	14400246 	bnez	v0,10e38 <ar6000_avail_ev+0xc80>
   10520:	8fa2001c 	lw	v0,28(sp)
   10524:	34420001 	ori	v0,v0,0x1
   10528:	afa2001c 	sw	v0,28(sp)
   1052c:	8e8301cc 	lw	v1,460(s4)
   10530:	24020001 	li	v0,1
   10534:	106201d9 	beq	v1,v0,10c9c <ar6000_avail_ev+0xae4>
   10538:	8e840044 	lw	a0,68(s4)
   1053c:	24020002 	li	v0,2
   10540:	10620248 	beq	v1,v0,10e64 <ar6000_avail_ev+0xcac>
   10544:	24020003 	li	v0,3
   10548:	10620244 	beq	v1,v0,10e5c <ar6000_avail_ev+0xca4>
   1054c:	3c020054 	lui	v0,0x54
   10550:	00002821 	move	a1,zero
   10554:	27a6001c 	addiu	a2,sp,28
   10558:	26620000 	addiu	v0,s3,0
			10558: R_MIPS_LO16	BMIWriteMemory
   1055c:	0040f809 	jalr	v0
   10560:	24070004 	li	a3,4
   10564:	144001f8 	bnez	v0,10d48 <ar6000_avail_ev+0xb90>
   10568:	8ee20000 	lw	v0,0(s7)
			10568: R_MIPS_LO16	debugdriver
   1056c:	10400005 	beqz	v0,10584 <ar6000_avail_ev+0x3cc>
   10570:	3c040000 	lui	a0,0x0
			10570: R_MIPS_HI16	$LC167
   10574:	3c020000 	lui	v0,0x0
			10574: R_MIPS_HI16	printk
   10578:	24420000 	addiu	v0,v0,0
			10578: R_MIPS_LO16	printk
   1057c:	0040f809 	jalr	v0
   10580:	24840000 	addiu	a0,a0,0
			10580: R_MIPS_LO16	$LC167
   10584:	8e8301cc 	lw	v1,460(s4)
   10588:	24020001 	li	v0,1
   1058c:	106201e2 	beq	v1,v0,10d18 <ar6000_avail_ev+0xb60>
   10590:	8e840044 	lw	a0,68(s4)
   10594:	24020002 	li	v0,2
   10598:	106201dc 	beq	v1,v0,10d0c <ar6000_avail_ev+0xb54>
   1059c:	24020003 	li	v0,3
   105a0:	106201d8 	beq	v1,v0,10d04 <ar6000_avail_ev+0xb4c>
   105a4:	3c020054 	lui	v0,0x54
   105a8:	00002821 	move	a1,zero
   105ac:	27a6001c 	addiu	a2,sp,28
   105b0:	26420000 	addiu	v0,s2,0
			105b0: R_MIPS_LO16	BMIReadMemory
   105b4:	0040f809 	jalr	v0
   105b8:	24070004 	li	a3,4
   105bc:	144001d9 	bnez	v0,10d24 <ar6000_avail_ev+0xb6c>
   105c0:	3c020000 	lui	v0,0x0
			105c0: R_MIPS_HI16	fwmode
   105c4:	8c430000 	lw	v1,0(v0)
			105c4: R_MIPS_LO16	fwmode
   105c8:	8fa2001c 	lw	v0,28(sp)
   105cc:	00031b00 	sll	v1,v1,0xc
   105d0:	00431025 	or	v0,v0,v1
   105d4:	afa2001c 	sw	v0,28(sp)
   105d8:	8e8301cc 	lw	v1,460(s4)
   105dc:	24020001 	li	v0,1
   105e0:	106201c5 	beq	v1,v0,10cf8 <ar6000_avail_ev+0xb40>
   105e4:	8e840044 	lw	a0,68(s4)
   105e8:	24020002 	li	v0,2
   105ec:	106201bf 	beq	v1,v0,10cec <ar6000_avail_ev+0xb34>
   105f0:	24020003 	li	v0,3
   105f4:	106201bb 	beq	v1,v0,10ce4 <ar6000_avail_ev+0xb2c>
   105f8:	3c020054 	lui	v0,0x54
   105fc:	00002821 	move	a1,zero
   10600:	27a6001c 	addiu	a2,sp,28
   10604:	26620000 	addiu	v0,s3,0
			10604: R_MIPS_LO16	BMIWriteMemory
   10608:	0040f809 	jalr	v0
   1060c:	24070004 	li	a3,4
   10610:	144001d5 	bnez	v0,10d68 <ar6000_avail_ev+0xbb0>
   10614:	8ee20000 	lw	v0,0(s7)
			10614: R_MIPS_LO16	debugdriver
   10618:	144001a9 	bnez	v0,10cc0 <ar6000_avail_ev+0xb08>
   1061c:	3c040000 	lui	a0,0x0
			1061c: R_MIPS_HI16	$LC170
   10620:	3c110000 	lui	s1,0x0
			10620: R_MIPS_HI16	processDot11Hdr
   10624:	8e220000 	lw	v0,0(s1)
			10624: R_MIPS_LO16	processDot11Hdr
   10628:	10400028 	beqz	v0,106cc <ar6000_avail_ev+0x514>
   1062c:	24020001 	li	v0,1
   10630:	8e8301cc 	lw	v1,460(s4)
   10634:	1062019f 	beq	v1,v0,10cb4 <ar6000_avail_ev+0xafc>
   10638:	8e840044 	lw	a0,68(s4)
   1063c:	24020002 	li	v0,2
   10640:	106201dc 	beq	v1,v0,10db4 <ar6000_avail_ev+0xbfc>
   10644:	24020003 	li	v0,3
   10648:	106201d8 	beq	v1,v0,10dac <ar6000_avail_ev+0xbf4>
   1064c:	3c020054 	lui	v0,0x54
   10650:	00002821 	move	a1,zero
   10654:	26420000 	addiu	v0,s2,0
			10654: R_MIPS_LO16	BMIReadMemory
   10658:	27a6001c 	addiu	a2,sp,28
   1065c:	0040f809 	jalr	v0
   10660:	24070004 	li	a3,4
   10664:	144001c8 	bnez	v0,10d88 <ar6000_avail_ev+0xbd0>
   10668:	8fa2001c 	lw	v0,28(sp)
   1066c:	34420004 	ori	v0,v0,0x4
   10670:	afa2001c 	sw	v0,28(sp)
   10674:	8e8301cc 	lw	v1,460(s4)
   10678:	24020001 	li	v0,1
   1067c:	10620196 	beq	v1,v0,10cd8 <ar6000_avail_ev+0xb20>
   10680:	8e840044 	lw	a0,68(s4)
   10684:	24020002 	li	v0,2
   10688:	10620252 	beq	v1,v0,10fd4 <ar6000_avail_ev+0xe1c>
   1068c:	24020003 	li	v0,3
   10690:	1062024e 	beq	v1,v0,10fcc <ar6000_avail_ev+0xe14>
   10694:	3c020054 	lui	v0,0x54
   10698:	00002821 	move	a1,zero
   1069c:	27a6001c 	addiu	a2,sp,28
   106a0:	26620000 	addiu	v0,s3,0
			106a0: R_MIPS_LO16	BMIWriteMemory
   106a4:	0040f809 	jalr	v0
   106a8:	24070004 	li	a3,4
   106ac:	144001d1 	bnez	v0,10df4 <ar6000_avail_ev+0xc3c>
   106b0:	8ee20000 	lw	v0,0(s7)
			106b0: R_MIPS_LO16	debugdriver
   106b4:	10400005 	beqz	v0,106cc <ar6000_avail_ev+0x514>
   106b8:	3c020000 	lui	v0,0x0
			106b8: R_MIPS_HI16	printk
   106bc:	3c040000 	lui	a0,0x0
			106bc: R_MIPS_HI16	$LC173
   106c0:	24420000 	addiu	v0,v0,0
			106c0: R_MIPS_LO16	printk
   106c4:	0040f809 	jalr	v0
   106c8:	24840000 	addiu	a0,a0,0
			106c8: R_MIPS_LO16	$LC173
   106cc:	8e8501cc 	lw	a1,460(s4)
   106d0:	24020001 	li	v0,1
   106d4:	14a20012 	bne	a1,v0,10720 <ar6000_avail_ev+0x568>
   106d8:	3c020000 	lui	v0,0x0
			106d8: R_MIPS_HI16	mbox_yield_limit
   106dc:	afa00018 	sw	zero,24(sp)
   106e0:	8e8301cc 	lw	v1,460(s4)
   106e4:	10650162 	beq	v1,a1,10c70 <ar6000_avail_ev+0xab8>
   106e8:	8e840044 	lw	a0,68(s4)
   106ec:	24020002 	li	v0,2
   106f0:	1062015c 	beq	v1,v0,10c64 <ar6000_avail_ev+0xaac>
   106f4:	24020003 	li	v0,3
   106f8:	10620227 	beq	v1,v0,10f98 <ar6000_avail_ev+0xde0>
   106fc:	3c020054 	lui	v0,0x54
   10700:	00002821 	move	a1,zero
   10704:	02003021 	move	a2,s0
   10708:	26620000 	addiu	v0,s3,0
			10708: R_MIPS_LO16	BMIWriteMemory
   1070c:	0040f809 	jalr	v0
   10710:	24070004 	li	a3,4
   10714:	14400217 	bnez	v0,10f74 <ar6000_avail_ev+0xdbc>
   10718:	3c020000 	lui	v0,0x0
			10718: R_MIPS_HI16	mbox_yield_limit
   1071c:	8e8501cc 	lw	a1,460(s4)
   10720:	8c460000 	lw	a2,0(v0)
			10720: R_MIPS_LO16	mbox_yield_limit
   10724:	8e840044 	lw	a0,68(s4)
   10728:	3c020000 	lui	v0,0x0
			10728: R_MIPS_HI16	ar6000_set_htc_params
   1072c:	24420000 	addiu	v0,v0,0
			1072c: R_MIPS_LO16	ar6000_set_htc_params
   10730:	0040f809 	jalr	v0
   10734:	00003821 	move	a3,zero
   10738:	1440ff20 	bnez	v0,103bc <ar6000_avail_ev+0x204>
   1073c:	2402ffff 	li	v0,-1
   10740:	27b00020 	addiu	s0,sp,32
   10744:	02002021 	move	a0,s0
   10748:	00002821 	move	a1,zero
   1074c:	27c20000 	addiu	v0,s8,0
			1074c: R_MIPS_LO16	memset
   10750:	0040f809 	jalr	v0
   10754:	24060008 	li	a2,8
   10758:	3c030001 	lui	v1,0x1
			10758: R_MIPS_HI16	.text
   1075c:	2463ed5c 	addiu	v1,v1,-4772
			1075c: R_MIPS_LO16	.text
   10760:	afa30024 	sw	v1,36(sp)
   10764:	afb40020 	sw	s4,32(sp)
   10768:	8e840044 	lw	a0,68(s4)
   1076c:	3c020000 	lui	v0,0x0
			1076c: R_MIPS_HI16	HTCCreate
   10770:	24420000 	addiu	v0,v0,0
			10770: R_MIPS_LO16	HTCCreate
   10774:	0040f809 	jalr	v0
   10778:	02002821 	move	a1,s0
   1077c:	1040ff0e 	beqz	v0,103b8 <ar6000_avail_ev+0x200>
   10780:	ae820040 	sw	v0,64(s4)
   10784:	3c020000 	lui	v0,0x0
			10784: R_MIPS_HI16	bmienable
   10788:	8c430000 	lw	v1,0(v0)
			10788: R_MIPS_LO16	bmienable
   1078c:	14600207 	bnez	v1,10fac <ar6000_avail_ev+0xdf4>
   10790:	8ee20000 	lw	v0,0(s7)
			10790: R_MIPS_LO16	debugdriver
   10794:	3c020000 	lui	v0,0x0
			10794: R_MIPS_HI16	ar6000_init
   10798:	24420000 	addiu	v0,v0,0
			10798: R_MIPS_LO16	ar6000_init
   1079c:	aea20038 	sw	v0,56(s5)
   107a0:	3c020001 	lui	v0,0x1
			107a0: R_MIPS_HI16	.text
   107a4:	24421a18 	addiu	v0,v0,6680
			107a4: R_MIPS_LO16	.text
   107a8:	3c030001 	lui	v1,0x1
			107a8: R_MIPS_HI16	.text
   107ac:	aea201e0 	sw	v0,480(s5)
   107b0:	24631244 	addiu	v1,v1,4676
			107b0: R_MIPS_LO16	.text
   107b4:	3c020001 	lui	v0,0x1
			107b4: R_MIPS_HI16	.text
   107b8:	aea301e4 	sw	v1,484(s5)
   107bc:	2442d03c 	addiu	v0,v0,-12228
			107bc: R_MIPS_LO16	.text
   107c0:	3c030001 	lui	v1,0x1
			107c0: R_MIPS_HI16	.text
   107c4:	aea20198 	sw	v0,408(s5)
   107c8:	24631238 	addiu	v1,v1,4664
			107c8: R_MIPS_LO16	.text
   107cc:	3c040000 	lui	a0,0x0
			107cc: R_MIPS_HI16	ath_iw_handler_def
   107d0:	3c020000 	lui	v0,0x0
			107d0: R_MIPS_HI16	ar6000_ioctl
   107d4:	aea3004c 	sw	v1,76(s5)
   107d8:	24840000 	addiu	a0,a0,0
			107d8: R_MIPS_LO16	ath_iw_handler_def
   107dc:	24420000 	addiu	v0,v0,0
			107dc: R_MIPS_LO16	ar6000_ioctl
   107e0:	2403000a 	li	v1,10
   107e4:	aea201fc 	sw	v0,508(s5)
   107e8:	aea301a0 	sw	v1,416(s5)
   107ec:	aea400ac 	sw	a0,172(s5)
   107f0:	3c020001 	lui	v0,0x1
			107f0: R_MIPS_HI16	.text
   107f4:	8e230000 	lw	v1,0(s1)
			107f4: R_MIPS_LO16	processDot11Hdr
   107f8:	24421574 	addiu	v0,v0,5492
			107f8: R_MIPS_LO16	.text
   107fc:	106001e8 	beqz	v1,10fa0 <ar6000_avail_ev+0xde8>
   10800:	ac820014 	sw	v0,20(a0)
   10804:	2402002c 	li	v0,44
   10808:	a6a200ce 	sh	v0,206(s5)
   1080c:	3c020000 	lui	v0,0x0
			1080c: R_MIPS_HI16	register_netdev
   10810:	24420000 	addiu	v0,v0,0
			10810: R_MIPS_LO16	register_netdev
   10814:	0040f809 	jalr	v0
   10818:	02a02021 	move	a0,s5
   1081c:	14400194 	bnez	v0,10e70 <ar6000_avail_ev+0xcb8>
   10820:	3c020000 	lui	v0,0x0
			10820: R_MIPS_HI16	HIFClaimDevice
   10824:	8e840044 	lw	a0,68(s4)
   10828:	24420000 	addiu	v0,v0,0
			10828: R_MIPS_LO16	HIFClaimDevice
   1082c:	0040f809 	jalr	v0
   10830:	02802821 	move	a1,s4
   10834:	8ee30000 	lw	v1,0(s7)
			10834: R_MIPS_LO16	debugdriver
   10838:	3c020000 	lui	v0,0x0
			10838: R_MIPS_HI16	.bss
   1083c:	1060000b 	beqz	v1,1086c <ar6000_avail_ev+0x6b4>
   10840:	ac5509d0 	sw	s5,2512(v0)
			10840: R_MIPS_LO16	.bss
   10844:	8e860044 	lw	a2,68(s4)
   10848:	3c040000 	lui	a0,0x0
			10848: R_MIPS_HI16	$LC177
   1084c:	3c020000 	lui	v0,0x0
			1084c: R_MIPS_HI16	printk
   10850:	24840000 	addiu	a0,a0,0
			10850: R_MIPS_LO16	$LC177
   10854:	02a02821 	move	a1,s5
   10858:	02a03821 	move	a3,s5
   1085c:	afa00010 	sw	zero,16(sp)
   10860:	24420000 	addiu	v0,v0,0
			10860: R_MIPS_LO16	printk
   10864:	0040f809 	jalr	v0
   10868:	afb40014 	sw	s4,20(sp)
   1086c:	3c030000 	lui	v1,0x0
			1086c: R_MIPS_HI16	tgt_fw
   10870:	8c620000 	lw	v0,0(v1)
			10870: R_MIPS_LO16	tgt_fw
   10874:	104000b2 	beqz	v0,10b40 <ar6000_avail_ev+0x988>
   10878:	3c100001 	lui	s0,0x1
   1087c:	afa0001c 	sw	zero,28(sp)
   10880:	8e840044 	lw	a0,68(s4)
   10884:	3c020000 	lui	v0,0x0
			10884: R_MIPS_HI16	BMIReadSOCRegister
   10888:	24520000 	addiu	s2,v0,0
			10888: R_MIPS_LO16	BMIReadSOCRegister
   1088c:	360580c0 	ori	a1,s0,0x80c0
   10890:	0240f809 	jalr	s2
   10894:	27a6001c 	addiu	a2,sp,28
   10898:	8fb6001c 	lw	s6,28(sp)
   1089c:	3c020000 	lui	v0,0x0
			1089c: R_MIPS_HI16	BMIWriteSOCRegister
   108a0:	36c60008 	ori	a2,s6,0x8
   108a4:	afa6001c 	sw	a2,28(sp)
   108a8:	8e840044 	lw	a0,68(s4)
   108ac:	24570000 	addiu	s7,v0,0
			108ac: R_MIPS_LO16	BMIWriteSOCRegister
   108b0:	02e0f809 	jalr	s7
   108b4:	360580c0 	ori	a1,s0,0x80c0
   108b8:	afa0001c 	sw	zero,28(sp)
   108bc:	8e840044 	lw	a0,68(s4)
   108c0:	240540c4 	li	a1,16580
   108c4:	0240f809 	jalr	s2
   108c8:	27a6001c 	addiu	a2,sp,28
   108cc:	8fb3001c 	lw	s3,28(sp)
   108d0:	240540c4 	li	a1,16580
   108d4:	36660001 	ori	a2,s3,0x1
   108d8:	afa6001c 	sw	a2,28(sp)
   108dc:	8e840044 	lw	a0,68(s4)
   108e0:	02e0f809 	jalr	s7
   108e4:	3c1e0050 	lui	s8,0x50
   108e8:	3c030000 	lui	v1,0x0
			108e8: R_MIPS_HI16	printk
   108ec:	3c040000 	lui	a0,0x0
			108ec: R_MIPS_HI16	$LC178
   108f0:	24710000 	addiu	s1,v1,0
			108f0: R_MIPS_LO16	printk
   108f4:	24840000 	addiu	a0,a0,0
			108f4: R_MIPS_LO16	$LC178
   108f8:	02c02821 	move	a1,s6
   108fc:	0220f809 	jalr	s1
   10900:	02603021 	move	a2,s3
   10904:	afa0001c 	sw	zero,28(sp)
   10908:	8e840044 	lw	a0,68(s4)
   1090c:	24054020 	li	a1,16416
   10910:	02e0f809 	jalr	s7
   10914:	00003021 	move	a2,zero
   10918:	8e840044 	lw	a0,68(s4)
   1091c:	37c5047c 	ori	a1,s8,0x47c
   10920:	0240f809 	jalr	s2
   10924:	27a6001c 	addiu	a2,sp,28
   10928:	8fa3001c 	lw	v1,28(sp)
   1092c:	1460000b 	bnez	v1,1095c <ar6000_avail_ev+0x7a4>
   10930:	3c020000 	lui	v0,0x0
			10930: R_MIPS_HI16	reg_file
   10934:	3c040000 	lui	a0,0x0
			10934: R_MIPS_HI16	$LC179
   10938:	0220f809 	jalr	s1
   1093c:	24840000 	addiu	a0,a0,0
			1093c: R_MIPS_LO16	$LC179
   10940:	3c030010 	lui	v1,0x10
   10944:	afa3001c 	sw	v1,28(sp)
   10948:	8e840044 	lw	a0,68(s4)
   1094c:	240540e0 	li	a1,16608
   10950:	02e0f809 	jalr	s7
   10954:	3c060010 	lui	a2,0x10
   10958:	3c020000 	lui	v0,0x0
			10958: R_MIPS_HI16	reg_file
   1095c:	8c440000 	lw	a0,0(v0)
			1095c: R_MIPS_LO16	reg_file
   10960:	10800005 	beqz	a0,10978 <ar6000_avail_ev+0x7c0>
   10964:	3c020000 	lui	v0,0x0
			10964: R_MIPS_HI16	get_reg_code_from_file
   10968:	3c050000 	lui	a1,0x0
			10968: R_MIPS_HI16	regCode
   1096c:	24420000 	addiu	v0,v0,0
			1096c: R_MIPS_LO16	get_reg_code_from_file
   10970:	0040f809 	jalr	v0
   10974:	24a50000 	addiu	a1,a1,0
			10974: R_MIPS_LO16	regCode
   10978:	3c040000 	lui	a0,0x0
			10978: R_MIPS_HI16	$LC180
   1097c:	0220f809 	jalr	s1
   10980:	24840000 	addiu	a0,a0,0
			10980: R_MIPS_LO16	$LC180
   10984:	3c030000 	lui	v1,0x0
			10984: R_MIPS_HI16	eeprom_data
   10988:	8c650000 	lw	a1,0(v1)
			10988: R_MIPS_LO16	eeprom_data
   1098c:	8e840044 	lw	a0,68(s4)
   10990:	3c020001 	lui	v0,0x1
			10990: R_MIPS_HI16	.text
   10994:	37c62070 	ori	a2,s8,0x2070
   10998:	2442b79c 	addiu	v0,v0,-18532
			10998: R_MIPS_LO16	.text
   1099c:	0040f809 	jalr	v0
   109a0:	00003821 	move	a3,zero
   109a4:	3c020000 	lui	v0,0x0
			109a4: R_MIPS_HI16	eeprom_bin
   109a8:	8c450000 	lw	a1,0(v0)
			109a8: R_MIPS_LO16	eeprom_bin
   109ac:	8e840044 	lw	a0,68(s4)
   109b0:	3c060051 	lui	a2,0x51
   109b4:	3c030001 	lui	v1,0x1
			109b4: R_MIPS_HI16	.text
   109b8:	2463b79c 	addiu	v1,v1,-18532
			109b8: R_MIPS_LO16	.text
   109bc:	00003821 	move	a3,zero
   109c0:	0060f809 	jalr	v1
   109c4:	34c63950 	ori	a2,a2,0x3950
   109c8:	24020001 	li	v0,1
   109cc:	3c040000 	lui	a0,0x0
			109cc: R_MIPS_HI16	$LC181
   109d0:	24840000 	addiu	a0,a0,0
			109d0: R_MIPS_LO16	$LC181
   109d4:	0220f809 	jalr	s1
   109d8:	afa2001c 	sw	v0,28(sp)
   109dc:	3c100091 	lui	s0,0x91
   109e0:	8e840044 	lw	a0,68(s4)
   109e4:	3c020000 	lui	v0,0x0
			109e4: R_MIPS_HI16	BMIExecute
   109e8:	27a6001c 	addiu	a2,sp,28
   109ec:	24420000 	addiu	v0,v0,0
			109ec: R_MIPS_LO16	BMIExecute
   109f0:	0040f809 	jalr	v0
   109f4:	36053950 	ori	a1,s0,0x3950
   109f8:	3c040000 	lui	a0,0x0
			109f8: R_MIPS_HI16	$LC182
   109fc:	0220f809 	jalr	s1
   10a00:	24840000 	addiu	a0,a0,0
			10a00: R_MIPS_LO16	$LC182
   10a04:	8e840044 	lw	a0,68(s4)
   10a08:	3c020000 	lui	v0,0x0
			10a08: R_MIPS_HI16	BMISetAppStart
   10a0c:	24420000 	addiu	v0,v0,0
			10a0c: R_MIPS_LO16	BMISetAppStart
   10a10:	0040f809 	jalr	v0
   10a14:	36053950 	ori	a1,s0,0x3950
   10a18:	3c040000 	lui	a0,0x0
			10a18: R_MIPS_HI16	$LC183
   10a1c:	0220f809 	jalr	s1
   10a20:	24840000 	addiu	a0,a0,0
			10a20: R_MIPS_LO16	$LC183
   10a24:	afa0001c 	sw	zero,28(sp)
   10a28:	8e840044 	lw	a0,68(s4)
   10a2c:	27a6001c 	addiu	a2,sp,28
   10a30:	0240f809 	jalr	s2
   10a34:	37c50410 	ori	a1,s8,0x410
   10a38:	8fa6001c 	lw	a2,28(sp)
   10a3c:	37c50410 	ori	a1,s8,0x410
   10a40:	34c60001 	ori	a2,a2,0x1
   10a44:	afa6001c 	sw	a2,28(sp)
   10a48:	02e0f809 	jalr	s7
   10a4c:	8e840044 	lw	a0,68(s4)
   10a50:	3c040000 	lui	a0,0x0
			10a50: R_MIPS_HI16	$LC184
   10a54:	0220f809 	jalr	s1
   10a58:	24840000 	addiu	a0,a0,0
			10a58: R_MIPS_LO16	$LC184
   10a5c:	3c020000 	lui	v0,0x0
			10a5c: R_MIPS_HI16	tgt_fw
   10a60:	8c440000 	lw	a0,0(v0)
			10a60: R_MIPS_LO16	tgt_fw
   10a64:	3c020000 	lui	v0,0x0
			10a64: R_MIPS_HI16	strlen
   10a68:	24510000 	addiu	s1,v0,0
			10a68: R_MIPS_LO16	strlen
   10a6c:	0220f809 	jalr	s1
   10a70:	00000000 	nop
   10a74:	3c030000 	lui	v1,0x0
			10a74: R_MIPS_HI16	tgt_fw
   10a78:	8c640000 	lw	a0,0(v1)
			10a78: R_MIPS_LO16	tgt_fw
   10a7c:	00441021 	addu	v0,v0,a0
   10a80:	8043fffd 	lb	v1,-3(v0)
   10a84:	2402007a 	li	v0,122
   10a88:	1062011c 	beq	v1,v0,10efc <ar6000_avail_ev+0xd44>
   10a8c:	3c030000 	lui	v1,0x0
			10a8c: R_MIPS_HI16	tgt_fw
   10a90:	8c650000 	lw	a1,0(v1)
			10a90: R_MIPS_LO16	tgt_fw
   10a94:	3c060050 	lui	a2,0x50
   10a98:	3c030001 	lui	v1,0x1
			10a98: R_MIPS_HI16	.text
   10a9c:	8e840044 	lw	a0,68(s4)
   10aa0:	34c62070 	ori	a2,a2,0x2070
   10aa4:	2462b79c 	addiu	v0,v1,-18532
			10aa4: R_MIPS_LO16	.text
   10aa8:	0040f809 	jalr	v0
   10aac:	00003821 	move	a3,zero
   10ab0:	3c020000 	lui	v0,0x0
			10ab0: R_MIPS_HI16	tgt_patch
   10ab4:	3c030001 	lui	v1,0x1
			10ab4: R_MIPS_HI16	.text
   10ab8:	8c450000 	lw	a1,0(v0)
			10ab8: R_MIPS_LO16	tgt_patch
   10abc:	8e840044 	lw	a0,68(s4)
   10ac0:	3c100052 	lui	s0,0x52
   10ac4:	2462b79c 	addiu	v0,v1,-18532
			10ac4: R_MIPS_LO16	.text
   10ac8:	00003821 	move	a3,zero
   10acc:	0040f809 	jalr	v0
   10ad0:	3606d578 	ori	a2,s0,0xd578
   10ad4:	3c120050 	lui	s2,0x50
   10ad8:	8e840044 	lw	a0,68(s4)
   10adc:	3c020000 	lui	v0,0x0
			10adc: R_MIPS_HI16	BMIWriteSOCRegister
   10ae0:	24510000 	addiu	s1,v0,0
			10ae0: R_MIPS_LO16	BMIWriteSOCRegister
   10ae4:	3606d578 	ori	a2,s0,0xd578
   10ae8:	0220f809 	jalr	s1
   10aec:	36450418 	ori	a1,s2,0x418
   10af0:	8e840044 	lw	a0,68(s4)
   10af4:	02603021 	move	a2,s3
   10af8:	0220f809 	jalr	s1
   10afc:	240540c4 	li	a1,16580
   10b00:	8e840044 	lw	a0,68(s4)
   10b04:	3c050001 	lui	a1,0x1
   10b08:	34a580c0 	ori	a1,a1,0x80c0
   10b0c:	0220f809 	jalr	s1
   10b10:	02c03021 	move	a2,s6
   10b14:	3c030000 	lui	v1,0x0
			10b14: R_MIPS_HI16	work_mode
   10b18:	8c640000 	lw	a0,0(v1)
			10b18: R_MIPS_LO16	work_mode
   10b1c:	24020002 	li	v0,2
   10b20:	108200ec 	beq	a0,v0,10ed4 <ar6000_avail_ev+0xd1c>
   10b24:	3c06018c 	lui	a2,0x18c
   10b28:	3c020000 	lui	v0,0x0
			10b28: R_MIPS_HI16	ar6000_init
   10b2c:	24420000 	addiu	v0,v0,0
			10b2c: R_MIPS_LO16	ar6000_init
   10b30:	0040f809 	jalr	v0
   10b34:	02a02021 	move	a0,s5
   10b38:	144000dc 	bnez	v0,10eac <ar6000_avail_ev+0xcf4>
   10b3c:	00000000 	nop
   10b40:	080040ef 	j	103bc <ar6000_avail_ev+0x204>
			10b40: R_MIPS_26	.text
   10b44:	00001021 	move	v0,zero
   10b48:	3c040000 	lui	a0,0x0
			10b48: R_MIPS_HI16	$LC156
   10b4c:	3c020000 	lui	v0,0x0
			10b4c: R_MIPS_HI16	printk
   10b50:	24420000 	addiu	v0,v0,0
			10b50: R_MIPS_LO16	printk
   10b54:	0040f809 	jalr	v0
   10b58:	24840000 	addiu	a0,a0,0
			10b58: R_MIPS_LO16	$LC156
   10b5c:	3c030000 	lui	v1,0x0
			10b5c: R_MIPS_HI16	.bss
   10b60:	8c6209d0 	lw	v0,2512(v1)
			10b60: R_MIPS_LO16	.bss
   10b64:	1040fda8 	beqz	v0,10208 <ar6000_avail_ev+0x50>
   10b68:	3c100000 	lui	s0,0x0
			10b68: R_MIPS_HI16	ether_setup
   10b6c:	8ee20000 	lw	v0,0(s7)
			10b6c: R_MIPS_LO16	debugdriver
   10b70:	1040fe11 	beqz	v0,103b8 <ar6000_avail_ev+0x200>
   10b74:	3c020000 	lui	v0,0x0
			10b74: R_MIPS_HI16	printk
   10b78:	3c040000 	lui	a0,0x0
			10b78: R_MIPS_HI16	$LC157
   10b7c:	24420000 	addiu	v0,v0,0
			10b7c: R_MIPS_LO16	printk
   10b80:	0040f809 	jalr	v0
   10b84:	24840000 	addiu	a0,a0,0
			10b84: R_MIPS_LO16	$LC157
   10b88:	080040ef 	j	103bc <ar6000_avail_ev+0x204>
			10b88: R_MIPS_26	.text
   10b8c:	2402ffff 	li	v0,-1
   10b90:	3c040000 	lui	a0,0x0
			10b90: R_MIPS_HI16	$LC161
   10b94:	24420000 	addiu	v0,v0,0
			10b94: R_MIPS_LO16	printk
   10b98:	0040f809 	jalr	v0
   10b9c:	24840000 	addiu	a0,a0,0
			10b9c: R_MIPS_LO16	$LC161
   10ba0:	080040ef 	j	103bc <ar6000_avail_ev+0x204>
			10ba0: R_MIPS_26	.text
   10ba4:	2402ffff 	li	v0,-1
   10ba8:	8ee20000 	lw	v0,0(s7)
			10ba8: R_MIPS_LO16	debugdriver
   10bac:	1040fe02 	beqz	v0,103b8 <ar6000_avail_ev+0x200>
   10bb0:	3c020000 	lui	v0,0x0
			10bb0: R_MIPS_HI16	printk
   10bb4:	3c040000 	lui	a0,0x0
			10bb4: R_MIPS_HI16	$LC159
   10bb8:	24420000 	addiu	v0,v0,0
			10bb8: R_MIPS_LO16	printk
   10bbc:	0040f809 	jalr	v0
   10bc0:	24840000 	addiu	a0,a0,0
			10bc0: R_MIPS_LO16	$LC159
   10bc4:	080040ef 	j	103bc <ar6000_avail_ev+0x204>
			10bc4: R_MIPS_26	.text
   10bc8:	2402ffff 	li	v0,-1
   10bcc:	3c040000 	lui	a0,0x0
			10bcc: R_MIPS_HI16	$LC160
   10bd0:	3c020000 	lui	v0,0x0
			10bd0: R_MIPS_HI16	printk
   10bd4:	24420000 	addiu	v0,v0,0
			10bd4: R_MIPS_LO16	printk
   10bd8:	0040f809 	jalr	v0
   10bdc:	24840000 	addiu	a0,a0,0
			10bdc: R_MIPS_LO16	$LC160
   10be0:	080040ef 	j	103bc <ar6000_avail_ev+0x204>
			10be0: R_MIPS_26	.text
   10be4:	2402ffff 	li	v0,-1
   10be8:	afb10018 	sw	s1,24(sp)
   10bec:	8e8301cc 	lw	v1,460(s4)
   10bf0:	1071002d 	beq	v1,s1,10ca8 <ar6000_avail_ev+0xaf0>
   10bf4:	8e840044 	lw	a0,68(s4)
   10bf8:	24020002 	li	v0,2
   10bfc:	1062007a 	beq	v1,v0,10de8 <ar6000_avail_ev+0xc30>
   10c00:	24020003 	li	v0,3
   10c04:	10620076 	beq	v1,v0,10de0 <ar6000_avail_ev+0xc28>
   10c08:	3c020054 	lui	v0,0x54
   10c0c:	00002821 	move	a1,zero
   10c10:	27b00018 	addiu	s0,sp,24
   10c14:	3c130000 	lui	s3,0x0
			10c14: R_MIPS_HI16	BMIWriteMemory
   10c18:	02003021 	move	a2,s0
   10c1c:	26620000 	addiu	v0,s3,0
			10c1c: R_MIPS_LO16	BMIWriteMemory
   10c20:	0040f809 	jalr	v0
   10c24:	24070004 	li	a3,4
   10c28:	14400065 	bnez	v0,10dc0 <ar6000_avail_ev+0xc08>
   10c2c:	8ee20000 	lw	v0,0(s7)
			10c2c: R_MIPS_LO16	debugdriver
   10c30:	1040fe11 	beqz	v0,10478 <ar6000_avail_ev+0x2c0>
   10c34:	3c040000 	lui	a0,0x0
			10c34: R_MIPS_HI16	$LC163
   10c38:	3c020000 	lui	v0,0x0
			10c38: R_MIPS_HI16	printk
   10c3c:	24420000 	addiu	v0,v0,0
			10c3c: R_MIPS_LO16	printk
   10c40:	0040f809 	jalr	v0
   10c44:	24840000 	addiu	a0,a0,0
			10c44: R_MIPS_LO16	$LC163
   10c48:	0800411f 	j	1047c <ar6000_avail_ev+0x2c4>
			10c48: R_MIPS_26	.text
   10c4c:	24050002 	li	a1,2
   10c50:	08004134 	j	104d0 <ar6000_avail_ev+0x318>
			10c50: R_MIPS_26	.text
   10c54:	ae820440 	sw	v0,1088(s4)
   10c58:	3c028000 	lui	v0,0x8000
   10c5c:	08004142 	j	10508 <ar6000_avail_ev+0x350>
			10c5c: R_MIPS_26	.text
   10c60:	34450610 	ori	a1,v0,0x610
   10c64:	3c020050 	lui	v0,0x50
   10c68:	080041c1 	j	10704 <ar6000_avail_ev+0x54c>
			10c68: R_MIPS_26	.text
   10c6c:	34450468 	ori	a1,v0,0x468
   10c70:	3c028000 	lui	v0,0x8000
   10c74:	080041c1 	j	10704 <ar6000_avail_ev+0x54c>
			10c74: R_MIPS_26	.text
   10c78:	34450668 	ori	a1,v0,0x668
   10c7c:	3c028000 	lui	v0,0x8000
   10c80:	08004129 	j	104a4 <ar6000_avail_ev+0x2ec>
			10c80: R_MIPS_26	.text
   10c84:	34450600 	ori	a1,v0,0x600
   10c88:	08004129 	j	104a4 <ar6000_avail_ev+0x2ec>
			10c88: R_MIPS_26	.text
   10c8c:	34450600 	ori	a1,v0,0x600
   10c90:	3c020050 	lui	v0,0x50
   10c94:	08004129 	j	104a4 <ar6000_avail_ev+0x2ec>
			10c94: R_MIPS_26	.text
   10c98:	34450400 	ori	a1,v0,0x400
   10c9c:	3c028000 	lui	v0,0x8000
   10ca0:	08004155 	j	10554 <ar6000_avail_ev+0x39c>
			10ca0: R_MIPS_26	.text
   10ca4:	34450610 	ori	a1,v0,0x610
   10ca8:	3c028000 	lui	v0,0x8000
   10cac:	08004304 	j	10c10 <ar6000_avail_ev+0xa58>
			10cac: R_MIPS_26	.text
   10cb0:	34450614 	ori	a1,v0,0x614
   10cb4:	3c028000 	lui	v0,0x8000
   10cb8:	08004195 	j	10654 <ar6000_avail_ev+0x49c>
			10cb8: R_MIPS_26	.text
   10cbc:	34450610 	ori	a1,v0,0x610
   10cc0:	3c020000 	lui	v0,0x0
			10cc0: R_MIPS_HI16	printk
   10cc4:	24420000 	addiu	v0,v0,0
			10cc4: R_MIPS_LO16	printk
   10cc8:	0040f809 	jalr	v0
   10ccc:	24840000 	addiu	a0,a0,0
			10ccc: R_MIPS_LO16	$LC170
   10cd0:	08004189 	j	10624 <ar6000_avail_ev+0x46c>
			10cd0: R_MIPS_26	.text
   10cd4:	3c110000 	lui	s1,0x0
			10cd4: R_MIPS_HI16	processDot11Hdr
   10cd8:	3c028000 	lui	v0,0x8000
   10cdc:	080041a7 	j	1069c <ar6000_avail_ev+0x4e4>
			10cdc: R_MIPS_26	.text
   10ce0:	34450610 	ori	a1,v0,0x610
   10ce4:	08004180 	j	10600 <ar6000_avail_ev+0x448>
			10ce4: R_MIPS_26	.text
   10ce8:	34450610 	ori	a1,v0,0x610
   10cec:	3c020050 	lui	v0,0x50
   10cf0:	08004180 	j	10600 <ar6000_avail_ev+0x448>
			10cf0: R_MIPS_26	.text
   10cf4:	34450410 	ori	a1,v0,0x410
   10cf8:	3c028000 	lui	v0,0x8000
   10cfc:	08004180 	j	10600 <ar6000_avail_ev+0x448>
			10cfc: R_MIPS_26	.text
   10d00:	34450610 	ori	a1,v0,0x610
   10d04:	0800416b 	j	105ac <ar6000_avail_ev+0x3f4>
			10d04: R_MIPS_26	.text
   10d08:	34450610 	ori	a1,v0,0x610
   10d0c:	3c020050 	lui	v0,0x50
   10d10:	0800416b 	j	105ac <ar6000_avail_ev+0x3f4>
			10d10: R_MIPS_26	.text
   10d14:	34450410 	ori	a1,v0,0x410
   10d18:	3c028000 	lui	v0,0x8000
   10d1c:	0800416b 	j	105ac <ar6000_avail_ev+0x3f4>
			10d1c: R_MIPS_26	.text
   10d20:	34450610 	ori	a1,v0,0x610
   10d24:	8ee20000 	lw	v0,0(s7)
			10d24: R_MIPS_LO16	debugdriver
   10d28:	1040fda3 	beqz	v0,103b8 <ar6000_avail_ev+0x200>
   10d2c:	3c020000 	lui	v0,0x0
			10d2c: R_MIPS_HI16	printk
   10d30:	3c040000 	lui	a0,0x0
			10d30: R_MIPS_HI16	$LC168
   10d34:	24420000 	addiu	v0,v0,0
			10d34: R_MIPS_LO16	printk
   10d38:	0040f809 	jalr	v0
   10d3c:	24840000 	addiu	a0,a0,0
			10d3c: R_MIPS_LO16	$LC168
   10d40:	080040ef 	j	103bc <ar6000_avail_ev+0x204>
			10d40: R_MIPS_26	.text
   10d44:	2402ffff 	li	v0,-1
   10d48:	1040fd9b 	beqz	v0,103b8 <ar6000_avail_ev+0x200>
   10d4c:	3c020000 	lui	v0,0x0
			10d4c: R_MIPS_HI16	printk
   10d50:	3c040000 	lui	a0,0x0
			10d50: R_MIPS_HI16	$LC166
   10d54:	24420000 	addiu	v0,v0,0
			10d54: R_MIPS_LO16	printk
   10d58:	0040f809 	jalr	v0
   10d5c:	24840000 	addiu	a0,a0,0
			10d5c: R_MIPS_LO16	$LC166
   10d60:	080040ef 	j	103bc <ar6000_avail_ev+0x204>
			10d60: R_MIPS_26	.text
   10d64:	2402ffff 	li	v0,-1
   10d68:	1040fd93 	beqz	v0,103b8 <ar6000_avail_ev+0x200>
   10d6c:	3c020000 	lui	v0,0x0
			10d6c: R_MIPS_HI16	printk
   10d70:	3c040000 	lui	a0,0x0
			10d70: R_MIPS_HI16	$LC169
   10d74:	24420000 	addiu	v0,v0,0
			10d74: R_MIPS_LO16	printk
   10d78:	0040f809 	jalr	v0
   10d7c:	24840000 	addiu	a0,a0,0
			10d7c: R_MIPS_LO16	$LC169
   10d80:	080040ef 	j	103bc <ar6000_avail_ev+0x204>
			10d80: R_MIPS_26	.text
   10d84:	2402ffff 	li	v0,-1
   10d88:	8ee20000 	lw	v0,0(s7)
			10d88: R_MIPS_LO16	debugdriver
   10d8c:	1040fd8a 	beqz	v0,103b8 <ar6000_avail_ev+0x200>
   10d90:	3c020000 	lui	v0,0x0
			10d90: R_MIPS_HI16	printk
   10d94:	3c040000 	lui	a0,0x0
			10d94: R_MIPS_HI16	$LC171
   10d98:	24420000 	addiu	v0,v0,0
			10d98: R_MIPS_LO16	printk
   10d9c:	0040f809 	jalr	v0
   10da0:	24840000 	addiu	a0,a0,0
			10da0: R_MIPS_LO16	$LC171
   10da4:	080040ef 	j	103bc <ar6000_avail_ev+0x204>
			10da4: R_MIPS_26	.text
   10da8:	2402ffff 	li	v0,-1
   10dac:	08004195 	j	10654 <ar6000_avail_ev+0x49c>
			10dac: R_MIPS_26	.text
   10db0:	34450610 	ori	a1,v0,0x610
   10db4:	3c020050 	lui	v0,0x50
   10db8:	08004195 	j	10654 <ar6000_avail_ev+0x49c>
			10db8: R_MIPS_26	.text
   10dbc:	34450410 	ori	a1,v0,0x410
   10dc0:	1040fd7d 	beqz	v0,103b8 <ar6000_avail_ev+0x200>
   10dc4:	3c020000 	lui	v0,0x0
			10dc4: R_MIPS_HI16	printk
   10dc8:	3c040000 	lui	a0,0x0
			10dc8: R_MIPS_HI16	$LC162
   10dcc:	24420000 	addiu	v0,v0,0
			10dcc: R_MIPS_LO16	printk
   10dd0:	0040f809 	jalr	v0
   10dd4:	24840000 	addiu	a0,a0,0
			10dd4: R_MIPS_LO16	$LC162
   10dd8:	080040ef 	j	103bc <ar6000_avail_ev+0x204>
			10dd8: R_MIPS_26	.text
   10ddc:	2402ffff 	li	v0,-1
   10de0:	08004304 	j	10c10 <ar6000_avail_ev+0xa58>
			10de0: R_MIPS_26	.text
   10de4:	34450614 	ori	a1,v0,0x614
   10de8:	3c020050 	lui	v0,0x50
   10dec:	08004304 	j	10c10 <ar6000_avail_ev+0xa58>
			10dec: R_MIPS_26	.text
   10df0:	34450414 	ori	a1,v0,0x414
   10df4:	1040fd70 	beqz	v0,103b8 <ar6000_avail_ev+0x200>
   10df8:	3c020000 	lui	v0,0x0
			10df8: R_MIPS_HI16	printk
   10dfc:	3c040000 	lui	a0,0x0
			10dfc: R_MIPS_HI16	$LC172
   10e00:	24420000 	addiu	v0,v0,0
			10e00: R_MIPS_LO16	printk
   10e04:	0040f809 	jalr	v0
   10e08:	24840000 	addiu	a0,a0,0
			10e08: R_MIPS_LO16	$LC172
   10e0c:	080040ef 	j	103bc <ar6000_avail_ev+0x204>
			10e0c: R_MIPS_26	.text
   10e10:	2402ffff 	li	v0,-1
   10e14:	8ee20000 	lw	v0,0(s7)
			10e14: R_MIPS_LO16	debugdriver
   10e18:	1040fd67 	beqz	v0,103b8 <ar6000_avail_ev+0x200>
   10e1c:	3c020000 	lui	v0,0x0
			10e1c: R_MIPS_HI16	printk
   10e20:	3c040000 	lui	a0,0x0
			10e20: R_MIPS_HI16	$LC164
   10e24:	24420000 	addiu	v0,v0,0
			10e24: R_MIPS_LO16	printk
   10e28:	0040f809 	jalr	v0
   10e2c:	24840000 	addiu	a0,a0,0
			10e2c: R_MIPS_LO16	$LC164
   10e30:	080040ef 	j	103bc <ar6000_avail_ev+0x204>
			10e30: R_MIPS_26	.text
   10e34:	2402ffff 	li	v0,-1
   10e38:	8ee20000 	lw	v0,0(s7)
			10e38: R_MIPS_LO16	debugdriver
   10e3c:	1040fd5e 	beqz	v0,103b8 <ar6000_avail_ev+0x200>
   10e40:	3c020000 	lui	v0,0x0
			10e40: R_MIPS_HI16	printk
   10e44:	3c040000 	lui	a0,0x0
			10e44: R_MIPS_HI16	$LC165
   10e48:	24420000 	addiu	v0,v0,0
			10e48: R_MIPS_LO16	printk
   10e4c:	0040f809 	jalr	v0
   10e50:	24840000 	addiu	a0,a0,0
			10e50: R_MIPS_LO16	$LC165
   10e54:	080040ef 	j	103bc <ar6000_avail_ev+0x204>
			10e54: R_MIPS_26	.text
   10e58:	2402ffff 	li	v0,-1
   10e5c:	08004155 	j	10554 <ar6000_avail_ev+0x39c>
			10e5c: R_MIPS_26	.text
   10e60:	34450610 	ori	a1,v0,0x610
   10e64:	3c020050 	lui	v0,0x50
   10e68:	08004155 	j	10554 <ar6000_avail_ev+0x39c>
			10e68: R_MIPS_26	.text
   10e6c:	34450410 	ori	a1,v0,0x410
   10e70:	8ee20000 	lw	v0,0(s7)
			10e70: R_MIPS_LO16	debugdriver
   10e74:	10400006 	beqz	v0,10e90 <ar6000_avail_ev+0xcd8>
   10e78:	00000000 	nop
   10e7c:	3c040000 	lui	a0,0x0
			10e7c: R_MIPS_HI16	$LC176
   10e80:	3c020000 	lui	v0,0x0
			10e80: R_MIPS_HI16	printk
   10e84:	24420000 	addiu	v0,v0,0
			10e84: R_MIPS_LO16	printk
   10e88:	0040f809 	jalr	v0
   10e8c:	24840000 	addiu	a0,a0,0
			10e8c: R_MIPS_LO16	$LC176
   10e90:	3c020001 	lui	v0,0x1
			10e90: R_MIPS_HI16	.text
   10e94:	2442e7fc 	addiu	v0,v0,-6148
			10e94: R_MIPS_LO16	.text
   10e98:	02a02021 	move	a0,s5
   10e9c:	0040f809 	jalr	v0
   10ea0:	00002821 	move	a1,zero
   10ea4:	080040ef 	j	103bc <ar6000_avail_ev+0x204>
			10ea4: R_MIPS_26	.text
   10ea8:	2402ffff 	li	v0,-1
   10eac:	3c030000 	lui	v1,0x0
			10eac: R_MIPS_HI16	printk
   10eb0:	3c040000 	lui	a0,0x0
			10eb0: R_MIPS_HI16	$LC185
   10eb4:	3c050000 	lui	a1,0x0
			10eb4: R_MIPS_HI16	.rodata
   10eb8:	00403021 	move	a2,v0
   10ebc:	24840000 	addiu	a0,a0,0
			10ebc: R_MIPS_LO16	$LC185
   10ec0:	24620000 	addiu	v0,v1,0
			10ec0: R_MIPS_LO16	printk
   10ec4:	0040f809 	jalr	v0
   10ec8:	24a500c8 	addiu	a1,a1,200
			10ec8: R_MIPS_LO16	.rodata
   10ecc:	080040ef 	j	103bc <ar6000_avail_ev+0x204>
			10ecc: R_MIPS_26	.text
   10ed0:	00001021 	move	v0,zero
   10ed4:	8e840044 	lw	a0,68(s4)
   10ed8:	34c6ba80 	ori	a2,a2,0xba80
   10edc:	0220f809 	jalr	s1
   10ee0:	36450478 	ori	a1,s2,0x478
   10ee4:	8e840044 	lw	a0,68(s4)
   10ee8:	36450458 	ori	a1,s2,0x458
   10eec:	0220f809 	jalr	s1
   10ef0:	24060001 	li	a2,1
   10ef4:	080040ef 	j	103bc <ar6000_avail_ev+0x204>
			10ef4: R_MIPS_26	.text
   10ef8:	00001021 	move	v0,zero
   10efc:	0220f809 	jalr	s1
   10f00:	00000000 	nop
   10f04:	3c030000 	lui	v1,0x0
			10f04: R_MIPS_HI16	tgt_fw
   10f08:	8c640000 	lw	a0,0(v1)
			10f08: R_MIPS_LO16	tgt_fw
   10f0c:	00441021 	addu	v0,v0,a0
   10f10:	8050fffe 	lb	s0,-2(v0)
   10f14:	24020037 	li	v0,55
   10f18:	1602fede 	bne	s0,v0,10a94 <ar6000_avail_ev+0x8dc>
   10f1c:	8c650000 	lw	a1,0(v1)
			10f1c: R_MIPS_LO16	tgt_fw
   10f20:	0220f809 	jalr	s1
   10f24:	00000000 	nop
   10f28:	3c030000 	lui	v1,0x0
			10f28: R_MIPS_HI16	tgt_fw
   10f2c:	8c650000 	lw	a1,0(v1)
			10f2c: R_MIPS_LO16	tgt_fw
   10f30:	00451021 	addu	v0,v0,a1
   10f34:	8043ffff 	lb	v1,-1(v0)
   10f38:	1470fed5 	bne	v1,s0,10a90 <ar6000_avail_ev+0x8d8>
   10f3c:	3c030000 	lui	v1,0x0
			10f3c: R_MIPS_HI16	tgt_fw
   10f40:	8e840044 	lw	a0,68(s4)
   10f44:	3c020001 	lui	v0,0x1
			10f44: R_MIPS_HI16	.text
   10f48:	37c62070 	ori	a2,s8,0x2070
   10f4c:	2442b79c 	addiu	v0,v0,-18532
			10f4c: R_MIPS_LO16	.text
   10f50:	0040f809 	jalr	v0
   10f54:	24070001 	li	a3,1
   10f58:	080042ad 	j	10ab4 <ar6000_avail_ev+0x8fc>
			10f58: R_MIPS_26	.text
   10f5c:	3c020000 	lui	v0,0x0
			10f5c: R_MIPS_HI16	tgt_patch
   10f60:	08004142 	j	10508 <ar6000_avail_ev+0x350>
			10f60: R_MIPS_26	.text
   10f64:	34450610 	ori	a1,v0,0x610
   10f68:	3c020050 	lui	v0,0x50
   10f6c:	08004142 	j	10508 <ar6000_avail_ev+0x350>
			10f6c: R_MIPS_26	.text
   10f70:	34450410 	ori	a1,v0,0x410
   10f74:	8ee20000 	lw	v0,0(s7)
			10f74: R_MIPS_LO16	debugdriver
   10f78:	1040fd0f 	beqz	v0,103b8 <ar6000_avail_ev+0x200>
   10f7c:	3c020000 	lui	v0,0x0
			10f7c: R_MIPS_HI16	printk
   10f80:	3c040000 	lui	a0,0x0
			10f80: R_MIPS_HI16	$LC174
   10f84:	24420000 	addiu	v0,v0,0
			10f84: R_MIPS_LO16	printk
   10f88:	0040f809 	jalr	v0
   10f8c:	24840000 	addiu	a0,a0,0
			10f8c: R_MIPS_LO16	$LC174
   10f90:	080040ef 	j	103bc <ar6000_avail_ev+0x204>
			10f90: R_MIPS_26	.text
   10f94:	2402ffff 	li	v0,-1
   10f98:	080041c1 	j	10704 <ar6000_avail_ev+0x54c>
			10f98: R_MIPS_26	.text
   10f9c:	34450668 	ori	a1,v0,0x668
   10fa0:	24020020 	li	v0,32
   10fa4:	08004203 	j	1080c <ar6000_avail_ev+0x654>
			10fa4: R_MIPS_26	.text
   10fa8:	a6a200ce 	sh	v0,206(s5)
   10fac:	1040fdfc 	beqz	v0,107a0 <ar6000_avail_ev+0x5e8>
   10fb0:	3c040000 	lui	a0,0x0
			10fb0: R_MIPS_HI16	$LC175
   10fb4:	3c020000 	lui	v0,0x0
			10fb4: R_MIPS_HI16	printk
   10fb8:	24420000 	addiu	v0,v0,0
			10fb8: R_MIPS_LO16	printk
   10fbc:	0040f809 	jalr	v0
   10fc0:	24840000 	addiu	a0,a0,0
			10fc0: R_MIPS_LO16	$LC175
   10fc4:	080041e9 	j	107a4 <ar6000_avail_ev+0x5ec>
			10fc4: R_MIPS_26	.text
   10fc8:	3c020001 	lui	v0,0x1
			10fc8: R_MIPS_HI16	.text
   10fcc:	080041a7 	j	1069c <ar6000_avail_ev+0x4e4>
			10fcc: R_MIPS_26	.text
   10fd0:	34450610 	ori	a1,v0,0x610
   10fd4:	3c020050 	lui	v0,0x50
   10fd8:	080041a7 	j	1069c <ar6000_avail_ev+0x4e4>
			10fd8: R_MIPS_26	.text
   10fdc:	34450410 	ori	a1,v0,0x410

00010fe0 <disconnect_timer_handler>:
   10fe0:	27bdffe8 	addiu	sp,sp,-24
   10fe4:	afbf0014 	sw	ra,20(sp)
   10fe8:	afb00010 	sw	s0,16(sp)
   10fec:	8c900194 	lw	s0,404(a0)
   10ff0:	3c020000 	lui	v0,0x0
			10ff0: R_MIPS_HI16	del_timer
   10ff4:	24420000 	addiu	v0,v0,0
			10ff4: R_MIPS_LO16	del_timer
   10ff8:	0040f809 	jalr	v0
   10ffc:	26041610 	addiu	a0,s0,5648
   11000:	3c020000 	lui	v0,0x0
			11000: R_MIPS_HI16	ar6000_init_profile_info
   11004:	24420000 	addiu	v0,v0,0
			11004: R_MIPS_LO16	ar6000_init_profile_info
   11008:	0040f809 	jalr	v0
   1100c:	02002021 	move	a0,s0
   11010:	8e040004 	lw	a0,4(s0)
   11014:	3c190000 	lui	t9,0x0
			11014: R_MIPS_HI16	wmi_disconnect_cmd
   11018:	8fbf0014 	lw	ra,20(sp)
   1101c:	8fb00010 	lw	s0,16(sp)
   11020:	27390000 	addiu	t9,t9,0
			11020: R_MIPS_LO16	wmi_disconnect_cmd
   11024:	03200008 	jr	t9
   11028:	27bd0018 	addiu	sp,sp,24

0001102c <ar6000_detect_error>:
   1102c:	27bdffe0 	addiu	sp,sp,-32
   11030:	afbf001c 	sw	ra,28(sp)
   11034:	afb00018 	sw	s0,24(sp)
   11038:	8c900194 	lw	s0,404(a0)
   1103c:	40026000 	mfc0	v0,c0_status
   11040:	30420001 	andi	v0,v0,0x1
   11044:	14400006 	bnez	v0,11060 <ar6000_detect_error+0x34>
   11048:	3c020000 	lui	v0,0x0
			11048: R_MIPS_HI16	local_bh_disable
   1104c:	3c020000 	lui	v0,0x0
			1104c: R_MIPS_HI16	debugdriver
   11050:	8c430000 	lw	v1,0(v0)
			11050: R_MIPS_LO16	debugdriver
   11054:	14600069 	bnez	v1,111fc <ar6000_detect_error+0x1d0>
   11058:	3c040000 	lui	a0,0x0
			11058: R_MIPS_HI16	$LC97
   1105c:	3c020000 	lui	v0,0x0
			1105c: R_MIPS_HI16	local_bh_disable
   11060:	24420000 	addiu	v0,v0,0
			11060: R_MIPS_LO16	local_bh_disable
   11064:	0040f809 	jalr	v0
   11068:	00000000 	nop
   1106c:	8f820014 	lw	v0,20(gp)
   11070:	24420001 	addiu	v0,v0,1
   11074:	af820014 	sw	v0,20(gp)
   11078:	8e020500 	lw	v0,1280(s0)
   1107c:	10400021 	beqz	v0,11104 <ar6000_detect_error+0xd8>
   11080:	00000000 	nop
   11084:	92020504 	lbu	v0,1284(s0)
   11088:	92030505 	lbu	v1,1285(s0)
   1108c:	24420001 	addiu	v0,v0,1
   11090:	304200ff 	andi	v0,v0,0xff
   11094:	0062182b 	sltu	v1,v1,v0
   11098:	1060001b 	beqz	v1,11108 <ar6000_detect_error+0xdc>
   1109c:	a2020504 	sb	v0,1284(s0)
   110a0:	24030060 	li	v1,96
   110a4:	a2000504 	sb	zero,1284(s0)
   110a8:	ae0004fc 	sw	zero,1276(s0)
   110ac:	afa30010 	sw	v1,16(sp)
   110b0:	40026000 	mfc0	v0,c0_status
   110b4:	30420001 	andi	v0,v0,0x1
   110b8:	10400056 	beqz	v0,11214 <ar6000_detect_error+0x1e8>
   110bc:	3c020000 	lui	v0,0x0
			110bc: R_MIPS_HI16	debugdriver
   110c0:	8f820014 	lw	v0,20(gp)
   110c4:	3c030000 	lui	v1,0x0
			110c4: R_MIPS_HI16	local_bh_enable
   110c8:	2442ffff 	addiu	v0,v0,-1
   110cc:	24630000 	addiu	v1,v1,0
			110cc: R_MIPS_LO16	local_bh_enable
   110d0:	0060f809 	jalr	v1
   110d4:	af820014 	sw	v0,20(gp)
   110d8:	3c020000 	lui	v0,0x0
			110d8: R_MIPS_HI16	ar6000_send_event_to_app
   110dc:	02002021 	move	a0,s0
   110e0:	27a60010 	addiu	a2,sp,16
   110e4:	2405100d 	li	a1,4109
   110e8:	24420000 	addiu	v0,v0,0
			110e8: R_MIPS_LO16	ar6000_send_event_to_app
   110ec:	0040f809 	jalr	v0
   110f0:	24070004 	li	a3,4
   110f4:	8fbf001c 	lw	ra,28(sp)
   110f8:	8fb00018 	lw	s0,24(sp)
   110fc:	03e00008 	jr	ra
   11100:	27bd0020 	addiu	sp,sp,32
   11104:	a2000504 	sb	zero,1284(s0)
   11108:	8e0204fc 	lw	v0,1276(s0)
   1110c:	24030001 	li	v1,1
   11110:	24420001 	addiu	v0,v0,1
   11114:	ae0204fc 	sw	v0,1276(s0)
   11118:	ae030500 	sw	v1,1280(s0)
   1111c:	40026000 	mfc0	v0,c0_status
   11120:	30420001 	andi	v0,v0,0x1
   11124:	1040002c 	beqz	v0,111d8 <ar6000_detect_error+0x1ac>
   11128:	3c020000 	lui	v0,0x0
			11128: R_MIPS_HI16	debugdriver
   1112c:	8f820014 	lw	v0,20(gp)
   11130:	3c030000 	lui	v1,0x0
			11130: R_MIPS_HI16	local_bh_enable
   11134:	2442ffff 	addiu	v0,v0,-1
   11138:	24630000 	addiu	v1,v1,0
			11138: R_MIPS_LO16	local_bh_enable
   1113c:	0060f809 	jalr	v1
   11140:	af820014 	sw	v0,20(gp)
   11144:	3c020000 	lui	v0,0x0
			11144: R_MIPS_HI16	wmi_get_challenge_resp_cmd
   11148:	8e040004 	lw	a0,4(s0)
   1114c:	8e0504fc 	lw	a1,1276(s0)
   11150:	24420000 	addiu	v0,v0,0
			11150: R_MIPS_LO16	wmi_get_challenge_resp_cmd
   11154:	0040f809 	jalr	v0
   11158:	00003021 	move	a2,zero
   1115c:	14400015 	bnez	v0,111b4 <ar6000_detect_error+0x188>
   11160:	3c020000 	lui	v0,0x0
			11160: R_MIPS_HI16	debugdriver
   11164:	8e0504f8 	lw	a1,1272(s0)
   11168:	3c020001 	lui	v0,0x1
   1116c:	344286a0 	ori	v0,v0,0x86a0
   11170:	70a22802 	mul	a1,a1,v0
   11174:	3c031062 	lui	v1,0x1062
   11178:	34634dd3 	ori	v1,v1,0x4dd3
   1117c:	00a30019 	multu	a1,v1
   11180:	3c020000 	lui	v0,0x0
			11180: R_MIPS_HI16	jiffies
   11184:	00002810 	mfhi	a1
   11188:	8c430000 	lw	v1,0(v0)
			11188: R_MIPS_LO16	jiffies
   1118c:	00052982 	srl	a1,a1,0x6
   11190:	3c020000 	lui	v0,0x0
			11190: R_MIPS_HI16	mod_timer
   11194:	260404e0 	addiu	a0,s0,1248
   11198:	24420000 	addiu	v0,v0,0
			11198: R_MIPS_LO16	mod_timer
   1119c:	0040f809 	jalr	v0
   111a0:	00a32821 	addu	a1,a1,v1
   111a4:	8fbf001c 	lw	ra,28(sp)
   111a8:	8fb00018 	lw	s0,24(sp)
   111ac:	03e00008 	jr	ra
   111b0:	27bd0020 	addiu	sp,sp,32
   111b4:	8c430000 	lw	v1,0(v0)
			111b4: R_MIPS_LO16	debugdriver
   111b8:	1060ffea 	beqz	v1,11164 <ar6000_detect_error+0x138>
   111bc:	3c040000 	lui	a0,0x0
			111bc: R_MIPS_HI16	$LC186
   111c0:	3c020000 	lui	v0,0x0
			111c0: R_MIPS_HI16	printk
   111c4:	24420000 	addiu	v0,v0,0
			111c4: R_MIPS_LO16	printk
   111c8:	0040f809 	jalr	v0
   111cc:	24840000 	addiu	a0,a0,0
			111cc: R_MIPS_LO16	$LC186
   111d0:	0800445a 	j	11168 <ar6000_detect_error+0x13c>
			111d0: R_MIPS_26	.text
   111d4:	8e0504f8 	lw	a1,1272(s0)
   111d8:	8c430000 	lw	v1,0(v0)
			111d8: R_MIPS_LO16	debugdriver
   111dc:	1060ffd3 	beqz	v1,1112c <ar6000_detect_error+0x100>
   111e0:	3c040000 	lui	a0,0x0
			111e0: R_MIPS_HI16	$LC99
   111e4:	3c020000 	lui	v0,0x0
			111e4: R_MIPS_HI16	printk
   111e8:	24420000 	addiu	v0,v0,0
			111e8: R_MIPS_LO16	printk
   111ec:	0040f809 	jalr	v0
   111f0:	24840000 	addiu	a0,a0,0
			111f0: R_MIPS_LO16	$LC99
   111f4:	0800444b 	j	1112c <ar6000_detect_error+0x100>
			111f4: R_MIPS_26	.text
   111f8:	00000000 	nop
   111fc:	3c020000 	lui	v0,0x0
			111fc: R_MIPS_HI16	printk
   11200:	24420000 	addiu	v0,v0,0
			11200: R_MIPS_LO16	printk
   11204:	0040f809 	jalr	v0
   11208:	24840000 	addiu	a0,a0,0
			11208: R_MIPS_LO16	$LC97
   1120c:	08004418 	j	11060 <ar6000_detect_error+0x34>
			1120c: R_MIPS_26	.text
   11210:	3c020000 	lui	v0,0x0
			11210: R_MIPS_HI16	local_bh_disable
   11214:	8c430000 	lw	v1,0(v0)
			11214: R_MIPS_LO16	debugdriver
   11218:	1060ffa9 	beqz	v1,110c0 <ar6000_detect_error+0x94>
   1121c:	3c040000 	lui	a0,0x0
			1121c: R_MIPS_HI16	$LC99
   11220:	3c020000 	lui	v0,0x0
			11220: R_MIPS_HI16	printk
   11224:	24420000 	addiu	v0,v0,0
			11224: R_MIPS_LO16	printk
   11228:	0040f809 	jalr	v0
   1122c:	24840000 	addiu	a0,a0,0
			1122c: R_MIPS_LO16	$LC99
   11230:	08004430 	j	110c0 <ar6000_detect_error+0x94>
			11230: R_MIPS_26	.text
   11234:	00000000 	nop

00011238 <ar6000_get_stats>:
   11238:	8c820194 	lw	v0,404(a0)
   1123c:	03e00008 	jr	ra
   11240:	244201dc 	addiu	v0,v0,476

00011244 <ar6000_close>:
   11244:	3c020000 	lui	v0,0x0
			11244: R_MIPS_HI16	cpu_data
   11248:	8c430008 	lw	v1,8(v0)
			11248: R_MIPS_LO16	cpu_data
   1124c:	3c050001 	lui	a1,0x1
   11250:	00651824 	and	v1,v1,a1
   11254:	10600008 	beqz	v1,11278 <ar6000_close+0x34>
   11258:	00000000 	nop
   1125c:	c082002c 	ll	v0,44(a0)
   11260:	34420001 	ori	v0,v0,0x1
   11264:	e082002c 	sc	v0,44(a0)
   11268:	104006ab 	beqz	v0,12d18 <ar6000_connect_event+0xbbc>
   1126c:	00000000 	nop
   11270:	03e00008 	jr	ra
   11274:	00001021 	move	v0,zero
   11278:	40036000 	mfc0	v1,c0_status
   1127c:	3461001f 	ori	at,v1,0x1f
   11280:	3821001f 	xori	at,at,0x1f
   11284:	40816000 	mtc0	at,c0_status
   11288:	00000040 	ssnop
   1128c:	00000040 	ssnop
   11290:	00000040 	ssnop
   11294:	000000c0 	sll	zero,zero,0x3
   11298:	8c82002c 	lw	v0,44(a0)
   1129c:	34420001 	ori	v0,v0,0x1
   112a0:	ac82002c 	sw	v0,44(a0)
   112a4:	40016000 	mfc0	at,c0_status
   112a8:	30630001 	andi	v1,v1,0x1
   112ac:	3421001f 	ori	at,at,0x1f
   112b0:	3821001f 	xori	at,at,0x1f
   112b4:	00611825 	or	v1,v1,at
   112b8:	40836000 	mtc0	v1,c0_status
   112bc:	00000040 	ssnop
   112c0:	00000040 	ssnop
   112c4:	00000040 	ssnop
   112c8:	000000c0 	sll	zero,zero,0x3
   112cc:	03e00008 	jr	ra
   112d0:	00001021 	move	v0,zero

000112d4 <ar6000_tx_queue_full>:
   112d4:	27bdffe0 	addiu	sp,sp,-32
   112d8:	afb00010 	sw	s0,16(sp)
   112dc:	afbf0018 	sw	ra,24(sp)
   112e0:	afb10014 	sw	s1,20(sp)
   112e4:	3c020000 	lui	v0,0x0
			112e4: R_MIPS_HI16	bypasswmi
   112e8:	8c430000 	lw	v1,0(v0)
			112e8: R_MIPS_LO16	bypasswmi
   112ec:	00808021 	move	s0,a0
   112f0:	14600014 	bnez	v1,11344 <ar6000_tx_queue_full+0x70>
   112f4:	8ca4001c 	lw	a0,28(a1)
   112f8:	8e020540 	lw	v0,1344(s0)
   112fc:	10820066 	beq	a0,v0,11498 <ar6000_tx_queue_full+0x1c4>
   11300:	2402000a 	li	v0,10
   11304:	94a30024 	lhu	v1,36(a1)
   11308:	10620082 	beq	v1,v0,11514 <ar6000_tx_queue_full+0x240>
   1130c:	24020002 	li	v0,2
   11310:	9203009d 	lbu	v1,157(s0)
   11314:	1062000b 	beq	v1,v0,11344 <ar6000_tx_queue_full+0x70>
   11318:	00901821 	addu	v1,a0,s0
   1131c:	90620535 	lbu	v0,1333(v1)
   11320:	92040534 	lbu	a0,1332(s0)
   11324:	00501021 	addu	v0,v0,s0
   11328:	90430530 	lbu	v1,1328(v0)
   1132c:	8fbf0018 	lw	ra,24(sp)
   11330:	8fb10014 	lw	s1,20(sp)
   11334:	8fb00010 	lw	s0,16(sp)
   11338:	0064102b 	sltu	v0,v1,a0
   1133c:	03e00008 	jr	ra
   11340:	27bd0020 	addiu	sp,sp,32
   11344:	40026000 	mfc0	v0,c0_status
   11348:	30420001 	andi	v0,v0,0x1
   1134c:	10400049 	beqz	v0,11474 <ar6000_tx_queue_full+0x1a0>
   11350:	3c020000 	lui	v0,0x0
			11350: R_MIPS_HI16	debugdriver
   11354:	3c020000 	lui	v0,0x0
			11354: R_MIPS_HI16	local_bh_disable
   11358:	24420000 	addiu	v0,v0,0
			11358: R_MIPS_LO16	local_bh_disable
   1135c:	0040f809 	jalr	v0
   11360:	00000000 	nop
   11364:	8f820014 	lw	v0,20(gp)
   11368:	24420001 	addiu	v0,v0,1
   1136c:	af820014 	sw	v0,20(gp)
   11370:	24030001 	li	v1,1
   11374:	ae030544 	sw	v1,1348(s0)
   11378:	40026000 	mfc0	v0,c0_status
   1137c:	30420001 	andi	v0,v0,0x1
   11380:	10400033 	beqz	v0,11450 <ar6000_tx_queue_full+0x17c>
   11384:	3c020000 	lui	v0,0x0
			11384: R_MIPS_HI16	debugdriver
   11388:	8f820014 	lw	v0,20(gp)
   1138c:	3c030000 	lui	v1,0x0
			1138c: R_MIPS_HI16	local_bh_enable
   11390:	2442ffff 	addiu	v0,v0,-1
   11394:	24630000 	addiu	v1,v1,0
			11394: R_MIPS_LO16	local_bh_enable
   11398:	0060f809 	jalr	v1
   1139c:	af820014 	sw	v0,20(gp)
   113a0:	3c020000 	lui	v0,0x0
			113a0: R_MIPS_HI16	cpu_data
   113a4:	8c430008 	lw	v1,8(v0)
			113a4: R_MIPS_LO16	cpu_data
   113a8:	3c040001 	lui	a0,0x1
   113ac:	00641824 	and	v1,v1,a0
   113b0:	1060000c 	beqz	v1,113e4 <ar6000_tx_queue_full+0x110>
   113b4:	8e040000 	lw	a0,0(s0)
   113b8:	c082002c 	ll	v0,44(a0)
   113bc:	34420001 	ori	v0,v0,0x1
   113c0:	e082002c 	sc	v0,44(a0)
   113c4:	10400656 	beqz	v0,12d20 <ar6000_connect_event+0xbc4>
   113c8:	00000000 	nop
   113cc:	00001021 	move	v0,zero
   113d0:	8fbf0018 	lw	ra,24(sp)
   113d4:	8fb10014 	lw	s1,20(sp)
   113d8:	8fb00010 	lw	s0,16(sp)
   113dc:	03e00008 	jr	ra
   113e0:	27bd0020 	addiu	sp,sp,32
   113e4:	40036000 	mfc0	v1,c0_status
   113e8:	3461001f 	ori	at,v1,0x1f
   113ec:	3821001f 	xori	at,at,0x1f
   113f0:	40816000 	mtc0	at,c0_status
   113f4:	00000040 	ssnop
   113f8:	00000040 	ssnop
   113fc:	00000040 	ssnop
   11400:	000000c0 	sll	zero,zero,0x3
   11404:	8c82002c 	lw	v0,44(a0)
   11408:	34420001 	ori	v0,v0,0x1
   1140c:	ac82002c 	sw	v0,44(a0)
   11410:	40016000 	mfc0	at,c0_status
   11414:	30630001 	andi	v1,v1,0x1
   11418:	3421001f 	ori	at,at,0x1f
   1141c:	3821001f 	xori	at,at,0x1f
   11420:	00611825 	or	v1,v1,at
   11424:	40836000 	mtc0	v1,c0_status
   11428:	00000040 	ssnop
   1142c:	00000040 	ssnop
   11430:	00000040 	ssnop
   11434:	000000c0 	sll	zero,zero,0x3
   11438:	8fbf0018 	lw	ra,24(sp)
   1143c:	8fb10014 	lw	s1,20(sp)
   11440:	8fb00010 	lw	s0,16(sp)
   11444:	00001021 	move	v0,zero
   11448:	03e00008 	jr	ra
   1144c:	27bd0020 	addiu	sp,sp,32
   11450:	8c430000 	lw	v1,0(v0)
			11450: R_MIPS_LO16	debugdriver
   11454:	1060ffcc 	beqz	v1,11388 <ar6000_tx_queue_full+0xb4>
   11458:	3c020000 	lui	v0,0x0
			11458: R_MIPS_HI16	printk
   1145c:	3c040000 	lui	a0,0x0
			1145c: R_MIPS_HI16	$LC99
   11460:	24420000 	addiu	v0,v0,0
			11460: R_MIPS_LO16	printk
   11464:	0040f809 	jalr	v0
   11468:	24840000 	addiu	a0,a0,0
			11468: R_MIPS_LO16	$LC99
   1146c:	080044e2 	j	11388 <ar6000_tx_queue_full+0xb4>
			1146c: R_MIPS_26	.text
   11470:	00000000 	nop
   11474:	8c430000 	lw	v1,0(v0)
			11474: R_MIPS_LO16	debugdriver
   11478:	1060ffb6 	beqz	v1,11354 <ar6000_tx_queue_full+0x80>
   1147c:	3c040000 	lui	a0,0x0
			1147c: R_MIPS_HI16	$LC97
   11480:	3c020000 	lui	v0,0x0
			11480: R_MIPS_HI16	printk
   11484:	24420000 	addiu	v0,v0,0
			11484: R_MIPS_LO16	printk
   11488:	0040f809 	jalr	v0
   1148c:	24840000 	addiu	a0,a0,0
			1148c: R_MIPS_LO16	$LC97
   11490:	080044d6 	j	11358 <ar6000_tx_queue_full+0x84>
			11490: R_MIPS_26	.text
   11494:	3c020000 	lui	v0,0x0
			11494: R_MIPS_HI16	local_bh_disable
   11498:	40026000 	mfc0	v0,c0_status
   1149c:	30420001 	andi	v0,v0,0x1
   114a0:	14400004 	bnez	v0,114b4 <ar6000_tx_queue_full+0x1e0>
   114a4:	3c110000 	lui	s1,0x0
			114a4: R_MIPS_HI16	debugdriver
   114a8:	8e220000 	lw	v0,0(s1)
			114a8: R_MIPS_LO16	debugdriver
   114ac:	1440002b 	bnez	v0,1155c <ar6000_tx_queue_full+0x288>
   114b0:	3c040000 	lui	a0,0x0
			114b0: R_MIPS_HI16	$LC97
   114b4:	3c020000 	lui	v0,0x0
			114b4: R_MIPS_HI16	local_bh_disable
   114b8:	24420000 	addiu	v0,v0,0
			114b8: R_MIPS_LO16	local_bh_disable
   114bc:	0040f809 	jalr	v0
   114c0:	00000000 	nop
   114c4:	8f820014 	lw	v0,20(gp)
   114c8:	24420001 	addiu	v0,v0,1
   114cc:	af820014 	sw	v0,20(gp)
   114d0:	24030001 	li	v1,1
   114d4:	ae03055c 	sw	v1,1372(s0)
   114d8:	40026000 	mfc0	v0,c0_status
   114dc:	30420001 	andi	v0,v0,0x1
   114e0:	14400003 	bnez	v0,114f0 <ar6000_tx_queue_full+0x21c>
   114e4:	8e220000 	lw	v0,0(s1)
			114e4: R_MIPS_LO16	debugdriver
   114e8:	14400016 	bnez	v0,11544 <ar6000_tx_queue_full+0x270>
   114ec:	3c040000 	lui	a0,0x0
			114ec: R_MIPS_HI16	$LC99
   114f0:	8f820014 	lw	v0,20(gp)
   114f4:	3c030000 	lui	v1,0x0
			114f4: R_MIPS_HI16	local_bh_enable
   114f8:	2442ffff 	addiu	v0,v0,-1
   114fc:	24630000 	addiu	v1,v1,0
			114fc: R_MIPS_LO16	local_bh_enable
   11500:	0060f809 	jalr	v1
   11504:	af820014 	sw	v0,20(gp)
   11508:	8e220000 	lw	v0,0(s1)
			11508: R_MIPS_LO16	debugdriver
   1150c:	14400007 	bnez	v0,1152c <ar6000_tx_queue_full+0x258>
   11510:	3c040000 	lui	a0,0x0
			11510: R_MIPS_HI16	$LC187
   11514:	8fbf0018 	lw	ra,24(sp)
   11518:	8fb10014 	lw	s1,20(sp)
   1151c:	8fb00010 	lw	s0,16(sp)
   11520:	00001021 	move	v0,zero
   11524:	03e00008 	jr	ra
   11528:	27bd0020 	addiu	sp,sp,32
   1152c:	3c020000 	lui	v0,0x0
			1152c: R_MIPS_HI16	printk
   11530:	24420000 	addiu	v0,v0,0
			11530: R_MIPS_LO16	printk
   11534:	0040f809 	jalr	v0
   11538:	24840000 	addiu	a0,a0,0
			11538: R_MIPS_LO16	$LC187
   1153c:	080044f4 	j	113d0 <ar6000_tx_queue_full+0xfc>
			1153c: R_MIPS_26	.text
   11540:	00001021 	move	v0,zero
   11544:	3c020000 	lui	v0,0x0
			11544: R_MIPS_HI16	printk
   11548:	24420000 	addiu	v0,v0,0
			11548: R_MIPS_LO16	printk
   1154c:	0040f809 	jalr	v0
   11550:	24840000 	addiu	a0,a0,0
			11550: R_MIPS_LO16	$LC99
   11554:	0800453c 	j	114f0 <ar6000_tx_queue_full+0x21c>
			11554: R_MIPS_26	.text
   11558:	00000000 	nop
   1155c:	3c020000 	lui	v0,0x0
			1155c: R_MIPS_HI16	printk
   11560:	24420000 	addiu	v0,v0,0
			11560: R_MIPS_LO16	printk
   11564:	0040f809 	jalr	v0
   11568:	24840000 	addiu	a0,a0,0
			11568: R_MIPS_LO16	$LC97
   1156c:	0800452e 	j	114b8 <ar6000_tx_queue_full+0x1e4>
			1156c: R_MIPS_26	.text
   11570:	3c020000 	lui	v0,0x0
			11570: R_MIPS_HI16	local_bh_disable

00011574 <ar6000_get_iwstats>:
   11574:	27bdffa8 	addiu	sp,sp,-88
   11578:	afb20038 	sw	s2,56(sp)
   1157c:	afb10034 	sw	s1,52(sp)
   11580:	afbf0054 	sw	ra,84(sp)
   11584:	afbe0050 	sw	s8,80(sp)
   11588:	afb7004c 	sw	s7,76(sp)
   1158c:	afb60048 	sw	s6,72(sp)
   11590:	afb50044 	sw	s5,68(sp)
   11594:	afb40040 	sw	s4,64(sp)
   11598:	afb3003c 	sw	s3,60(sp)
   1159c:	afb00030 	sw	s0,48(sp)
   115a0:	8c900194 	lw	s0,404(a0)
   115a4:	8e02160c 	lw	v0,5644(s0)
   115a8:	261202a8 	addiu	s2,s0,680
   115ac:	14400004 	bnez	v0,115c0 <ar6000_get_iwstats+0x4c>
   115b0:	26110238 	addiu	s1,s0,568
   115b4:	8e020038 	lw	v0,56(s0)
   115b8:	14400015 	bnez	v0,11610 <ar6000_get_iwstats+0x9c>
   115bc:	3c02efff 	lui	v0,0xefff
   115c0:	a6000238 	sh	zero,568(s0)
   115c4:	a2200002 	sb	zero,2(s1)
   115c8:	a2200003 	sb	zero,3(s1)
   115cc:	a2200004 	sb	zero,4(s1)
   115d0:	ae20000c 	sw	zero,12(s1)
   115d4:	ae200014 	sw	zero,20(s1)
   115d8:	ae20001c 	sw	zero,28(s1)
   115dc:	02201021 	move	v0,s1
   115e0:	8fbf0054 	lw	ra,84(sp)
   115e4:	8fbe0050 	lw	s8,80(sp)
   115e8:	8fb7004c 	lw	s7,76(sp)
   115ec:	8fb60048 	lw	s6,72(sp)
   115f0:	8fb50044 	lw	s5,68(sp)
   115f4:	8fb40040 	lw	s4,64(sp)
   115f8:	8fb3003c 	lw	s3,60(sp)
   115fc:	8fb20038 	lw	s2,56(sp)
   11600:	8fb10034 	lw	s1,52(sp)
   11604:	8fb00030 	lw	s0,48(sp)
   11608:	03e00008 	jr	ra
   1160c:	27bd0058 	addiu	sp,sp,88
   11610:	8f830014 	lw	v1,20(gp)
   11614:	3442ffff 	ori	v0,v0,0xffff
   11618:	00621824 	and	v1,v1,v0
   1161c:	14600030 	bnez	v1,116e0 <ar6000_get_iwstats+0x16c>
   11620:	26020048 	addiu	v0,s0,72
   11624:	afa20028 	sw	v0,40(sp)
   11628:	3c140000 	lui	s4,0x0
			11628: R_MIPS_HI16	cpu_data
   1162c:	26820000 	addiu	v0,s4,0
			1162c: R_MIPS_LO16	cpu_data
   11630:	8c430008 	lw	v1,8(v0)
   11634:	3c040001 	lui	a0,0x1
   11638:	00641824 	and	v1,v1,a0
   1163c:	1060003c 	beqz	v1,11730 <ar6000_get_iwstats+0x1bc>
   11640:	00000000 	nop
   11644:	c2030048 	ll	v1,72(s0)
   11648:	2462ffff 	addiu	v0,v1,-1
   1164c:	e2020048 	sc	v0,72(s0)
   11650:	104005b5 	beqz	v0,12d28 <ar6000_connect_event+0xbcc>
   11654:	00000000 	nop
   11658:	2462ffff 	addiu	v0,v1,-1
   1165c:	044000dd 	bltz	v0,119d4 <ar6000_get_iwstats+0x460>
   11660:	3c020000 	lui	v0,0x0
			11660: R_MIPS_HI16	__down_interruptible
   11664:	8e02160c 	lw	v0,5644(s0)
   11668:	1040005f 	beqz	v0,117e8 <ar6000_get_iwstats+0x274>
   1166c:	24020001 	li	v0,1
   11670:	26820000 	addiu	v0,s4,0
			11670: R_MIPS_LO16	cpu_data
   11674:	8c430008 	lw	v1,8(v0)
   11678:	3c040001 	lui	a0,0x1
   1167c:	00641824 	and	v1,v1,a0
   11680:	10600042 	beqz	v1,1178c <ar6000_get_iwstats+0x218>
   11684:	00000000 	nop
   11688:	c2030048 	ll	v1,72(s0)
   1168c:	24620001 	addiu	v0,v1,1
   11690:	e2020048 	sc	v0,72(s0)
   11694:	104005a6 	beqz	v0,12d30 <ar6000_connect_event+0xbd4>
   11698:	00000000 	nop
   1169c:	24620001 	addiu	v0,v1,1
   116a0:	184000b0 	blez	v0,11964 <ar6000_get_iwstats+0x3f0>
   116a4:	3c020000 	lui	v0,0x0
			116a4: R_MIPS_HI16	__up
   116a8:	a6200000 	sh	zero,0(s1)
   116ac:	02201021 	move	v0,s1
   116b0:	8fbf0054 	lw	ra,84(sp)
   116b4:	8fbe0050 	lw	s8,80(sp)
   116b8:	8fb7004c 	lw	s7,76(sp)
   116bc:	8fb60048 	lw	s6,72(sp)
   116c0:	8fb50044 	lw	s5,68(sp)
   116c4:	8fb40040 	lw	s4,64(sp)
   116c8:	8fb3003c 	lw	s3,60(sp)
   116cc:	8fb20038 	lw	s2,56(sp)
   116d0:	8fb10034 	lw	s1,52(sp)
   116d4:	8fb00030 	lw	s0,48(sp)
   116d8:	03e00008 	jr	ra
   116dc:	27bd0058 	addiu	sp,sp,88
   116e0:	3c020000 	lui	v0,0x0
			116e0: R_MIPS_HI16	wmi_get_stats_cmd
   116e4:	24420000 	addiu	v0,v0,0
			116e4: R_MIPS_LO16	wmi_get_stats_cmd
   116e8:	0040f809 	jalr	v0
   116ec:	8e040004 	lw	a0,4(s0)
   116f0:	24030001 	li	v1,1
   116f4:	a6030238 	sh	v1,568(s0)
   116f8:	8642016e 	lh	v0,366(s2)
   116fc:	2442005f 	addiu	v0,v0,95
   11700:	a2220002 	sb	v0,2(s1)
   11704:	9243016e 	lbu	v1,366(s2)
   11708:	a2230003 	sb	v1,3(s1)
   1170c:	9244016a 	lbu	a0,362(s2)
   11710:	a2240004 	sb	a0,4(s1)
   11714:	8e4200f0 	lw	v0,240(s2)
   11718:	ae22000c 	sw	v0,12(s1)
   1171c:	8e440078 	lw	a0,120(s2)
   11720:	ae240014 	sw	a0,20(s1)
   11724:	8e420138 	lw	v0,312(s2)
   11728:	08004577 	j	115dc <ar6000_get_iwstats+0x68>
			11728: R_MIPS_26	.text
   1172c:	ae22001c 	sw	v0,28(s1)
   11730:	40036000 	mfc0	v1,c0_status
   11734:	3461001f 	ori	at,v1,0x1f
   11738:	3821001f 	xori	at,at,0x1f
   1173c:	40816000 	mtc0	at,c0_status
   11740:	00000040 	ssnop
   11744:	00000040 	ssnop
   11748:	00000040 	ssnop
   1174c:	000000c0 	sll	zero,zero,0x3
   11750:	8e020048 	lw	v0,72(s0)
   11754:	2442ffff 	addiu	v0,v0,-1
   11758:	ae020048 	sw	v0,72(s0)
   1175c:	40016000 	mfc0	at,c0_status
   11760:	30630001 	andi	v1,v1,0x1
   11764:	3421001f 	ori	at,at,0x1f
   11768:	3821001f 	xori	at,at,0x1f
   1176c:	00611825 	or	v1,v1,at
   11770:	40836000 	mtc0	v1,c0_status
   11774:	00000040 	ssnop
   11778:	00000040 	ssnop
   1177c:	00000040 	ssnop
   11780:	000000c0 	sll	zero,zero,0x3
   11784:	08004597 	j	1165c <ar6000_get_iwstats+0xe8>
			11784: R_MIPS_26	.text
   11788:	00000000 	nop
   1178c:	40036000 	mfc0	v1,c0_status
   11790:	3461001f 	ori	at,v1,0x1f
   11794:	3821001f 	xori	at,at,0x1f
   11798:	40816000 	mtc0	at,c0_status
   1179c:	00000040 	ssnop
   117a0:	00000040 	ssnop
   117a4:	00000040 	ssnop
   117a8:	000000c0 	sll	zero,zero,0x3
   117ac:	8e020048 	lw	v0,72(s0)
   117b0:	24420001 	addiu	v0,v0,1
   117b4:	ae020048 	sw	v0,72(s0)
   117b8:	40016000 	mfc0	at,c0_status
   117bc:	30630001 	andi	v1,v1,0x1
   117c0:	3421001f 	ori	at,at,0x1f
   117c4:	3821001f 	xori	at,at,0x1f
   117c8:	00611825 	or	v1,v1,at
   117cc:	40836000 	mtc0	v1,c0_status
   117d0:	00000040 	ssnop
   117d4:	00000040 	ssnop
   117d8:	00000040 	ssnop
   117dc:	000000c0 	sll	zero,zero,0x3
   117e0:	080045a8 	j	116a0 <ar6000_get_iwstats+0x12c>
			117e0: R_MIPS_26	.text
   117e4:	00000000 	nop
   117e8:	ae0202a0 	sw	v0,672(s0)
   117ec:	3c020000 	lui	v0,0x0
			117ec: R_MIPS_HI16	wmi_get_stats_cmd
   117f0:	24420000 	addiu	v0,v0,0
			117f0: R_MIPS_LO16	wmi_get_stats_cmd
   117f4:	0040f809 	jalr	v0
   117f8:	8e040004 	lw	a0,4(s0)
   117fc:	1440ff9c 	bnez	v0,11670 <ar6000_get_iwstats+0xfc>
   11800:	3c020000 	lui	v0,0x0
			11800: R_MIPS_HI16	wmitimeout
   11804:	8e0302a0 	lw	v1,672(s0)
   11808:	1060002f 	beqz	v1,118c8 <ar6000_get_iwstats+0x354>
   1180c:	8c420000 	lw	v0,0(v0)
			1180c: R_MIPS_LO16	wmitimeout
   11810:	00021900 	sll	v1,v0,0x4
   11814:	00021080 	sll	v0,v0,0x2
   11818:	00431021 	addu	v0,v0,v1
   1181c:	00021880 	sll	v1,v0,0x2
   11820:	afa00014 	sw	zero,20(sp)
   11824:	afa00018 	sw	zero,24(sp)
   11828:	afa0001c 	sw	zero,28(sp)
   1182c:	afa00020 	sw	zero,32(sp)
   11830:	00439821 	addu	s3,v0,v1
   11834:	afa00010 	sw	zero,16(sp)
   11838:	3c020000 	lui	v0,0x0
			11838: R_MIPS_HI16	autoremove_wake_function
   1183c:	8f840000 	lw	a0,0(gp)
   11840:	24420000 	addiu	v0,v0,0
			11840: R_MIPS_LO16	autoremove_wake_function
   11844:	27a5001c 	addiu	a1,sp,28
   11848:	afa20018 	sw	v0,24(sp)
   1184c:	3c030000 	lui	v1,0x0
			1184c: R_MIPS_HI16	schedule_timeout
   11850:	3c020000 	lui	v0,0x0
			11850: R_MIPS_HI16	prepare_to_wait
   11854:	afa40014 	sw	a0,20(sp)
   11858:	afa50020 	sw	a1,32(sp)
   1185c:	afa5001c 	sw	a1,28(sp)
   11860:	24570000 	addiu	s7,v0,0
			11860: R_MIPS_LO16	prepare_to_wait
   11864:	247e0000 	addiu	s8,v1,0
			11864: R_MIPS_LO16	schedule_timeout
   11868:	3c160000 	lui	s6,0x0
			11868: R_MIPS_HI16	arEvent
   1186c:	27b50010 	addiu	s5,sp,16
   11870:	26c40000 	addiu	a0,s6,0
			11870: R_MIPS_LO16	arEvent
   11874:	02a02821 	move	a1,s5
   11878:	02e0f809 	jalr	s7
   1187c:	24060001 	li	a2,1
   11880:	8e0202a0 	lw	v0,672(s0)
   11884:	1040000b 	beqz	v0,118b4 <ar6000_get_iwstats+0x340>
   11888:	02602021 	move	a0,s3
   1188c:	8f820000 	lw	v0,0(gp)
   11890:	8c450004 	lw	a1,4(v0)
   11894:	8ca30008 	lw	v1,8(a1)
   11898:	30630002 	andi	v1,v1,0x2
   1189c:	14600006 	bnez	v1,118b8 <ar6000_get_iwstats+0x344>
   118a0:	3c020000 	lui	v0,0x0
			118a0: R_MIPS_HI16	finish_wait
   118a4:	03c0f809 	jalr	s8
   118a8:	00000000 	nop
   118ac:	1440fff0 	bnez	v0,11870 <ar6000_get_iwstats+0x2fc>
   118b0:	00409821 	move	s3,v0
   118b4:	3c020000 	lui	v0,0x0
			118b4: R_MIPS_HI16	finish_wait
   118b8:	26c40000 	addiu	a0,s6,0
			118b8: R_MIPS_LO16	arEvent
   118bc:	24420000 	addiu	v0,v0,0
			118bc: R_MIPS_LO16	finish_wait
   118c0:	0040f809 	jalr	v0
   118c4:	02a02821 	move	a1,s5
   118c8:	8f820000 	lw	v0,0(gp)
   118cc:	8c440004 	lw	a0,4(v0)
   118d0:	8c830008 	lw	v1,8(a0)
   118d4:	30630002 	andi	v1,v1,0x2
   118d8:	14600045 	bnez	v1,119f0 <ar6000_get_iwstats+0x47c>
   118dc:	24030001 	li	v1,1
   118e0:	a6230000 	sh	v1,0(s1)
   118e4:	8642016e 	lh	v0,366(s2)
   118e8:	2442005f 	addiu	v0,v0,95
   118ec:	a2220002 	sb	v0,2(s1)
   118f0:	9243016e 	lbu	v1,366(s2)
   118f4:	a2230003 	sb	v1,3(s1)
   118f8:	9244016a 	lbu	a0,362(s2)
   118fc:	a2240004 	sb	a0,4(s1)
   11900:	8e4200f0 	lw	v0,240(s2)
   11904:	ae22000c 	sw	v0,12(s1)
   11908:	8e440078 	lw	a0,120(s2)
   1190c:	ae240014 	sw	a0,20(s1)
   11910:	8e420138 	lw	v0,312(s2)
   11914:	ae22001c 	sw	v0,28(s1)
   11918:	26830000 	addiu	v1,s4,0
			11918: R_MIPS_LO16	cpu_data
   1191c:	8c620008 	lw	v0,8(v1)
   11920:	3c040001 	lui	a0,0x1
   11924:	00441024 	and	v0,v0,a0
   11928:	10400013 	beqz	v0,11978 <ar6000_get_iwstats+0x404>
   1192c:	00000000 	nop
   11930:	c2030048 	ll	v1,72(s0)
   11934:	24620001 	addiu	v0,v1,1
   11938:	e2020048 	sc	v0,72(s0)
   1193c:	104004fe 	beqz	v0,12d38 <ar6000_connect_event+0xbdc>
   11940:	00000000 	nop
   11944:	24620001 	addiu	v0,v1,1
   11948:	1c40ff24 	bgtz	v0,115dc <ar6000_get_iwstats+0x68>
   1194c:	3c020000 	lui	v0,0x0
			1194c: R_MIPS_HI16	__up
   11950:	24420000 	addiu	v0,v0,0
			11950: R_MIPS_LO16	__up
   11954:	0040f809 	jalr	v0
   11958:	8fa40028 	lw	a0,40(sp)
   1195c:	08004578 	j	115e0 <ar6000_get_iwstats+0x6c>
			1195c: R_MIPS_26	.text
   11960:	02201021 	move	v0,s1
   11964:	24420000 	addiu	v0,v0,0
			11964: R_MIPS_LO16	__up
   11968:	0040f809 	jalr	v0
   1196c:	8fa40028 	lw	a0,40(sp)
   11970:	080045ab 	j	116ac <ar6000_get_iwstats+0x138>
			11970: R_MIPS_26	.text
   11974:	a6200000 	sh	zero,0(s1)
   11978:	40036000 	mfc0	v1,c0_status
   1197c:	3461001f 	ori	at,v1,0x1f
   11980:	3821001f 	xori	at,at,0x1f
   11984:	40816000 	mtc0	at,c0_status
   11988:	00000040 	ssnop
   1198c:	00000040 	ssnop
   11990:	00000040 	ssnop
   11994:	000000c0 	sll	zero,zero,0x3
   11998:	8e020048 	lw	v0,72(s0)
   1199c:	24420001 	addiu	v0,v0,1
   119a0:	ae020048 	sw	v0,72(s0)
   119a4:	40016000 	mfc0	at,c0_status
   119a8:	30630001 	andi	v1,v1,0x1
   119ac:	3421001f 	ori	at,at,0x1f
   119b0:	3821001f 	xori	at,at,0x1f
   119b4:	00611825 	or	v1,v1,at
   119b8:	40836000 	mtc0	v1,c0_status
   119bc:	00000040 	ssnop
   119c0:	00000040 	ssnop
   119c4:	00000040 	ssnop
   119c8:	000000c0 	sll	zero,zero,0x3
   119cc:	08004652 	j	11948 <ar6000_get_iwstats+0x3d4>
			119cc: R_MIPS_26	.text
   119d0:	00000000 	nop
   119d4:	24420000 	addiu	v0,v0,0
			119d4: R_MIPS_LO16	__down_interruptible
   119d8:	0040f809 	jalr	v0
   119dc:	8fa40028 	lw	a0,40(sp)
   119e0:	1040ff20 	beqz	v0,11664 <ar6000_get_iwstats+0xf0>
   119e4:	00000000 	nop
   119e8:	080045ab 	j	116ac <ar6000_get_iwstats+0x138>
			119e8: R_MIPS_26	.text
   119ec:	a6200000 	sh	zero,0(s1)
   119f0:	3c020000 	lui	v0,0x0
			119f0: R_MIPS_HI16	debugdriver
   119f4:	8c430000 	lw	v1,0(v0)
			119f4: R_MIPS_LO16	debugdriver
   119f8:	1060ff1d 	beqz	v1,11670 <ar6000_get_iwstats+0xfc>
   119fc:	3c040000 	lui	a0,0x0
			119fc: R_MIPS_HI16	$LC188
   11a00:	3c020000 	lui	v0,0x0
			11a00: R_MIPS_HI16	printk
   11a04:	24420000 	addiu	v0,v0,0
			11a04: R_MIPS_LO16	printk
   11a08:	0040f809 	jalr	v0
   11a0c:	24840000 	addiu	a0,a0,0
			11a0c: R_MIPS_LO16	$LC188
   11a10:	0800459c 	j	11670 <ar6000_get_iwstats+0xfc>
			11a10: R_MIPS_26	.text
   11a14:	00000000 	nop

00011a18 <ar6000_open>:
   11a18:	27bdffe0 	addiu	sp,sp,-32
   11a1c:	afb00010 	sw	s0,16(sp)
   11a20:	afbf0018 	sw	ra,24(sp)
   11a24:	afb10014 	sw	s1,20(sp)
   11a28:	00808021 	move	s0,a0
   11a2c:	8c850194 	lw	a1,404(a0)
   11a30:	40116000 	mfc0	s1,c0_status
   11a34:	3621001f 	ori	at,s1,0x1f
   11a38:	3821001f 	xori	at,at,0x1f
   11a3c:	40816000 	mtc0	at,c0_status
   11a40:	00000040 	ssnop
   11a44:	00000040 	ssnop
   11a48:	00000040 	ssnop
   11a4c:	000000c0 	sll	zero,zero,0x3
   11a50:	8f820014 	lw	v0,20(gp)
   11a54:	24420001 	addiu	v0,v0,1
   11a58:	af820014 	sw	v0,20(gp)
   11a5c:	8ca2003c 	lw	v0,60(a1)
   11a60:	14400004 	bnez	v0,11a74 <ar6000_open+0x5c>
   11a64:	3c020000 	lui	v0,0x0
			11a64: R_MIPS_HI16	bypasswmi
   11a68:	8c430000 	lw	v1,0(v0)
			11a68: R_MIPS_LO16	bypasswmi
   11a6c:	10600049 	beqz	v1,11b94 <ar6000_open+0x17c>
   11a70:	3c020000 	lui	v0,0x0
			11a70: R_MIPS_HI16	netif_carrier_off
   11a74:	3c020000 	lui	v0,0x0
			11a74: R_MIPS_HI16	netif_carrier_on
   11a78:	24420000 	addiu	v0,v0,0
			11a78: R_MIPS_LO16	netif_carrier_on
   11a7c:	0040f809 	jalr	v0
   11a80:	00000000 	nop
   11a84:	3c030000 	lui	v1,0x0
			11a84: R_MIPS_HI16	cpu_data
   11a88:	8c620008 	lw	v0,8(v1)
			11a88: R_MIPS_LO16	cpu_data
   11a8c:	3c040001 	lui	a0,0x1
   11a90:	00441024 	and	v0,v0,a0
   11a94:	10400020 	beqz	v0,11b18 <ar6000_open+0x100>
   11a98:	24020001 	li	v0,1
   11a9c:	c203002c 	ll	v1,44(s0)
   11aa0:	00622825 	or	a1,v1,v0
   11aa4:	00a22826 	xor	a1,a1,v0
   11aa8:	e205002c 	sc	a1,44(s0)
   11aac:	10a004a4 	beqz	a1,12d40 <ar6000_connect_event+0xbe4>
   11ab0:	00622824 	and	a1,v1,v0
   11ab4:	14a00032 	bnez	a1,11b80 <ar6000_open+0x168>
   11ab8:	3c020000 	lui	v0,0x0
			11ab8: R_MIPS_HI16	__netif_schedule
   11abc:	40016000 	mfc0	at,c0_status
   11ac0:	32310001 	andi	s1,s1,0x1
   11ac4:	3421001f 	ori	at,at,0x1f
   11ac8:	3821001f 	xori	at,at,0x1f
   11acc:	02218825 	or	s1,s1,at
   11ad0:	40916000 	mtc0	s1,c0_status
   11ad4:	00000040 	ssnop
   11ad8:	00000040 	ssnop
   11adc:	00000040 	ssnop
   11ae0:	000000c0 	sll	zero,zero,0x3
   11ae4:	8f830014 	lw	v1,20(gp)
   11ae8:	2463ffff 	addiu	v1,v1,-1
   11aec:	af830014 	sw	v1,20(gp)
   11af0:	8f830008 	lw	v1,8(gp)
   11af4:	30630004 	andi	v1,v1,0x4
   11af8:	1460002b 	bnez	v1,11ba8 <ar6000_open+0x190>
   11afc:	3c020000 	lui	v0,0x0
			11afc: R_MIPS_HI16	preempt_schedule
   11b00:	8fbf0018 	lw	ra,24(sp)
   11b04:	8fb10014 	lw	s1,20(sp)
   11b08:	8fb00010 	lw	s0,16(sp)
   11b0c:	00001021 	move	v0,zero
   11b10:	03e00008 	jr	ra
   11b14:	27bd0020 	addiu	sp,sp,32
   11b18:	40046000 	mfc0	a0,c0_status
   11b1c:	3481001f 	ori	at,a0,0x1f
   11b20:	3821001f 	xori	at,at,0x1f
   11b24:	40816000 	mtc0	at,c0_status
   11b28:	00000040 	ssnop
   11b2c:	00000040 	ssnop
   11b30:	00000040 	ssnop
   11b34:	000000c0 	sll	zero,zero,0x3
   11b38:	8e05002c 	lw	a1,44(s0)
   11b3c:	8e02002c 	lw	v0,44(s0)
   11b40:	2403fffe 	li	v1,-2
   11b44:	00431024 	and	v0,v0,v1
   11b48:	ae02002c 	sw	v0,44(s0)
   11b4c:	30a50001 	andi	a1,a1,0x1
   11b50:	40016000 	mfc0	at,c0_status
   11b54:	30840001 	andi	a0,a0,0x1
   11b58:	3421001f 	ori	at,at,0x1f
   11b5c:	3821001f 	xori	at,at,0x1f
   11b60:	00812025 	or	a0,a0,at
   11b64:	40846000 	mtc0	a0,c0_status
   11b68:	00000040 	ssnop
   11b6c:	00000040 	ssnop
   11b70:	00000040 	ssnop
   11b74:	000000c0 	sll	zero,zero,0x3
   11b78:	10a0ffd0 	beqz	a1,11abc <ar6000_open+0xa4>
   11b7c:	3c020000 	lui	v0,0x0
			11b7c: R_MIPS_HI16	__netif_schedule
   11b80:	24420000 	addiu	v0,v0,0
			11b80: R_MIPS_LO16	__netif_schedule
   11b84:	0040f809 	jalr	v0
   11b88:	02002021 	move	a0,s0
   11b8c:	080046af 	j	11abc <ar6000_open+0xa4>
			11b8c: R_MIPS_26	.text
   11b90:	00000000 	nop
   11b94:	24420000 	addiu	v0,v0,0
			11b94: R_MIPS_LO16	netif_carrier_off
   11b98:	0040f809 	jalr	v0
   11b9c:	00000000 	nop
   11ba0:	080046af 	j	11abc <ar6000_open+0xa4>
			11ba0: R_MIPS_26	.text
   11ba4:	00000000 	nop
   11ba8:	24420000 	addiu	v0,v0,0
			11ba8: R_MIPS_LO16	preempt_schedule
   11bac:	0040f809 	jalr	v0
   11bb0:	00000000 	nop
   11bb4:	080046c1 	j	11b04 <ar6000_open+0xec>
			11bb4: R_MIPS_26	.text
   11bb8:	8fbf0018 	lw	ra,24(sp)

00011bbc <ar6000_tx_complete>:
   11bbc:	27bdffc0 	addiu	sp,sp,-64
   11bc0:	afb20020 	sw	s2,32(sp)
   11bc4:	afb1001c 	sw	s1,28(sp)
   11bc8:	afbf003c 	sw	ra,60(sp)
   11bcc:	afbe0038 	sw	s8,56(sp)
   11bd0:	afb70034 	sw	s7,52(sp)
   11bd4:	afb60030 	sw	s6,48(sp)
   11bd8:	afb5002c 	sw	s5,44(sp)
   11bdc:	afb40028 	sw	s4,40(sp)
   11be0:	afb30024 	sw	s3,36(sp)
   11be4:	afb00018 	sw	s0,24(sp)
   11be8:	8cb50008 	lw	s5,8(a1)
   11bec:	00a08821 	move	s1,a1
   11bf0:	8eb40000 	lw	s4,0(s5)
   11bf4:	00809021 	move	s2,a0
   11bf8:	8cb60020 	lw	s6,32(a1)
   11bfc:	8cb3001c 	lw	s3,28(a1)
   11c00:	12800141 	beqz	s4,12108 <ar6000_tx_complete+0x54c>
   11c04:	8ebe0004 	lw	s8,4(s5)
   11c08:	3c020000 	lui	v0,0x0
			11c08: R_MIPS_HI16	a_netbuf_to_data
   11c0c:	8cb00010 	lw	s0,16(a1)
   11c10:	24420000 	addiu	v0,v0,0
			11c10: R_MIPS_LO16	a_netbuf_to_data
   11c14:	0040f809 	jalr	v0
   11c18:	02802021 	move	a0,s4
   11c1c:	16020145 	bne	s0,v0,12134 <ar6000_tx_complete+0x578>
   11c20:	3c020000 	lui	v0,0x0
			11c20: R_MIPS_HI16	printk
   11c24:	12c000f4 	beqz	s6,11ff8 <ar6000_tx_complete+0x43c>
   11c28:	3c020000 	lui	v0,0x0
			11c28: R_MIPS_HI16	a_netbuf_to_len
   11c2c:	3c170000 	lui	s7,0x0
			11c2c: R_MIPS_HI16	debugdriver
   11c30:	8ee20000 	lw	v0,0(s7)
			11c30: R_MIPS_LO16	debugdriver
   11c34:	28420002 	slti	v0,v0,2
   11c38:	14400009 	bnez	v0,11c60 <ar6000_tx_complete+0xa4>
   11c3c:	3c040000 	lui	a0,0x0
			11c3c: R_MIPS_HI16	$LC195
   11c40:	8e270018 	lw	a3,24(s1)
   11c44:	8e260010 	lw	a2,16(s1)
   11c48:	3c020000 	lui	v0,0x0
			11c48: R_MIPS_HI16	printk
   11c4c:	24840000 	addiu	a0,a0,0
			11c4c: R_MIPS_LO16	$LC195
   11c50:	02802821 	move	a1,s4
   11c54:	24420000 	addiu	v0,v0,0
			11c54: R_MIPS_LO16	printk
   11c58:	0040f809 	jalr	v0
   11c5c:	afb30010 	sw	s3,16(sp)
   11c60:	40026000 	mfc0	v0,c0_status
   11c64:	30420001 	andi	v0,v0,0x1
   11c68:	10400068 	beqz	v0,11e0c <ar6000_tx_complete+0x250>
   11c6c:	8ee20000 	lw	v0,0(s7)
			11c6c: R_MIPS_LO16	debugdriver
   11c70:	3c020000 	lui	v0,0x0
			11c70: R_MIPS_HI16	local_bh_disable
   11c74:	24420000 	addiu	v0,v0,0
			11c74: R_MIPS_LO16	local_bh_disable
   11c78:	0040f809 	jalr	v0
   11c7c:	00000000 	nop
   11c80:	8f820014 	lw	v0,20(gp)
   11c84:	24420001 	addiu	v0,v0,1
   11c88:	af820014 	sw	v0,20(gp)
   11c8c:	00132880 	sll	a1,s3,0x2
   11c90:	00b21821 	addu	v1,a1,s2
   11c94:	8c620008 	lw	v0,8(v1)
   11c98:	8e440540 	lw	a0,1344(s2)
   11c9c:	2442ffff 	addiu	v0,v0,-1
   11ca0:	1264006f 	beq	s3,a0,11e60 <ar6000_tx_complete+0x2a4>
   11ca4:	ac620008 	sw	v0,8(v1)
   11ca8:	8e42002c 	lw	v0,44(s2)
   11cac:	2442ffff 	addiu	v0,v0,-1
   11cb0:	126400b5 	beq	s3,a0,11f88 <ar6000_tx_complete+0x3cc>
   11cb4:	ae42002c 	sw	v0,44(s2)
   11cb8:	12c00071 	beqz	s6,11e80 <ar6000_tx_complete+0x2c4>
   11cbc:	00008821 	move	s1,zero
   11cc0:	8e4201f0 	lw	v0,496(s2)
   11cc4:	24030016 	li	v1,22
   11cc8:	24420001 	addiu	v0,v0,1
   11ccc:	12c30004 	beq	s6,v1,11ce0 <ar6000_tx_complete+0x124>
   11cd0:	ae4201f0 	sw	v0,496(s2)
   11cd4:	8ee20000 	lw	v0,0(s7)
			11cd4: R_MIPS_LO16	debugdriver
   11cd8:	14400102 	bnez	v0,120e4 <ar6000_tx_complete+0x528>
   11cdc:	3c040000 	lui	a0,0x0
			11cdc: R_MIPS_HI16	$LC196
   11ce0:	9243009d 	lbu	v1,157(s2)
   11ce4:	24020002 	li	v0,2
   11ce8:	1062007a 	beq	v1,v0,11ed4 <ar6000_tx_complete+0x318>
   11cec:	00000000 	nop
   11cf0:	8e430038 	lw	v1,56(s2)
   11cf4:	24020001 	li	v0,1
   11cf8:	10620004 	beq	v1,v0,11d0c <ar6000_tx_complete+0x150>
   11cfc:	3c020000 	lui	v0,0x0
			11cfc: R_MIPS_HI16	bypasswmi
   11d00:	8c430000 	lw	v1,0(v0)
			11d00: R_MIPS_LO16	bypasswmi
   11d04:	10600006 	beqz	v1,11d20 <ar6000_tx_complete+0x164>
   11d08:	00000000 	nop
   11d0c:	3c020001 	lui	v0,0x1
			11d0c: R_MIPS_HI16	.text
   11d10:	02a02821 	move	a1,s5
   11d14:	2442aee0 	addiu	v0,v0,-20768
			11d14: R_MIPS_LO16	.text
   11d18:	0040f809 	jalr	v0
   11d1c:	02402021 	move	a0,s2
   11d20:	8e420544 	lw	v0,1348(s2)
   11d24:	10400002 	beqz	v0,11d30 <ar6000_tx_complete+0x174>
   11d28:	00000000 	nop
   11d2c:	ae400544 	sw	zero,1348(s2)
   11d30:	40026000 	mfc0	v0,c0_status
   11d34:	30420001 	andi	v0,v0,0x1
   11d38:	14400003 	bnez	v0,11d48 <ar6000_tx_complete+0x18c>
   11d3c:	8ee20000 	lw	v0,0(s7)
			11d3c: R_MIPS_LO16	debugdriver
   11d40:	144000e2 	bnez	v0,120cc <ar6000_tx_complete+0x510>
   11d44:	3c040000 	lui	a0,0x0
			11d44: R_MIPS_HI16	$LC99
   11d48:	8f820014 	lw	v0,20(gp)
   11d4c:	3c030000 	lui	v1,0x0
			11d4c: R_MIPS_HI16	local_bh_enable
   11d50:	2442ffff 	addiu	v0,v0,-1
   11d54:	24630000 	addiu	v1,v1,0
			11d54: R_MIPS_LO16	local_bh_enable
   11d58:	0060f809 	jalr	v1
   11d5c:	af820014 	sw	v0,20(gp)
   11d60:	3c020000 	lui	v0,0x0
			11d60: R_MIPS_HI16	a_netbuf_free
   11d64:	24420000 	addiu	v0,v0,0
			11d64: R_MIPS_LO16	a_netbuf_free
   11d68:	0040f809 	jalr	v0
   11d6c:	02802021 	move	a0,s4
   11d70:	8e43003c 	lw	v1,60(s2)
   11d74:	24050001 	li	a1,1
   11d78:	10650004 	beq	v1,a1,11d8c <ar6000_tx_complete+0x1d0>
   11d7c:	3c020000 	lui	v0,0x0
			11d7c: R_MIPS_HI16	bypasswmi
   11d80:	8c430000 	lw	v1,0(v0)
			11d80: R_MIPS_LO16	bypasswmi
   11d84:	10600014 	beqz	v1,11dd8 <ar6000_tx_complete+0x21c>
   11d88:	00000000 	nop
   11d8c:	24020010 	li	v0,16
   11d90:	12c20011 	beq	s6,v0,11dd8 <ar6000_tx_complete+0x21c>
   11d94:	00000000 	nop
   11d98:	8e460000 	lw	a2,0(s2)
   11d9c:	3c020000 	lui	v0,0x0
			11d9c: R_MIPS_HI16	cpu_data
   11da0:	8c430008 	lw	v1,8(v0)
			11da0: R_MIPS_LO16	cpu_data
   11da4:	3c040001 	lui	a0,0x1
   11da8:	00641824 	and	v1,v1,a0
   11dac:	106000a3 	beqz	v1,1203c <ar6000_tx_complete+0x480>
   11db0:	00000000 	nop
   11db4:	c0c2002c 	ll	v0,44(a2)
   11db8:	00451825 	or	v1,v0,a1
   11dbc:	00651826 	xor	v1,v1,a1
   11dc0:	e0c3002c 	sc	v1,44(a2)
   11dc4:	106003e0 	beqz	v1,12d48 <ar6000_connect_event+0xbec>
   11dc8:	00451824 	and	v1,v0,a1
   11dcc:	00602821 	move	a1,v1
   11dd0:	14a000b4 	bnez	a1,120a4 <ar6000_tx_complete+0x4e8>
   11dd4:	3c020000 	lui	v0,0x0
			11dd4: R_MIPS_HI16	__netif_schedule
   11dd8:	16200075 	bnez	s1,11fb0 <ar6000_tx_complete+0x3f4>
   11ddc:	8fbf003c 	lw	ra,60(sp)
   11de0:	8fbe0038 	lw	s8,56(sp)
   11de4:	8fb70034 	lw	s7,52(sp)
   11de8:	8fb60030 	lw	s6,48(sp)
   11dec:	8fb5002c 	lw	s5,44(sp)
   11df0:	8fb40028 	lw	s4,40(sp)
   11df4:	8fb30024 	lw	s3,36(sp)
   11df8:	8fb20020 	lw	s2,32(sp)
   11dfc:	8fb1001c 	lw	s1,28(sp)
   11e00:	8fb00018 	lw	s0,24(sp)
   11e04:	03e00008 	jr	ra
   11e08:	27bd0040 	addiu	sp,sp,64
   11e0c:	1040ff99 	beqz	v0,11c74 <ar6000_tx_complete+0xb8>
   11e10:	3c020000 	lui	v0,0x0
			11e10: R_MIPS_HI16	local_bh_disable
   11e14:	3c040000 	lui	a0,0x0
			11e14: R_MIPS_HI16	$LC97
   11e18:	3c020000 	lui	v0,0x0
			11e18: R_MIPS_HI16	printk
   11e1c:	24420000 	addiu	v0,v0,0
			11e1c: R_MIPS_LO16	printk
   11e20:	0040f809 	jalr	v0
   11e24:	24840000 	addiu	a0,a0,0
			11e24: R_MIPS_LO16	$LC97
   11e28:	3c020000 	lui	v0,0x0
			11e28: R_MIPS_HI16	local_bh_disable
   11e2c:	24420000 	addiu	v0,v0,0
			11e2c: R_MIPS_LO16	local_bh_disable
   11e30:	0040f809 	jalr	v0
   11e34:	00000000 	nop
   11e38:	8f820014 	lw	v0,20(gp)
   11e3c:	24420001 	addiu	v0,v0,1
   11e40:	af820014 	sw	v0,20(gp)
   11e44:	00132880 	sll	a1,s3,0x2
   11e48:	00b21821 	addu	v1,a1,s2
   11e4c:	8c620008 	lw	v0,8(v1)
   11e50:	8e440540 	lw	a0,1344(s2)
   11e54:	2442ffff 	addiu	v0,v0,-1
   11e58:	1664ff93 	bne	s3,a0,11ca8 <ar6000_tx_complete+0xec>
   11e5c:	ac620008 	sw	v0,8(v1)
   11e60:	3c020000 	lui	v0,0x0
			11e60: R_MIPS_HI16	bypasswmi
   11e64:	8c430000 	lw	v1,0(v0)
			11e64: R_MIPS_LO16	bypasswmi
   11e68:	1460ff8f 	bnez	v1,11ca8 <ar6000_tx_complete+0xec>
   11e6c:	00000000 	nop
   11e70:	1664ff91 	bne	s3,a0,11cb8 <ar6000_tx_complete+0xfc>
   11e74:	00000000 	nop
   11e78:	080047e3 	j	11f8c <ar6000_tx_complete+0x3d0>
			11e78: R_MIPS_26	.text
   11e7c:	8e42055c 	lw	v0,1372(s2)
   11e80:	8ee20000 	lw	v0,0(s7)
			11e80: R_MIPS_LO16	debugdriver
   11e84:	28420002 	slti	v0,v0,2
   11e88:	14400005 	bnez	v0,11ea0 <ar6000_tx_complete+0x2e4>
   11e8c:	3c040000 	lui	a0,0x0
			11e8c: R_MIPS_HI16	$LC141
   11e90:	3c020000 	lui	v0,0x0
			11e90: R_MIPS_HI16	printk
   11e94:	24420000 	addiu	v0,v0,0
			11e94: R_MIPS_LO16	printk
   11e98:	0040f809 	jalr	v0
   11e9c:	24840000 	addiu	a0,a0,0
			11e9c: R_MIPS_LO16	$LC141
   11ea0:	8e4201e0 	lw	v0,480(s2)
   11ea4:	8e5001e8 	lw	s0,488(s2)
   11ea8:	24420001 	addiu	v0,v0,1
   11eac:	ae4201e0 	sw	v0,480(s2)
   11eb0:	3c020000 	lui	v0,0x0
			11eb0: R_MIPS_HI16	a_netbuf_to_len
   11eb4:	24420000 	addiu	v0,v0,0
			11eb4: R_MIPS_LO16	a_netbuf_to_len
   11eb8:	0040f809 	jalr	v0
   11ebc:	02802021 	move	a0,s4
   11ec0:	9243009d 	lbu	v1,157(s2)
   11ec4:	02028021 	addu	s0,s0,v0
   11ec8:	24020002 	li	v0,2
   11ecc:	1462ff88 	bne	v1,v0,11cf0 <ar6000_tx_complete+0x134>
   11ed0:	ae5001e8 	sw	s0,488(s2)
   11ed4:	924204c8 	lbu	v0,1224(s2)
   11ed8:	1040ff85 	beqz	v0,11cf0 <ar6000_tx_complete+0x134>
   11edc:	00000000 	nop
   11ee0:	8e420540 	lw	v0,1344(s2)
   11ee4:	1262ff82 	beq	s3,v0,11cf0 <ar6000_tx_complete+0x134>
   11ee8:	00000000 	nop
   11eec:	13c0ff80 	beqz	s8,11cf0 <ar6000_tx_complete+0x134>
   11ef0:	00000000 	nop
   11ef4:	27c5ffff 	addiu	a1,s8,-1
   11ef8:	000510c0 	sll	v0,a1,0x3
   11efc:	00521021 	addu	v0,v0,s2
   11f00:	90430457 	lbu	v1,1111(v0)
   11f04:	2463ffff 	addiu	v1,v1,-1
   11f08:	306400ff 	andi	a0,v1,0xff
   11f0c:	1480ff78 	bnez	a0,11cf0 <ar6000_tx_complete+0x134>
   11f10:	a0430457 	sb	v1,1111(v0)
   11f14:	924404c9 	lbu	a0,1225(s2)
   11f18:	2482ffff 	addiu	v0,a0,-1
   11f1c:	14a2ff74 	bne	a1,v0,11cf0 <ar6000_tx_complete+0x134>
   11f20:	00000000 	nop
   11f24:	1080ff72 	beqz	a0,11cf0 <ar6000_tx_complete+0x134>
   11f28:	00801021 	move	v0,a0
   11f2c:	00a08021 	move	s0,a1
   11f30:	080047d5 	j	11f54 <ar6000_tx_complete+0x398>
			11f30: R_MIPS_26	.text
   11f34:	3c130000 	lui	s3,0x0
			11f34: R_MIPS_HI16	memset
   11f38:	2605ffff 	addiu	a1,s0,-1
   11f3c:	000510c0 	sll	v0,a1,0x3
   11f40:	00521021 	addu	v0,v0,s2
   11f44:	90430457 	lbu	v1,1111(v0)
   11f48:	1460ff69 	bnez	v1,11cf0 <ar6000_tx_complete+0x134>
   11f4c:	02001021 	move	v0,s0
   11f50:	00a08021 	move	s0,a1
   11f54:	000220c0 	sll	a0,v0,0x3
   11f58:	00922021 	addu	a0,a0,s2
   11f5c:	24840448 	addiu	a0,a0,1096
   11f60:	00002821 	move	a1,zero
   11f64:	26620000 	addiu	v0,s3,0
			11f64: R_MIPS_LO16	memset
   11f68:	0040f809 	jalr	v0
   11f6c:	24060008 	li	a2,8
   11f70:	924304c9 	lbu	v1,1225(s2)
   11f74:	2463ffff 	addiu	v1,v1,-1
   11f78:	1600ffef 	bnez	s0,11f38 <ar6000_tx_complete+0x37c>
   11f7c:	a24304c9 	sb	v1,1225(s2)
   11f80:	0800473d 	j	11cf4 <ar6000_tx_complete+0x138>
			11f80: R_MIPS_26	.text
   11f84:	8e430038 	lw	v1,56(s2)
   11f88:	8e42055c 	lw	v0,1372(s2)
   11f8c:	1440004a 	bnez	v0,120b8 <ar6000_tx_complete+0x4fc>
   11f90:	00b21021 	addu	v0,a1,s2
   11f94:	8c430008 	lw	v1,8(v0)
   11f98:	1460ff47 	bnez	v1,11cb8 <ar6000_tx_complete+0xfc>
   11f9c:	00000000 	nop
   11fa0:	12c0ffb7 	beqz	s6,11e80 <ar6000_tx_complete+0x2c4>
   11fa4:	24110001 	li	s1,1
   11fa8:	08004731 	j	11cc4 <ar6000_tx_complete+0x108>
			11fa8: R_MIPS_26	.text
   11fac:	8e4201f0 	lw	v0,496(s2)
   11fb0:	3c040000 	lui	a0,0x0
			11fb0: R_MIPS_HI16	arEvent
   11fb4:	3c190000 	lui	t9,0x0
			11fb4: R_MIPS_HI16	__wake_up
   11fb8:	8fbe0038 	lw	s8,56(sp)
   11fbc:	8fb70034 	lw	s7,52(sp)
   11fc0:	8fb60030 	lw	s6,48(sp)
   11fc4:	8fb5002c 	lw	s5,44(sp)
   11fc8:	8fb40028 	lw	s4,40(sp)
   11fcc:	8fb30024 	lw	s3,36(sp)
   11fd0:	8fb20020 	lw	s2,32(sp)
   11fd4:	8fb1001c 	lw	s1,28(sp)
   11fd8:	8fb00018 	lw	s0,24(sp)
   11fdc:	24840000 	addiu	a0,a0,0
			11fdc: R_MIPS_LO16	arEvent
   11fe0:	24050003 	li	a1,3
   11fe4:	24060001 	li	a2,1
   11fe8:	00003821 	move	a3,zero
   11fec:	27390000 	addiu	t9,t9,0
			11fec: R_MIPS_LO16	__wake_up
   11ff0:	03200008 	jr	t9
   11ff4:	27bd0040 	addiu	sp,sp,64
   11ff8:	8e300018 	lw	s0,24(s1)
   11ffc:	24420000 	addiu	v0,v0,0
			11ffc: R_MIPS_LO16	a_netbuf_to_len
   12000:	0040f809 	jalr	v0
   12004:	02802021 	move	a0,s4
   12008:	1202ff09 	beq	s0,v0,11c30 <ar6000_tx_complete+0x74>
   1200c:	3c170000 	lui	s7,0x0
			1200c: R_MIPS_HI16	debugdriver
   12010:	3c040000 	lui	a0,0x0
			12010: R_MIPS_HI16	$LC193
   12014:	3c020000 	lui	v0,0x0
			12014: R_MIPS_HI16	printk
   12018:	24840000 	addiu	a0,a0,0
			12018: R_MIPS_LO16	$LC193
   1201c:	24420000 	addiu	v0,v0,0
			1201c: R_MIPS_LO16	printk
   12020:	0040f809 	jalr	v0
   12024:	24050a13 	li	a1,2579
   12028:	3c040000 	lui	a0,0x0
			12028: R_MIPS_HI16	$LC194
   1202c:	3c020000 	lui	v0,0x0
			1202c: R_MIPS_HI16	panic
   12030:	24420000 	addiu	v0,v0,0
			12030: R_MIPS_LO16	panic
   12034:	0040f809 	jalr	v0
   12038:	24840000 	addiu	a0,a0,0
			12038: R_MIPS_LO16	$LC194
   1203c:	40046000 	mfc0	a0,c0_status
   12040:	3481001f 	ori	at,a0,0x1f
   12044:	3821001f 	xori	at,at,0x1f
   12048:	40816000 	mtc0	at,c0_status
   1204c:	00000040 	ssnop
   12050:	00000040 	ssnop
   12054:	00000040 	ssnop
   12058:	000000c0 	sll	zero,zero,0x3
   1205c:	8cc5002c 	lw	a1,44(a2)
   12060:	8cc2002c 	lw	v0,44(a2)
   12064:	2403fffe 	li	v1,-2
   12068:	00431024 	and	v0,v0,v1
   1206c:	acc2002c 	sw	v0,44(a2)
   12070:	30a50001 	andi	a1,a1,0x1
   12074:	40016000 	mfc0	at,c0_status
   12078:	30840001 	andi	a0,a0,0x1
   1207c:	3421001f 	ori	at,at,0x1f
   12080:	3821001f 	xori	at,at,0x1f
   12084:	00812025 	or	a0,a0,at
   12088:	40846000 	mtc0	a0,c0_status
   1208c:	00000040 	ssnop
   12090:	00000040 	ssnop
   12094:	00000040 	ssnop
   12098:	000000c0 	sll	zero,zero,0x3
   1209c:	10a0ff4e 	beqz	a1,11dd8 <ar6000_tx_complete+0x21c>
   120a0:	3c020000 	lui	v0,0x0
			120a0: R_MIPS_HI16	__netif_schedule
   120a4:	24420000 	addiu	v0,v0,0
			120a4: R_MIPS_LO16	__netif_schedule
   120a8:	0040f809 	jalr	v0
   120ac:	00c02021 	move	a0,a2
   120b0:	08004776 	j	11dd8 <ar6000_tx_complete+0x21c>
			120b0: R_MIPS_26	.text
   120b4:	00000000 	nop
   120b8:	8c430008 	lw	v1,8(v0)
   120bc:	1460fefe 	bnez	v1,11cb8 <ar6000_tx_complete+0xfc>
   120c0:	ae40055c 	sw	zero,1372(s2)
   120c4:	080047e8 	j	11fa0 <ar6000_tx_complete+0x3e4>
			120c4: R_MIPS_26	.text
   120c8:	00000000 	nop
   120cc:	3c020000 	lui	v0,0x0
			120cc: R_MIPS_HI16	printk
   120d0:	24420000 	addiu	v0,v0,0
			120d0: R_MIPS_LO16	printk
   120d4:	0040f809 	jalr	v0
   120d8:	24840000 	addiu	a0,a0,0
			120d8: R_MIPS_LO16	$LC99
   120dc:	08004752 	j	11d48 <ar6000_tx_complete+0x18c>
			120dc: R_MIPS_26	.text
   120e0:	00000000 	nop
   120e4:	3c050000 	lui	a1,0x0
			120e4: R_MIPS_HI16	.rodata
   120e8:	3c020000 	lui	v0,0x0
			120e8: R_MIPS_HI16	printk
   120ec:	24840000 	addiu	a0,a0,0
			120ec: R_MIPS_LO16	$LC196
   120f0:	24a50138 	addiu	a1,a1,312
			120f0: R_MIPS_LO16	.rodata
   120f4:	24420000 	addiu	v0,v0,0
			120f4: R_MIPS_LO16	printk
   120f8:	0040f809 	jalr	v0
   120fc:	02c03021 	move	a2,s6
   12100:	08004739 	j	11ce4 <ar6000_tx_complete+0x128>
			12100: R_MIPS_26	.text
   12104:	9243009d 	lbu	v1,157(s2)
   12108:	3c040000 	lui	a0,0x0
			12108: R_MIPS_HI16	$LC189
   1210c:	3c020000 	lui	v0,0x0
			1210c: R_MIPS_HI16	printk
   12110:	24840000 	addiu	a0,a0,0
			12110: R_MIPS_LO16	$LC189
   12114:	24420000 	addiu	v0,v0,0
			12114: R_MIPS_LO16	printk
   12118:	0040f809 	jalr	v0
   1211c:	24050a0f 	li	a1,2575
   12120:	3c040000 	lui	a0,0x0
			12120: R_MIPS_HI16	$LC190
   12124:	3c020000 	lui	v0,0x0
			12124: R_MIPS_HI16	panic
   12128:	24420000 	addiu	v0,v0,0
			12128: R_MIPS_LO16	panic
   1212c:	0040f809 	jalr	v0
   12130:	24840000 	addiu	a0,a0,0
			12130: R_MIPS_LO16	$LC190
   12134:	3c040000 	lui	a0,0x0
			12134: R_MIPS_HI16	$LC191
   12138:	24840000 	addiu	a0,a0,0
			12138: R_MIPS_LO16	$LC191
   1213c:	24420000 	addiu	v0,v0,0
			1213c: R_MIPS_LO16	printk
   12140:	0040f809 	jalr	v0
   12144:	24050a10 	li	a1,2576
   12148:	3c040000 	lui	a0,0x0
			12148: R_MIPS_HI16	$LC192
   1214c:	3c020000 	lui	v0,0x0
			1214c: R_MIPS_HI16	panic
   12150:	24420000 	addiu	v0,v0,0
			12150: R_MIPS_LO16	panic
   12154:	0040f809 	jalr	v0
   12158:	24840000 	addiu	a0,a0,0
			12158: R_MIPS_LO16	$LC192

0001215c <ar6000_connect_event>:
   1215c:	3c020000 	lui	v0,0x0
			1215c: R_MIPS_HI16	.rodata
   12160:	27bdff80 	addiu	sp,sp,-128
   12164:	8c4200fc 	lw	v0,252(v0)
			12164: R_MIPS_LO16	.rodata
   12168:	afbe0078 	sw	s8,120(sp)
   1216c:	afb70074 	sw	s7,116(sp)
   12170:	03a0f021 	move	s8,sp
   12174:	afb40068 	sw	s4,104(sp)
   12178:	afb20060 	sw	s2,96(sp)
   1217c:	afb00058 	sw	s0,88(sp)
   12180:	afbf007c 	sw	ra,124(sp)
   12184:	afb60070 	sw	s6,112(sp)
   12188:	afb5006c 	sw	s5,108(sp)
   1218c:	afb30064 	sw	s3,100(sp)
   12190:	afb1005c 	sw	s1,92(sp)
   12194:	3c030000 	lui	v1,0x0
			12194: R_MIPS_HI16	strlen
   12198:	afc2004c 	sw	v0,76(s8)
   1219c:	93c8009c 	lbu	t0,156(s8)
   121a0:	24620000 	addiu	v0,v1,0
			121a0: R_MIPS_LO16	strlen
   121a4:	93c300a0 	lbu	v1,160(s8)
   121a8:	0080a021 	move	s4,a0
   121ac:	8fc4004c 	lw	a0,76(s8)
   121b0:	afc30054 	sw	v1,84(s8)
   121b4:	afc60088 	sw	a2,136(s8)
   121b8:	afc80050 	sw	t0,80(s8)
   121bc:	30b0ffff 	andi	s0,a1,0xffff
   121c0:	30f2ffff 	andi	s2,a3,0xffff
   121c4:	8fd30094 	lw	s3,148(s8)
   121c8:	97d10090 	lhu	s1,144(s8)
   121cc:	0040f809 	jalr	v0
   121d0:	93d50098 	lbu	s5,152(s8)
   121d4:	2443020f 	addiu	v1,v0,527
   121d8:	9284009d 	lbu	a0,157(s4)
   121dc:	000318c2 	srl	v1,v1,0x3
   121e0:	000318c0 	sll	v1,v1,0x3
   121e4:	afdd0040 	sw	sp,64(s8)
   121e8:	24420201 	addiu	v0,v0,513
   121ec:	03a3e823 	subu	sp,sp,v1
   121f0:	30840010 	andi	a0,a0,0x10
   121f4:	afc20048 	sw	v0,72(s8)
   121f8:	148000d9 	bnez	a0,12560 <ar6000_connect_event+0x404>
   121fc:	27b70030 	addiu	s7,sp,48
   12200:	8e82003c 	lw	v0,60(s4)
   12204:	14400008 	bnez	v0,12228 <ar6000_connect_event+0xcc>
   12208:	3c030000 	lui	v1,0x0
			12208: R_MIPS_HI16	memcpy
   1220c:	9283009f 	lbu	v1,159(s4)
   12210:	24020003 	li	v0,3
   12214:	106201b6 	beq	v1,v0,128f0 <ar6000_connect_event+0x794>
   12218:	24020005 	li	v0,5
   1221c:	106201b5 	beq	v1,v0,128f4 <ar6000_connect_event+0x798>
   12220:	3c020000 	lui	v0,0x0
			12220: R_MIPS_HI16	jiffies
   12224:	3c030000 	lui	v1,0x0
			12224: R_MIPS_HI16	memcpy
   12228:	8fc50088 	lw	a1,136(s8)
   1222c:	24060006 	li	a2,6
   12230:	24620000 	addiu	v0,v1,0
			12230: R_MIPS_LO16	memcpy
   12234:	0040f809 	jalr	v0
   12238:	268401ad 	addiu	a0,s4,429
   1223c:	3c080000 	lui	t0,0x0
			1223c: R_MIPS_HI16	printk
   12240:	3c040000 	lui	a0,0x0
			12240: R_MIPS_HI16	$LC198
   12244:	02002821 	move	a1,s0
   12248:	a69001bc 	sh	s0,444(s4)
   1224c:	25100000 	addiu	s0,t0,0
			1224c: R_MIPS_LO16	printk
   12250:	0200f809 	jalr	s0
   12254:	24840000 	addiu	a0,a0,0
			12254: R_MIPS_LO16	$LC198
   12258:	8fc20088 	lw	v0,136(s8)
   1225c:	8fc40088 	lw	a0,136(s8)
   12260:	90450000 	lbu	a1,0(v0)
   12264:	90830004 	lbu	v1,4(a0)
   12268:	90460001 	lbu	a2,1(v0)
   1226c:	90470002 	lbu	a3,2(v0)
   12270:	90840005 	lbu	a0,5(a0)
   12274:	90420003 	lbu	v0,3(v0)
   12278:	afa30014 	sw	v1,20(sp)
   1227c:	afa40018 	sw	a0,24(sp)
   12280:	afa20010 	sw	v0,16(sp)
   12284:	afb2001c 	sw	s2,28(sp)
   12288:	afb10020 	sw	s1,32(sp)
   1228c:	afb50024 	sw	s5,36(sp)
   12290:	8fc80050 	lw	t0,80(s8)
   12294:	32630002 	andi	v1,s3,0x2
   12298:	afa80028 	sw	t0,40(sp)
   1229c:	8fc20054 	lw	v0,84(s8)
   122a0:	3c040000 	lui	a0,0x0
			122a0: R_MIPS_HI16	$LC199
   122a4:	afa2002c 	sw	v0,44(sp)
   122a8:	24840000 	addiu	a0,a0,0
			122a8: R_MIPS_LO16	$LC199
   122ac:	0200f809 	jalr	s0
   122b0:	afc30044 	sw	v1,68(s8)
   122b4:	8fc40044 	lw	a0,68(s8)
   122b8:	10800085 	beqz	a0,124d0 <ar6000_connect_event+0x374>
   122bc:	32620004 	andi	v0,s3,0x4
   122c0:	104000ea 	beqz	v0,1266c <ar6000_connect_event+0x510>
   122c4:	00000000 	nop
   122c8:	3c040000 	lui	a0,0x0
			122c8: R_MIPS_HI16	$LC200
   122cc:	0200f809 	jalr	s0
   122d0:	24840000 	addiu	a0,a0,0
			122d0: R_MIPS_LO16	$LC200
   122d4:	12a00008 	beqz	s5,122f8 <ar6000_connect_event+0x19c>
   122d8:	8fc20054 	lw	v0,84(s8)
   122dc:	00151040 	sll	v0,s5,0x1
   122e0:	8fc80048 	lw	t0,72(s8)
   122e4:	24420009 	addiu	v0,v0,9
   122e8:	0048102b 	sltu	v0,v0,t0
   122ec:	1440011a 	bnez	v0,12758 <ar6000_connect_event+0x5fc>
   122f0:	3c030000 	lui	v1,0x0
			122f0: R_MIPS_HI16	debugdriver
   122f4:	8fc20054 	lw	v0,84(s8)
   122f8:	10400006 	beqz	v0,12314 <ar6000_connect_event+0x1b8>
   122fc:	00021040 	sll	v0,v0,0x1
   12300:	8fc30048 	lw	v1,72(s8)
   12304:	2442000c 	addiu	v0,v0,12
   12308:	0043102b 	sltu	v0,v0,v1
   1230c:	144001ca 	bnez	v0,12a38 <ar6000_connect_event+0x8dc>
   12310:	3c080000 	lui	t0,0x0
			12310: R_MIPS_HI16	memset
   12314:	8fc20050 	lw	v0,80(s8)
   12318:	10400006 	beqz	v0,12334 <ar6000_connect_event+0x1d8>
   1231c:	00021040 	sll	v0,v0,0x1
   12320:	8fc30048 	lw	v1,72(s8)
   12324:	24420011 	addiu	v0,v0,17
   12328:	0043102b 	sltu	v0,v0,v1
   1232c:	14400179 	bnez	v0,12914 <ar6000_connect_event+0x7b8>
   12330:	3c080000 	lui	t0,0x0
			12330: R_MIPS_HI16	memset
   12334:	8e830b4c 	lw	v1,2892(s4)
   12338:	24020001 	li	v0,1
   1233c:	106200d0 	beq	v1,v0,12680 <ar6000_connect_event+0x524>
   12340:	00000000 	nop
   12344:	8e860000 	lw	a2,0(s4)
   12348:	3c020000 	lui	v0,0x0
			12348: R_MIPS_HI16	cpu_data
   1234c:	8c430008 	lw	v1,8(v0)
			1234c: R_MIPS_LO16	cpu_data
   12350:	3c040001 	lui	a0,0x1
   12354:	00641824 	and	v1,v1,a0
   12358:	10600062 	beqz	v1,124e4 <ar6000_connect_event+0x388>
   1235c:	24020001 	li	v0,1
   12360:	c0c3002c 	ll	v1,44(a2)
   12364:	00622825 	or	a1,v1,v0
   12368:	00a22826 	xor	a1,a1,v0
   1236c:	e0c5002c 	sc	a1,44(a2)
   12370:	10a00277 	beqz	a1,12d50 <ar6000_connect_event+0xbf4>
   12374:	00622824 	and	a1,v1,v0
   12378:	14a00074 	bnez	a1,1254c <ar6000_connect_event+0x3f0>
   1237c:	3c020000 	lui	v0,0x0
			1237c: R_MIPS_HI16	__netif_schedule
   12380:	8fc20044 	lw	v0,68(s8)
   12384:	10400006 	beqz	v0,123a0 <ar6000_connect_event+0x244>
   12388:	3c03ffff 	lui	v1,0xffff
   1238c:	8e82009c 	lw	v0,156(s4)
   12390:	00431024 	and	v0,v0,v1
   12394:	3c040101 	lui	a0,0x101
   12398:	104401f4 	beq	v0,a0,12b6c <ar6000_connect_event+0xa10>
   1239c:	24020002 	li	v0,2
   123a0:	40106000 	mfc0	s0,c0_status
   123a4:	3601001f 	ori	at,s0,0x1f
   123a8:	3821001f 	xori	at,at,0x1f
   123ac:	40816000 	mtc0	at,c0_status
   123b0:	00000040 	ssnop
   123b4:	00000040 	ssnop
   123b8:	00000040 	ssnop
   123bc:	000000c0 	sll	zero,zero,0x3
   123c0:	8f820014 	lw	v0,20(gp)
   123c4:	24420001 	addiu	v0,v0,1
   123c8:	af820014 	sw	v0,20(gp)
   123cc:	24020001 	li	v0,1
   123d0:	ae82003c 	sw	v0,60(s4)
   123d4:	8e840000 	lw	a0,0(s4)
   123d8:	3c020000 	lui	v0,0x0
			123d8: R_MIPS_HI16	netif_carrier_on
   123dc:	24420000 	addiu	v0,v0,0
			123dc: R_MIPS_LO16	netif_carrier_on
   123e0:	0040f809 	jalr	v0
   123e4:	ae8004d8 	sw	zero,1240(s4)
   123e8:	40016000 	mfc0	at,c0_status
   123ec:	32100001 	andi	s0,s0,0x1
   123f0:	3421001f 	ori	at,at,0x1f
   123f4:	3821001f 	xori	at,at,0x1f
   123f8:	02018025 	or	s0,s0,at
   123fc:	40906000 	mtc0	s0,c0_status
   12400:	00000040 	ssnop
   12404:	00000040 	ssnop
   12408:	00000040 	ssnop
   1240c:	000000c0 	sll	zero,zero,0x3
   12410:	8f830014 	lw	v1,20(gp)
   12414:	2463ffff 	addiu	v1,v1,-1
   12418:	af830014 	sw	v1,20(gp)
   1241c:	8f830008 	lw	v1,8(gp)
   12420:	30630004 	andi	v1,v1,0x4
   12424:	1460022b 	bnez	v1,12cd4 <ar6000_connect_event+0xb78>
   12428:	3c020000 	lui	v0,0x0
			12428: R_MIPS_HI16	preempt_schedule
   1242c:	3c030000 	lui	v1,0x0
			1242c: R_MIPS_HI16	memset
   12430:	3c020000 	lui	v0,0x0
			12430: R_MIPS_HI16	reconnect_flag
   12434:	24710000 	addiu	s1,v1,0
			12434: R_MIPS_LO16	memset
   12438:	27c40030 	addiu	a0,s8,48
   1243c:	00002821 	move	a1,zero
   12440:	24060010 	li	a2,16
   12444:	0220f809 	jalr	s1
   12448:	ac400000 	sw	zero,0(v0)
			12448: R_MIPS_LO16	reconnect_flag
   1244c:	8fc50088 	lw	a1,136(s8)
   12450:	3c040000 	lui	a0,0x0
			12450: R_MIPS_HI16	memcpy
   12454:	24820000 	addiu	v0,a0,0
			12454: R_MIPS_LO16	memcpy
   12458:	24060006 	li	a2,6
   1245c:	0040f809 	jalr	v0
   12460:	27c40032 	addiu	a0,s8,50
   12464:	24020001 	li	v0,1
   12468:	8e840000 	lw	a0,0(s4)
   1246c:	3c080000 	lui	t0,0x0
			1246c: R_MIPS_HI16	wireless_send_event
   12470:	a7c20030 	sh	v0,48(s8)
   12474:	27c60030 	addiu	a2,s8,48
   12478:	25030000 	addiu	v1,t0,0
			12478: R_MIPS_LO16	wireless_send_event
   1247c:	34058b15 	li	a1,0x8b15
   12480:	0060f809 	jalr	v1
   12484:	00003821 	move	a3,zero
   12488:	9290009d 	lbu	s0,157(s4)
   1248c:	24020002 	li	v0,2
   12490:	120200a8 	beq	s0,v0,12734 <ar6000_connect_event+0x5d8>
   12494:	00000000 	nop
   12498:	8fdd0040 	lw	sp,64(s8)
   1249c:	03c0e821 	move	sp,s8
   124a0:	8fbf007c 	lw	ra,124(sp)
   124a4:	8fbe0078 	lw	s8,120(sp)
   124a8:	8fb70074 	lw	s7,116(sp)
   124ac:	8fb60070 	lw	s6,112(sp)
   124b0:	8fb5006c 	lw	s5,108(sp)
   124b4:	8fb40068 	lw	s4,104(sp)
   124b8:	8fb30064 	lw	s3,100(sp)
   124bc:	8fb20060 	lw	s2,96(sp)
   124c0:	8fb1005c 	lw	s1,92(sp)
   124c4:	8fb00058 	lw	s0,88(sp)
   124c8:	03e00008 	jr	ra
   124cc:	27bd0080 	addiu	sp,sp,128
   124d0:	3c040000 	lui	a0,0x0
			124d0: R_MIPS_HI16	$LC202
   124d4:	0200f809 	jalr	s0
   124d8:	24840000 	addiu	a0,a0,0
			124d8: R_MIPS_LO16	$LC202
   124dc:	080048b5 	j	122d4 <ar6000_connect_event+0x178>
			124dc: R_MIPS_26	.text
   124e0:	00000000 	nop
   124e4:	40046000 	mfc0	a0,c0_status
   124e8:	3481001f 	ori	at,a0,0x1f
   124ec:	3821001f 	xori	at,at,0x1f
   124f0:	40816000 	mtc0	at,c0_status
   124f4:	00000040 	ssnop
   124f8:	00000040 	ssnop
   124fc:	00000040 	ssnop
   12500:	000000c0 	sll	zero,zero,0x3
   12504:	8cc5002c 	lw	a1,44(a2)
   12508:	8cc2002c 	lw	v0,44(a2)
   1250c:	2403fffe 	li	v1,-2
   12510:	00431024 	and	v0,v0,v1
   12514:	acc2002c 	sw	v0,44(a2)
   12518:	30a50001 	andi	a1,a1,0x1
   1251c:	40016000 	mfc0	at,c0_status
   12520:	30840001 	andi	a0,a0,0x1
   12524:	3421001f 	ori	at,at,0x1f
   12528:	3821001f 	xori	at,at,0x1f
   1252c:	00812025 	or	a0,a0,at
   12530:	40846000 	mtc0	a0,c0_status
   12534:	00000040 	ssnop
   12538:	00000040 	ssnop
   1253c:	00000040 	ssnop
   12540:	000000c0 	sll	zero,zero,0x3
   12544:	10a0ff8e 	beqz	a1,12380 <ar6000_connect_event+0x224>
   12548:	3c020000 	lui	v0,0x0
			12548: R_MIPS_HI16	__netif_schedule
   1254c:	24420000 	addiu	v0,v0,0
			1254c: R_MIPS_LO16	__netif_schedule
   12550:	0040f809 	jalr	v0
   12554:	00c02021 	move	a0,a2
   12558:	080048e1 	j	12384 <ar6000_connect_event+0x228>
			12558: R_MIPS_26	.text
   1255c:	8fc20044 	lw	v0,68(s8)
   12560:	8fc40088 	lw	a0,136(s8)
   12564:	90830004 	lbu	v1,4(a0)
   12568:	90850000 	lbu	a1,0(a0)
   1256c:	90860001 	lbu	a2,1(a0)
   12570:	90870002 	lbu	a3,2(a0)
   12574:	90820003 	lbu	v0,3(a0)
   12578:	90840005 	lbu	a0,5(a0)
   1257c:	afa30014 	sw	v1,20(sp)
   12580:	afa20010 	sw	v0,16(sp)
   12584:	afa40018 	sw	a0,24(sp)
   12588:	afb0001c 	sw	s0,28(sp)
   1258c:	8fc80054 	lw	t0,84(s8)
   12590:	3c040000 	lui	a0,0x0
			12590: R_MIPS_HI16	$LC197
   12594:	3c020000 	lui	v0,0x0
			12594: R_MIPS_HI16	printk
   12598:	afa80020 	sw	t0,32(sp)
   1259c:	24420000 	addiu	v0,v0,0
			1259c: R_MIPS_LO16	printk
   125a0:	0040f809 	jalr	v0
   125a4:	24840000 	addiu	a0,a0,0
			125a4: R_MIPS_LO16	$LC197
   125a8:	8fc20054 	lw	v0,84(s8)
   125ac:	02003021 	move	a2,s0
   125b0:	afa20010 	sw	v0,16(sp)
   125b4:	8fc700a4 	lw	a3,164(s8)
   125b8:	8fc50088 	lw	a1,136(s8)
   125bc:	3c020000 	lui	v0,0x0
			125bc: R_MIPS_HI16	add_new_sta
   125c0:	24420000 	addiu	v0,v0,0
			125c0: R_MIPS_LO16	add_new_sta
   125c4:	0040f809 	jalr	v0
   125c8:	02802021 	move	a0,s4
   125cc:	27d00030 	addiu	s0,s8,48
   125d0:	3c020000 	lui	v0,0x0
			125d0: R_MIPS_HI16	memset
   125d4:	02002021 	move	a0,s0
   125d8:	00002821 	move	a1,zero
   125dc:	24420000 	addiu	v0,v0,0
			125dc: R_MIPS_LO16	memset
   125e0:	0040f809 	jalr	v0
   125e4:	24060010 	li	a2,16
   125e8:	8fc50088 	lw	a1,136(s8)
   125ec:	3c020000 	lui	v0,0x0
			125ec: R_MIPS_HI16	memcpy
   125f0:	27c40032 	addiu	a0,s8,50
   125f4:	24420000 	addiu	v0,v0,0
			125f4: R_MIPS_LO16	memcpy
   125f8:	0040f809 	jalr	v0
   125fc:	24060006 	li	a2,6
   12600:	8e840000 	lw	a0,0(s4)
   12604:	3c020000 	lui	v0,0x0
			12604: R_MIPS_HI16	wireless_send_event
   12608:	02003021 	move	a2,s0
   1260c:	34058c03 	li	a1,0x8c03
   12610:	24420000 	addiu	v0,v0,0
			12610: R_MIPS_LO16	wireless_send_event
   12614:	0040f809 	jalr	v0
   12618:	00003821 	move	a3,zero
   1261c:	8e860000 	lw	a2,0(s4)
   12620:	3c030000 	lui	v1,0x0
			12620: R_MIPS_HI16	cpu_data
   12624:	8c620008 	lw	v0,8(v1)
			12624: R_MIPS_LO16	cpu_data
   12628:	3c040001 	lui	a0,0x1
   1262c:	00441024 	and	v0,v0,a0
   12630:	10400095 	beqz	v0,12888 <ar6000_connect_event+0x72c>
   12634:	24020001 	li	v0,1
   12638:	c0c3002c 	ll	v1,44(a2)
   1263c:	00622825 	or	a1,v1,v0
   12640:	00a22826 	xor	a1,a1,v0
   12644:	e0c5002c 	sc	a1,44(a2)
   12648:	10a001c3 	beqz	a1,12d58 <ar6000_connect_event+0xbfc>
   1264c:	00622824 	and	a1,v1,v0
   12650:	10a0ff91 	beqz	a1,12498 <ar6000_connect_event+0x33c>
   12654:	3c020000 	lui	v0,0x0
			12654: R_MIPS_HI16	__netif_schedule
   12658:	24420000 	addiu	v0,v0,0
			12658: R_MIPS_LO16	__netif_schedule
   1265c:	0040f809 	jalr	v0
   12660:	00c02021 	move	a0,a2
   12664:	08004927 	j	1249c <ar6000_connect_event+0x340>
			12664: R_MIPS_26	.text
   12668:	8fdd0040 	lw	sp,64(s8)
   1266c:	3c040000 	lui	a0,0x0
			1266c: R_MIPS_HI16	$LC201
   12670:	0200f809 	jalr	s0
   12674:	24840000 	addiu	a0,a0,0
			12674: R_MIPS_LO16	$LC201
   12678:	080048b5 	j	122d4 <ar6000_connect_event+0x178>
			12678: R_MIPS_26	.text
   1267c:	00000000 	nop
   12680:	8e870bdc 	lw	a3,3036(s4)
   12684:	14e3ff2f 	bne	a3,v1,12344 <ar6000_connect_event+0x1e8>
   12688:	24030002 	li	v1,2
   1268c:	8e820b50 	lw	v0,2896(s4)
   12690:	30420002 	andi	v0,v0,0x2
   12694:	00009021 	move	s2,zero
   12698:	92840b58 	lbu	a0,2904(s4)
   1269c:	0062900a 	movz	s2,v1,v0
   126a0:	24020006 	li	v0,6
   126a4:	26830b58 	addiu	v1,s4,2904
   126a8:	26900b98 	addiu	s0,s4,2968
   126ac:	10820182 	beq	a0,v0,12cb8 <ar6000_connect_event+0xb5c>
   126b0:	8e910bd8 	lw	s1,3032(s4)
   126b4:	1227001c 	beq	s1,a3,12728 <ar6000_connect_event+0x5cc>
   126b8:	00000000 	nop
   126bc:	90680004 	lbu	t0,4(v1)
   126c0:	1500016c 	bnez	t0,12c74 <ar6000_connect_event+0xb18>
   126c4:	26820b68 	addiu	v0,s4,2920
   126c8:	92030000 	lbu	v1,0(s0)
   126cc:	24020006 	li	v0,6
   126d0:	10620185 	beq	v1,v0,12ce8 <ar6000_connect_event+0xb8c>
   126d4:	24020001 	li	v0,1
   126d8:	12220013 	beq	s1,v0,12728 <ar6000_connect_event+0x5cc>
   126dc:	00000000 	nop
   126e0:	92080004 	lbu	t0,4(s0)
   126e4:	11000010 	beqz	t0,12728 <ar6000_connect_event+0x5cc>
   126e8:	26020010 	addiu	v0,s0,16
   126ec:	92050002 	lbu	a1,2(s0)
   126f0:	8e840004 	lw	a0,4(s4)
   126f4:	8e860bd8 	lw	a2,3032(s4)
   126f8:	26070006 	addiu	a3,s0,6
   126fc:	26030020 	addiu	v1,s0,32
   12700:	afa20014 	sw	v0,20(sp)
   12704:	3c020000 	lui	v0,0x0
			12704: R_MIPS_HI16	wmi_addKey_cmd
   12708:	afa70020 	sw	a3,32(sp)
   1270c:	afa80010 	sw	t0,16(sp)
   12710:	afa30018 	sw	v1,24(sp)
   12714:	afb2001c 	sw	s2,28(sp)
   12718:	afa00024 	sw	zero,36(sp)
   1271c:	24420000 	addiu	v0,v0,0
			1271c: R_MIPS_LO16	wmi_addKey_cmd
   12720:	0040f809 	jalr	v0
   12724:	24070001 	li	a3,1
   12728:	ae800b4c 	sw	zero,2892(s4)
   1272c:	080048d1 	j	12344 <ar6000_connect_event+0x1e8>
			1272c: R_MIPS_26	.text
   12730:	ae800b50 	sw	zero,2896(s4)
   12734:	928204c8 	lbu	v0,1224(s4)
   12738:	1040ff57 	beqz	v0,12498 <ar6000_connect_event+0x33c>
   1273c:	26840450 	addiu	a0,s4,1104
   12740:	00002821 	move	a1,zero
   12744:	0220f809 	jalr	s1
   12748:	24060078 	li	a2,120
   1274c:	a29004ca 	sb	s0,1226(s4)
   12750:	08004926 	j	12498 <ar6000_connect_event+0x33c>
			12750: R_MIPS_26	.text
   12754:	a28004c9 	sb	zero,1225(s4)
   12758:	8c620000 	lw	v0,0(v1)
			12758: R_MIPS_LO16	debugdriver
   1275c:	1440011f 	bnez	v0,12bdc <ar6000_connect_event+0xa80>
   12760:	3c080000 	lui	t0,0x0
			12760: R_MIPS_HI16	printk
   12764:	3c030000 	lui	v1,0x0
			12764: R_MIPS_HI16	memset
   12768:	8fc60048 	lw	a2,72(s8)
   1276c:	02e02021 	move	a0,s7
   12770:	24620000 	addiu	v0,v1,0
			12770: R_MIPS_LO16	memset
   12774:	0040f809 	jalr	v0
   12778:	00002821 	move	a1,zero
   1277c:	3c030000 	lui	v1,0x0
			1277c: R_MIPS_HI16	.rodata
   12780:	3c020000 	lui	v0,0x0
			12780: R_MIPS_HI16	sprintf
   12784:	3c050000 	lui	a1,0x0
			12784: R_MIPS_HI16	$LC204
   12788:	8c6600f4 	lw	a2,244(v1)
			12788: R_MIPS_LO16	.rodata
   1278c:	24a50000 	addiu	a1,a1,0
			1278c: R_MIPS_LO16	$LC204
   12790:	24500000 	addiu	s0,v0,0
			12790: R_MIPS_LO16	sprintf
   12794:	0200f809 	jalr	s0
   12798:	02e02021 	move	a0,s7
   1279c:	1aa00023 	blez	s5,1282c <ar6000_connect_event+0x6d0>
   127a0:	3c030000 	lui	v1,0x0
			127a0: R_MIPS_HI16	debugdriver
   127a4:	0200b021 	move	s6,s0
   127a8:	8fd000a4 	lw	s0,164(s8)
   127ac:	26f10009 	addiu	s1,s7,9
   127b0:	00009021 	move	s2,zero
   127b4:	080049f8 	j	127e0 <ar6000_connect_event+0x684>
			127b4: R_MIPS_26	.text
   127b8:	3c130000 	lui	s3,0x0
			127b8: R_MIPS_HI16	$LC58
   127bc:	92060000 	lbu	a2,0(s0)
   127c0:	3c020000 	lui	v0,0x0
			127c0: R_MIPS_HI16	$LC5
   127c4:	02202021 	move	a0,s1
   127c8:	24450000 	addiu	a1,v0,0
			127c8: R_MIPS_LO16	$LC5
   127cc:	26310002 	addiu	s1,s1,2
   127d0:	02c0f809 	jalr	s6
   127d4:	26100001 	addiu	s0,s0,1
   127d8:	12b20014 	beq	s5,s2,1282c <ar6000_connect_event+0x6d0>
   127dc:	3c030000 	lui	v1,0x0
			127dc: R_MIPS_HI16	debugdriver
   127e0:	3c040000 	lui	a0,0x0
			127e0: R_MIPS_HI16	debugdriver
   127e4:	8c820000 	lw	v0,0(a0)
			127e4: R_MIPS_LO16	debugdriver
   127e8:	26520001 	addiu	s2,s2,1
   127ec:	1040fff3 	beqz	v0,127bc <ar6000_connect_event+0x660>
   127f0:	26640000 	addiu	a0,s3,0
			127f0: R_MIPS_LO16	$LC58
   127f4:	3c080000 	lui	t0,0x0
			127f4: R_MIPS_HI16	printk
   127f8:	25080000 	addiu	t0,t0,0
			127f8: R_MIPS_LO16	printk
   127fc:	0100f809 	jalr	t0
   12800:	92050000 	lbu	a1,0(s0)
   12804:	92060000 	lbu	a2,0(s0)
   12808:	3c020000 	lui	v0,0x0
			12808: R_MIPS_HI16	$LC5
   1280c:	02202021 	move	a0,s1
   12810:	24450000 	addiu	a1,v0,0
			12810: R_MIPS_LO16	$LC5
   12814:	26310002 	addiu	s1,s1,2
   12818:	02c0f809 	jalr	s6
   1281c:	26100001 	addiu	s0,s0,1
   12820:	16b2fff0 	bne	s5,s2,127e4 <ar6000_connect_event+0x688>
   12824:	3c040000 	lui	a0,0x0
			12824: R_MIPS_HI16	debugdriver
   12828:	3c030000 	lui	v1,0x0
			12828: R_MIPS_HI16	debugdriver
   1282c:	8c620000 	lw	v0,0(v1)
			1282c: R_MIPS_LO16	debugdriver
   12830:	144000f0 	bnez	v0,12bf4 <ar6000_connect_event+0xa98>
   12834:	3c080000 	lui	t0,0x0
			12834: R_MIPS_HI16	printk
   12838:	3c030000 	lui	v1,0x0
			12838: R_MIPS_HI16	memset
   1283c:	00002821 	move	a1,zero
   12840:	24060010 	li	a2,16
   12844:	24620000 	addiu	v0,v1,0
			12844: R_MIPS_LO16	memset
   12848:	0040f809 	jalr	v0
   1284c:	27c40030 	addiu	a0,s8,48
   12850:	3c080000 	lui	t0,0x0
			12850: R_MIPS_HI16	strlen
   12854:	25020000 	addiu	v0,t0,0
			12854: R_MIPS_LO16	strlen
   12858:	0040f809 	jalr	v0
   1285c:	02e02021 	move	a0,s7
   12860:	8e840000 	lw	a0,0(s4)
   12864:	3c080000 	lui	t0,0x0
			12864: R_MIPS_HI16	wireless_send_event
   12868:	34058c02 	li	a1,0x8c02
   1286c:	27c60030 	addiu	a2,s8,48
   12870:	02e03821 	move	a3,s7
   12874:	25030000 	addiu	v1,t0,0
			12874: R_MIPS_LO16	wireless_send_event
   12878:	0060f809 	jalr	v1
   1287c:	a7c20034 	sh	v0,52(s8)
   12880:	080048be 	j	122f8 <ar6000_connect_event+0x19c>
			12880: R_MIPS_26	.text
   12884:	8fc20054 	lw	v0,84(s8)
   12888:	40046000 	mfc0	a0,c0_status
   1288c:	3481001f 	ori	at,a0,0x1f
   12890:	3821001f 	xori	at,at,0x1f
   12894:	40816000 	mtc0	at,c0_status
   12898:	00000040 	ssnop
   1289c:	00000040 	ssnop
   128a0:	00000040 	ssnop
   128a4:	000000c0 	sll	zero,zero,0x3
   128a8:	8cc5002c 	lw	a1,44(a2)
   128ac:	8cc2002c 	lw	v0,44(a2)
   128b0:	2403fffe 	li	v1,-2
   128b4:	00431024 	and	v0,v0,v1
   128b8:	acc2002c 	sw	v0,44(a2)
   128bc:	30a50001 	andi	a1,a1,0x1
   128c0:	40016000 	mfc0	at,c0_status
   128c4:	30840001 	andi	a0,a0,0x1
   128c8:	3421001f 	ori	at,at,0x1f
   128cc:	3821001f 	xori	at,at,0x1f
   128d0:	00812025 	or	a0,a0,at
   128d4:	40846000 	mtc0	a0,c0_status
   128d8:	00000040 	ssnop
   128dc:	00000040 	ssnop
   128e0:	00000040 	ssnop
   128e4:	000000c0 	sll	zero,zero,0x3
   128e8:	08004994 	j	12650 <ar6000_connect_event+0x4f4>
			128e8: R_MIPS_26	.text
   128ec:	00000000 	nop
   128f0:	3c020000 	lui	v0,0x0
			128f0: R_MIPS_HI16	jiffies
   128f4:	8c450000 	lw	a1,0(v0)
			128f4: R_MIPS_LO16	jiffies
   128f8:	3c020000 	lui	v0,0x0
			128f8: R_MIPS_HI16	mod_timer
   128fc:	24a501f4 	addiu	a1,a1,500
   12900:	24420000 	addiu	v0,v0,0
			12900: R_MIPS_LO16	mod_timer
   12904:	0040f809 	jalr	v0
   12908:	26841610 	addiu	a0,s4,5648
   1290c:	0800488a 	j	12228 <ar6000_connect_event+0xcc>
			1290c: R_MIPS_26	.text
   12910:	3c030000 	lui	v1,0x0
			12910: R_MIPS_HI16	memcpy
   12914:	00603021 	move	a2,v1
   12918:	00002821 	move	a1,zero
   1291c:	25020000 	addiu	v0,t0,0
			1291c: R_MIPS_LO16	memset
   12920:	0040f809 	jalr	v0
   12924:	02e02021 	move	a0,s7
   12928:	3c020000 	lui	v0,0x0
			12928: R_MIPS_HI16	sprintf
   1292c:	3c050000 	lui	a1,0x0
			1292c: R_MIPS_HI16	$LC204
   12930:	8fc6004c 	lw	a2,76(s8)
   12934:	02e02021 	move	a0,s7
   12938:	24510000 	addiu	s1,v0,0
			12938: R_MIPS_LO16	sprintf
   1293c:	0220f809 	jalr	s1
   12940:	24a50000 	addiu	a1,a1,0
			12940: R_MIPS_LO16	$LC204
   12944:	3c020000 	lui	v0,0x0
			12944: R_MIPS_HI16	debugdriver
   12948:	8c430000 	lw	v1,0(v0)
			12948: R_MIPS_LO16	debugdriver
   1294c:	146000c2 	bnez	v1,12c58 <ar6000_connect_event+0xafc>
   12950:	26b00004 	addiu	s0,s5,4
   12954:	8fc40050 	lw	a0,80(s8)
   12958:	00901021 	addu	v0,a0,s0
   1295c:	2453fffc 	addiu	s3,v0,-4
   12960:	0213182a 	slt	v1,s0,s3
   12964:	1060001c 	beqz	v1,129d8 <ar6000_connect_event+0x87c>
   12968:	8fc800a4 	lw	t0,164(s8)
   1296c:	0220b021 	move	s6,s1
   12970:	01151021 	addu	v0,t0,s5
   12974:	02008821 	move	s1,s0
   12978:	24520004 	addiu	s2,v0,4
   1297c:	26f00011 	addiu	s0,s7,17
   12980:	08004a6b 	j	129ac <ar6000_connect_event+0x850>
			12980: R_MIPS_26	.text
   12984:	3c150000 	lui	s5,0x0
			12984: R_MIPS_HI16	$LC58
   12988:	92460000 	lbu	a2,0(s2)
   1298c:	3c020000 	lui	v0,0x0
			1298c: R_MIPS_HI16	$LC5
   12990:	02002021 	move	a0,s0
   12994:	02c0f809 	jalr	s6
   12998:	24450000 	addiu	a1,v0,0
			12998: R_MIPS_LO16	$LC5
   1299c:	0233182a 	slt	v1,s1,s3
   129a0:	26100002 	addiu	s0,s0,2
   129a4:	1060000c 	beqz	v1,129d8 <ar6000_connect_event+0x87c>
   129a8:	26520001 	addiu	s2,s2,1
   129ac:	3c030000 	lui	v1,0x0
			129ac: R_MIPS_HI16	debugdriver
   129b0:	8c620000 	lw	v0,0(v1)
			129b0: R_MIPS_LO16	debugdriver
   129b4:	26310001 	addiu	s1,s1,1
   129b8:	1040fff3 	beqz	v0,12988 <ar6000_connect_event+0x82c>
   129bc:	26a40000 	addiu	a0,s5,0
			129bc: R_MIPS_LO16	$LC58
   129c0:	3c080000 	lui	t0,0x0
			129c0: R_MIPS_HI16	printk
   129c4:	25080000 	addiu	t0,t0,0
			129c4: R_MIPS_LO16	printk
   129c8:	0100f809 	jalr	t0
   129cc:	92450000 	lbu	a1,0(s2)
   129d0:	08004a63 	j	1298c <ar6000_connect_event+0x830>
			129d0: R_MIPS_26	.text
   129d4:	92460000 	lbu	a2,0(s2)
   129d8:	3c030000 	lui	v1,0x0
			129d8: R_MIPS_HI16	debugdriver
   129dc:	8c620000 	lw	v0,0(v1)
			129dc: R_MIPS_LO16	debugdriver
   129e0:	14400097 	bnez	v0,12c40 <ar6000_connect_event+0xae4>
   129e4:	3c080000 	lui	t0,0x0
			129e4: R_MIPS_HI16	printk
   129e8:	3c030000 	lui	v1,0x0
			129e8: R_MIPS_HI16	memset
   129ec:	00002821 	move	a1,zero
   129f0:	24060010 	li	a2,16
   129f4:	24620000 	addiu	v0,v1,0
			129f4: R_MIPS_LO16	memset
   129f8:	0040f809 	jalr	v0
   129fc:	27c40030 	addiu	a0,s8,48
   12a00:	3c080000 	lui	t0,0x0
			12a00: R_MIPS_HI16	strlen
   12a04:	25020000 	addiu	v0,t0,0
			12a04: R_MIPS_LO16	strlen
   12a08:	0040f809 	jalr	v0
   12a0c:	02e02021 	move	a0,s7
   12a10:	8e840000 	lw	a0,0(s4)
   12a14:	3c080000 	lui	t0,0x0
			12a14: R_MIPS_HI16	wireless_send_event
   12a18:	02e03821 	move	a3,s7
   12a1c:	34058c02 	li	a1,0x8c02
   12a20:	27c60030 	addiu	a2,s8,48
   12a24:	25030000 	addiu	v1,t0,0
			12a24: R_MIPS_LO16	wireless_send_event
   12a28:	0060f809 	jalr	v1
   12a2c:	a7c20034 	sh	v0,52(s8)
   12a30:	080048ce 	j	12338 <ar6000_connect_event+0x1dc>
			12a30: R_MIPS_26	.text
   12a34:	8e830b4c 	lw	v1,2892(s4)
   12a38:	00603021 	move	a2,v1
   12a3c:	02e02021 	move	a0,s7
   12a40:	25020000 	addiu	v0,t0,0
			12a40: R_MIPS_LO16	memset
   12a44:	0040f809 	jalr	v0
   12a48:	00002821 	move	a1,zero
   12a4c:	3c030000 	lui	v1,0x0
			12a4c: R_MIPS_HI16	.rodata
   12a50:	8c6600f8 	lw	a2,248(v1)
			12a50: R_MIPS_LO16	.rodata
   12a54:	3c020000 	lui	v0,0x0
			12a54: R_MIPS_HI16	sprintf
   12a58:	3c050000 	lui	a1,0x0
			12a58: R_MIPS_HI16	$LC204
   12a5c:	02e02021 	move	a0,s7
   12a60:	24560000 	addiu	s6,v0,0
			12a60: R_MIPS_LO16	sprintf
   12a64:	02c0f809 	jalr	s6
   12a68:	24a50000 	addiu	a1,a1,0
			12a68: R_MIPS_LO16	$LC204
   12a6c:	3c020000 	lui	v0,0x0
			12a6c: R_MIPS_HI16	debugdriver
   12a70:	8fc40050 	lw	a0,80(s8)
   12a74:	8c430000 	lw	v1,0(v0)
			12a74: R_MIPS_LO16	debugdriver
   12a78:	02a48821 	addu	s1,s5,a0
   12a7c:	14600069 	bnez	v1,12c24 <ar6000_connect_event+0xac8>
   12a80:	26300006 	addiu	s0,s1,6
   12a84:	8fc30054 	lw	v1,84(s8)
   12a88:	00701021 	addu	v0,v1,s0
   12a8c:	2453fffa 	addiu	s3,v0,-6
   12a90:	0213182a 	slt	v1,s0,s3
   12a94:	1060001d 	beqz	v1,12b0c <ar6000_connect_event+0x9b0>
   12a98:	8fc400a4 	lw	a0,164(s8)
   12a9c:	02009021 	move	s2,s0
   12aa0:	00911021 	addu	v0,a0,s1
   12aa4:	24510006 	addiu	s1,v0,6
   12aa8:	26f0000c 	addiu	s0,s7,12
   12aac:	08004ab8 	j	12ae0 <ar6000_connect_event+0x984>
			12aac: R_MIPS_26	.text
   12ab0:	3c160000 	lui	s6,0x0
			12ab0: R_MIPS_HI16	$LC58
   12ab4:	92260000 	lbu	a2,0(s1)
   12ab8:	3c080000 	lui	t0,0x0
			12ab8: R_MIPS_HI16	$LC5
   12abc:	3c030000 	lui	v1,0x0
			12abc: R_MIPS_HI16	sprintf
   12ac0:	02002021 	move	a0,s0
   12ac4:	24630000 	addiu	v1,v1,0
			12ac4: R_MIPS_LO16	sprintf
   12ac8:	0060f809 	jalr	v1
   12acc:	25050000 	addiu	a1,t0,0
			12acc: R_MIPS_LO16	$LC5
   12ad0:	0253182a 	slt	v1,s2,s3
   12ad4:	26100002 	addiu	s0,s0,2
   12ad8:	1060000c 	beqz	v1,12b0c <ar6000_connect_event+0x9b0>
   12adc:	26310001 	addiu	s1,s1,1
   12ae0:	3c080000 	lui	t0,0x0
			12ae0: R_MIPS_HI16	debugdriver
   12ae4:	8d020000 	lw	v0,0(t0)
			12ae4: R_MIPS_LO16	debugdriver
   12ae8:	26520001 	addiu	s2,s2,1
   12aec:	1040fff1 	beqz	v0,12ab4 <ar6000_connect_event+0x958>
   12af0:	26c40000 	addiu	a0,s6,0
			12af0: R_MIPS_LO16	$LC58
   12af4:	3c030000 	lui	v1,0x0
			12af4: R_MIPS_HI16	printk
   12af8:	24630000 	addiu	v1,v1,0
			12af8: R_MIPS_LO16	printk
   12afc:	0060f809 	jalr	v1
   12b00:	92250000 	lbu	a1,0(s1)
   12b04:	08004aae 	j	12ab8 <ar6000_connect_event+0x95c>
			12b04: R_MIPS_26	.text
   12b08:	92260000 	lbu	a2,0(s1)
   12b0c:	3c040000 	lui	a0,0x0
			12b0c: R_MIPS_HI16	debugdriver
   12b10:	8c820000 	lw	v0,0(a0)
			12b10: R_MIPS_LO16	debugdriver
   12b14:	1440003d 	bnez	v0,12c0c <ar6000_connect_event+0xab0>
   12b18:	3c080000 	lui	t0,0x0
			12b18: R_MIPS_HI16	printk
   12b1c:	3c030000 	lui	v1,0x0
			12b1c: R_MIPS_HI16	memset
   12b20:	00002821 	move	a1,zero
   12b24:	24060010 	li	a2,16
   12b28:	24620000 	addiu	v0,v1,0
			12b28: R_MIPS_LO16	memset
   12b2c:	0040f809 	jalr	v0
   12b30:	27c40030 	addiu	a0,s8,48
   12b34:	3c080000 	lui	t0,0x0
			12b34: R_MIPS_HI16	strlen
   12b38:	25020000 	addiu	v0,t0,0
			12b38: R_MIPS_LO16	strlen
   12b3c:	0040f809 	jalr	v0
   12b40:	02e02021 	move	a0,s7
   12b44:	8e840000 	lw	a0,0(s4)
   12b48:	3c080000 	lui	t0,0x0
			12b48: R_MIPS_HI16	wireless_send_event
   12b4c:	34058c02 	li	a1,0x8c02
   12b50:	27c60030 	addiu	a2,s8,48
   12b54:	02e03821 	move	a3,s7
   12b58:	25030000 	addiu	v1,t0,0
			12b58: R_MIPS_LO16	wireless_send_event
   12b5c:	0060f809 	jalr	v1
   12b60:	a7c20034 	sh	v0,52(s8)
   12b64:	080048c6 	j	12318 <ar6000_connect_event+0x1bc>
			12b64: R_MIPS_26	.text
   12b68:	8fc20050 	lw	v0,80(s8)
   12b6c:	928300a0 	lbu	v1,160(s4)
   12b70:	1462fe0b 	bne	v1,v0,123a0 <ar6000_connect_event+0x244>
   12b74:	00000000 	nop
   12b78:	8e82003c 	lw	v0,60(s4)
   12b7c:	1440fe08 	bnez	v0,123a0 <ar6000_connect_event+0x244>
   12b80:	00000000 	nop
   12b84:	928500a4 	lbu	a1,164(s4)
   12b88:	8e840004 	lw	a0,4(s4)
   12b8c:	00051980 	sll	v1,a1,0x6
   12b90:	00051040 	sll	v0,a1,0x1
   12b94:	00431021 	addu	v0,v0,v1
   12b98:	00543021 	addu	a2,v0,s4
   12b9c:	90c300a6 	lbu	v1,166(a2)
   12ba0:	24c200a7 	addiu	v0,a2,167
   12ba4:	afa30010 	sw	v1,16(sp)
   12ba8:	afa20018 	sw	v0,24(sp)
   12bac:	24030003 	li	v1,3
   12bb0:	3c020000 	lui	v0,0x0
			12bb0: R_MIPS_HI16	wmi_addKey_cmd
   12bb4:	afa3001c 	sw	v1,28(sp)
   12bb8:	afa00014 	sw	zero,20(sp)
   12bbc:	afa00020 	sw	zero,32(sp)
   12bc0:	afa00024 	sw	zero,36(sp)
   12bc4:	24060002 	li	a2,2
   12bc8:	24420000 	addiu	v0,v0,0
			12bc8: R_MIPS_LO16	wmi_addKey_cmd
   12bcc:	0040f809 	jalr	v0
   12bd0:	24070003 	li	a3,3
   12bd4:	080048e8 	j	123a0 <ar6000_connect_event+0x244>
			12bd4: R_MIPS_26	.text
   12bd8:	00000000 	nop
   12bdc:	3c040000 	lui	a0,0x0
			12bdc: R_MIPS_HI16	$LC203
   12be0:	25020000 	addiu	v0,t0,0
			12be0: R_MIPS_LO16	printk
   12be4:	0040f809 	jalr	v0
   12be8:	24840000 	addiu	a0,a0,0
			12be8: R_MIPS_LO16	$LC203
   12bec:	080049da 	j	12768 <ar6000_connect_event+0x60c>
			12bec: R_MIPS_26	.text
   12bf0:	3c030000 	lui	v1,0x0
			12bf0: R_MIPS_HI16	memset
   12bf4:	3c040000 	lui	a0,0x0
			12bf4: R_MIPS_HI16	$LC1
   12bf8:	25020000 	addiu	v0,t0,0
			12bf8: R_MIPS_LO16	printk
   12bfc:	0040f809 	jalr	v0
   12c00:	24840000 	addiu	a0,a0,0
			12c00: R_MIPS_LO16	$LC1
   12c04:	08004a0f 	j	1283c <ar6000_connect_event+0x6e0>
			12c04: R_MIPS_26	.text
   12c08:	3c030000 	lui	v1,0x0
			12c08: R_MIPS_HI16	memset
   12c0c:	3c040000 	lui	a0,0x0
			12c0c: R_MIPS_HI16	$LC1
   12c10:	25020000 	addiu	v0,t0,0
			12c10: R_MIPS_LO16	printk
   12c14:	0040f809 	jalr	v0
   12c18:	24840000 	addiu	a0,a0,0
			12c18: R_MIPS_LO16	$LC1
   12c1c:	08004ac8 	j	12b20 <ar6000_connect_event+0x9c4>
			12c1c: R_MIPS_26	.text
   12c20:	3c030000 	lui	v1,0x0
			12c20: R_MIPS_HI16	memset
   12c24:	3c080000 	lui	t0,0x0
			12c24: R_MIPS_HI16	printk
   12c28:	3c040000 	lui	a0,0x0
			12c28: R_MIPS_HI16	$LC205
   12c2c:	25020000 	addiu	v0,t0,0
			12c2c: R_MIPS_LO16	printk
   12c30:	0040f809 	jalr	v0
   12c34:	24840000 	addiu	a0,a0,0
			12c34: R_MIPS_LO16	$LC205
   12c38:	08004aa2 	j	12a88 <ar6000_connect_event+0x92c>
			12c38: R_MIPS_26	.text
   12c3c:	8fc30054 	lw	v1,84(s8)
   12c40:	3c040000 	lui	a0,0x0
			12c40: R_MIPS_HI16	$LC1
   12c44:	25020000 	addiu	v0,t0,0
			12c44: R_MIPS_LO16	printk
   12c48:	0040f809 	jalr	v0
   12c4c:	24840000 	addiu	a0,a0,0
			12c4c: R_MIPS_LO16	$LC1
   12c50:	08004a7b 	j	129ec <ar6000_connect_event+0x890>
			12c50: R_MIPS_26	.text
   12c54:	3c030000 	lui	v1,0x0
			12c54: R_MIPS_HI16	memset
   12c58:	3c030000 	lui	v1,0x0
			12c58: R_MIPS_HI16	printk
   12c5c:	3c040000 	lui	a0,0x0
			12c5c: R_MIPS_HI16	$LC206
   12c60:	24620000 	addiu	v0,v1,0
			12c60: R_MIPS_LO16	printk
   12c64:	0040f809 	jalr	v0
   12c68:	24840000 	addiu	a0,a0,0
			12c68: R_MIPS_LO16	$LC206
   12c6c:	08004a56 	j	12958 <ar6000_connect_event+0x7fc>
			12c6c: R_MIPS_26	.text
   12c70:	8fc40050 	lw	a0,80(s8)
   12c74:	90650002 	lbu	a1,2(v1)
   12c78:	8e840004 	lw	a0,4(s4)
   12c7c:	26860b5e 	addiu	a2,s4,2910
   12c80:	26830b78 	addiu	v1,s4,2936
   12c84:	afa20014 	sw	v0,20(sp)
   12c88:	3c020000 	lui	v0,0x0
			12c88: R_MIPS_HI16	wmi_addKey_cmd
   12c8c:	afa60020 	sw	a2,32(sp)
   12c90:	afa70024 	sw	a3,36(sp)
   12c94:	afa80010 	sw	t0,16(sp)
   12c98:	afa30018 	sw	v1,24(sp)
   12c9c:	afb2001c 	sw	s2,28(sp)
   12ca0:	02203021 	move	a2,s1
   12ca4:	24420000 	addiu	v0,v0,0
			12ca4: R_MIPS_LO16	wmi_addKey_cmd
   12ca8:	0040f809 	jalr	v0
   12cac:	00003821 	move	a3,zero
   12cb0:	080049b3 	j	126cc <ar6000_connect_event+0x570>
			12cb0: R_MIPS_26	.text
   12cb4:	92030000 	lbu	v1,0(s0)
   12cb8:	8e840004 	lw	a0,4(s4)
   12cbc:	3c020000 	lui	v0,0x0
			12cbc: R_MIPS_HI16	wmi_add_krk_cmd
   12cc0:	24420000 	addiu	v0,v0,0
			12cc0: R_MIPS_LO16	wmi_add_krk_cmd
   12cc4:	0040f809 	jalr	v0
   12cc8:	26850b78 	addiu	a1,s4,2936
   12ccc:	080049b3 	j	126cc <ar6000_connect_event+0x570>
			12ccc: R_MIPS_26	.text
   12cd0:	92030000 	lbu	v1,0(s0)
   12cd4:	24420000 	addiu	v0,v0,0
			12cd4: R_MIPS_LO16	preempt_schedule
   12cd8:	0040f809 	jalr	v0
   12cdc:	00000000 	nop
   12ce0:	0800490c 	j	12430 <ar6000_connect_event+0x2d4>
			12ce0: R_MIPS_26	.text
   12ce4:	3c030000 	lui	v1,0x0
			12ce4: R_MIPS_HI16	memset
   12ce8:	8e840004 	lw	a0,4(s4)
   12cec:	3c020000 	lui	v0,0x0
			12cec: R_MIPS_HI16	wmi_add_krk_cmd
   12cf0:	24420000 	addiu	v0,v0,0
			12cf0: R_MIPS_LO16	wmi_add_krk_cmd
   12cf4:	0040f809 	jalr	v0
   12cf8:	26050020 	addiu	a1,s0,32
   12cfc:	ae800b4c 	sw	zero,2892(s4)
   12d00:	080048d1 	j	12344 <ar6000_connect_event+0x1e8>
			12d00: R_MIPS_26	.text
   12d04:	ae800b50 	sw	zero,2896(s4)
   12d08:	1000eed2 	b	e854 <ar6000_destroy+0x58>
   12d0c:	00000000 	nop
   12d10:	1000f2f3 	b	f8e0 <ar6000_disconnect_event+0x270>
   12d14:	00000000 	nop
   12d18:	1000f950 	b	1125c <ar6000_close+0x18>
   12d1c:	00000000 	nop
   12d20:	1000f9a5 	b	113b8 <ar6000_tx_queue_full+0xe4>
   12d24:	00000000 	nop
   12d28:	1000fa46 	b	11644 <ar6000_get_iwstats+0xd0>
   12d2c:	00000000 	nop
   12d30:	1000fa55 	b	11688 <ar6000_get_iwstats+0x114>
   12d34:	00000000 	nop
   12d38:	1000fafd 	b	11930 <ar6000_get_iwstats+0x3bc>
   12d3c:	00000000 	nop
   12d40:	1000fb56 	b	11a9c <ar6000_open+0x84>
   12d44:	00000000 	nop
   12d48:	1000fc1a 	b	11db4 <ar6000_tx_complete+0x1f8>
   12d4c:	00000000 	nop
   12d50:	1000fd83 	b	12360 <ar6000_connect_event+0x204>
   12d54:	00000000 	nop
   12d58:	1000fe37 	b	12638 <ar6000_connect_event+0x4dc>
   12d5c:	00000000 	nop
Disassembly of section .init.text:

00000000 <init_module>:
   0:	27bdffc8 	addiu	sp,sp,-56
   4:	afb00028 	sw	s0,40(sp)
   8:	afbf0034 	sw	ra,52(sp)
   c:	afb20030 	sw	s2,48(sp)
  10:	afb1002c 	sw	s1,44(sp)
  14:	3c020000 	lui	v0,0x0
			14: R_MIPS_HI16	work_mode
  18:	8c430000 	lw	v1,0(v0)
			18: R_MIPS_LO16	work_mode
  1c:	24100001 	li	s0,1
  20:	10700053 	beq	v1,s0,170 <init_module+0x170>
  24:	24020002 	li	v0,2
  28:	1062005d 	beq	v1,v0,1a0 <init_module+0x1a0>
  2c:	3c120000 	lui	s2,0x0
			2c: R_MIPS_HI16	fm_path
  30:	8e450000 	lw	a1,0(s2)
			30: R_MIPS_LO16	fm_path
  34:	10a0004b 	beqz	a1,164 <init_module+0x164>
  38:	3c110000 	lui	s1,0x0
			38: R_MIPS_HI16	tgt_fw_path
  3c:	3c100000 	lui	s0,0x0
			3c: R_MIPS_HI16	strcat
  40:	26100000 	addiu	s0,s0,0
			40: R_MIPS_LO16	strcat
  44:	0200f809 	jalr	s0
  48:	26240000 	addiu	a0,s1,0
			48: R_MIPS_LO16	tgt_fw_path
  4c:	3c050000 	lui	a1,0x0
			4c: R_MIPS_HI16	$LC64
  50:	26240000 	addiu	a0,s1,0
			50: R_MIPS_LO16	tgt_fw_path
  54:	0200f809 	jalr	s0
  58:	24a50000 	addiu	a1,a1,0
			58: R_MIPS_LO16	$LC64
  5c:	3c110000 	lui	s1,0x0
			5c: R_MIPS_HI16	tgt_patch_path
  60:	3c030000 	lui	v1,0x0
			60: R_MIPS_HI16	tgt_fw
  64:	8e450000 	lw	a1,0(s2)
			64: R_MIPS_LO16	fm_path
  68:	26240000 	addiu	a0,s1,0
			68: R_MIPS_LO16	tgt_patch_path
  6c:	0200f809 	jalr	s0
  70:	ac620000 	sw	v0,0(v1)
			70: R_MIPS_LO16	tgt_fw
  74:	3c050000 	lui	a1,0x0
			74: R_MIPS_HI16	$LC65
  78:	26240000 	addiu	a0,s1,0
			78: R_MIPS_LO16	tgt_patch_path
  7c:	0200f809 	jalr	s0
  80:	24a50000 	addiu	a1,a1,0
			80: R_MIPS_LO16	$LC65
  84:	3c110000 	lui	s1,0x0
			84: R_MIPS_HI16	eeprom_bin_path
  88:	3c030000 	lui	v1,0x0
			88: R_MIPS_HI16	tgt_patch
  8c:	8e450000 	lw	a1,0(s2)
			8c: R_MIPS_LO16	fm_path
  90:	ac620000 	sw	v0,0(v1)
			90: R_MIPS_LO16	tgt_patch
  94:	0200f809 	jalr	s0
  98:	26240000 	addiu	a0,s1,0
			98: R_MIPS_LO16	eeprom_bin_path
  9c:	3c050000 	lui	a1,0x0
			9c: R_MIPS_HI16	$LC66
  a0:	26240000 	addiu	a0,s1,0
			a0: R_MIPS_LO16	eeprom_bin_path
  a4:	0200f809 	jalr	s0
  a8:	24a50000 	addiu	a1,a1,0
			a8: R_MIPS_LO16	$LC66
  ac:	3c030000 	lui	v1,0x0
			ac: R_MIPS_HI16	eeprom_bin
  b0:	ac620000 	sw	v0,0(v1)
			b0: R_MIPS_LO16	eeprom_bin
  b4:	27b00010 	addiu	s0,sp,16
  b8:	3c020000 	lui	v0,0x0
			b8: R_MIPS_HI16	memset
  bc:	02002021 	move	a0,s0
  c0:	00002821 	move	a1,zero
  c4:	24420000 	addiu	v0,v0,0
			c4: R_MIPS_LO16	memset
  c8:	0040f809 	jalr	v0
  cc:	24060018 	li	a2,24
  d0:	3c030000 	lui	v1,0x0
			d0: R_MIPS_HI16	debugflags
  d4:	8c630000 	lw	v1,0(v1)
			d4: R_MIPS_LO16	debugflags
  d8:	10600003 	beqz	v1,e8 <init_module+0xe8>
  dc:	3c040000 	lui	a0,0x0
			dc: R_MIPS_HI16	.bss
  e0:	3c020000 	lui	v0,0x0
			e0: R_MIPS_HI16	g_dbg_flags
  e4:	ac430000 	sw	v1,0(v0)
			e4: R_MIPS_LO16	g_dbg_flags
  e8:	8c8209c8 	lw	v0,2504(a0)
			e8: R_MIPS_LO16	.bss
  ec:	10400008 	beqz	v0,110 <init_module+0x110>
  f0:	24030001 	li	v1,1
  f4:	8fbf0034 	lw	ra,52(sp)
  f8:	8fb20030 	lw	s2,48(sp)
  fc:	8fb1002c 	lw	s1,44(sp)
 100:	8fb00028 	lw	s0,40(sp)
 104:	2402ffed 	li	v0,-19
 108:	03e00008 	jr	ra
 10c:	27bd0038 	addiu	sp,sp,56
 110:	3c020001 	lui	v0,0x1
			110: R_MIPS_HI16	.text
 114:	ac8309c8 	sw	v1,2504(a0)
			114: R_MIPS_LO16	.bss
 118:	2442ed18 	addiu	v0,v0,-4840
			118: R_MIPS_LO16	.text
 11c:	3c030001 	lui	v1,0x1
			11c: R_MIPS_HI16	.text
 120:	afa20018 	sw	v0,24(sp)
 124:	246301b8 	addiu	v1,v1,440
			124: R_MIPS_LO16	.text
 128:	3c020000 	lui	v0,0x0
			128: R_MIPS_HI16	ar6000_gpio_init
 12c:	24420000 	addiu	v0,v0,0
			12c: R_MIPS_LO16	ar6000_gpio_init
 130:	0040f809 	jalr	v0
 134:	afa30014 	sw	v1,20(sp)
 138:	3c020000 	lui	v0,0x0
			138: R_MIPS_HI16	HIFInit
 13c:	24420000 	addiu	v0,v0,0
			13c: R_MIPS_LO16	HIFInit
 140:	0040f809 	jalr	v0
 144:	02002021 	move	a0,s0
 148:	1440ffea 	bnez	v0,f4 <init_module+0xf4>
 14c:	8fbf0034 	lw	ra,52(sp)
 150:	8fb20030 	lw	s2,48(sp)
 154:	8fb1002c 	lw	s1,44(sp)
 158:	8fb00028 	lw	s0,40(sp)
 15c:	03e00008 	jr	ra
 160:	27bd0038 	addiu	sp,sp,56
 164:	3c020000 	lui	v0,0x0
			164: R_MIPS_HI16	tgt_fw
 168:	0800002d 	j	b4 <init_module+0xb4>
			168: R_MIPS_26	.init.text
 16c:	ac400000 	sw	zero,0(v0)
			16c: R_MIPS_LO16	tgt_fw
 170:	3c040000 	lui	a0,0x0
			170: R_MIPS_HI16	$LC62
 174:	3c020000 	lui	v0,0x0
			174: R_MIPS_HI16	printk
 178:	24420000 	addiu	v0,v0,0
			178: R_MIPS_LO16	printk
 17c:	0040f809 	jalr	v0
 180:	24840000 	addiu	a0,a0,0
			180: R_MIPS_LO16	$LC62
 184:	3c030000 	lui	v1,0x0
			184: R_MIPS_HI16	tcmd_fw
 188:	8c640000 	lw	a0,0(v1)
			188: R_MIPS_LO16	tcmd_fw
 18c:	3c020000 	lui	v0,0x0
			18c: R_MIPS_HI16	testmode
 190:	3c030000 	lui	v1,0x0
			190: R_MIPS_HI16	tgt_fw
 194:	ac500000 	sw	s0,0(v0)
			194: R_MIPS_LO16	testmode
 198:	0800002d 	j	b4 <init_module+0xb4>
			198: R_MIPS_26	.init.text
 19c:	ac640000 	sw	a0,0(v1)
			19c: R_MIPS_LO16	tgt_fw
 1a0:	3c040000 	lui	a0,0x0
			1a0: R_MIPS_HI16	$LC63
 1a4:	3c020000 	lui	v0,0x0
			1a4: R_MIPS_HI16	printk
 1a8:	24420000 	addiu	v0,v0,0
			1a8: R_MIPS_LO16	printk
 1ac:	0040f809 	jalr	v0
 1b0:	24840000 	addiu	a0,a0,0
			1b0: R_MIPS_LO16	$LC63
 1b4:	3c020000 	lui	v0,0x0
			1b4: R_MIPS_HI16	.rodata
 1b8:	3c030000 	lui	v1,0x0
			1b8: R_MIPS_HI16	bypasswmi
 1bc:	8c4400c4 	lw	a0,196(v0)
			1bc: R_MIPS_LO16	.rodata
 1c0:	ac700000 	sw	s0,0(v1)
			1c0: R_MIPS_LO16	bypasswmi
 1c4:	3c030000 	lui	v1,0x0
			1c4: R_MIPS_HI16	tgt_fw
 1c8:	ac640000 	sw	a0,0(v1)
			1c8: R_MIPS_LO16	tgt_fw
 1cc:	3c020000 	lui	v0,0x0
			1cc: R_MIPS_HI16	enableuartprint
 1d0:	3c030000 	lui	v1,0x0
			1d0: R_MIPS_HI16	resetok
 1d4:	ac500000 	sw	s0,0(v0)
			1d4: R_MIPS_LO16	enableuartprint
 1d8:	0800002d 	j	b4 <init_module+0xb4>
			1d8: R_MIPS_26	.init.text
 1dc:	ac600000 	sw	zero,0(v1)
			1dc: R_MIPS_LO16	resetok
Disassembly of section .exit.text:

00000000 <cleanup_module>:
   0:	27bdffe8 	addiu	sp,sp,-24
   4:	afbf0010 	sw	ra,16(sp)
   8:	3c030000 	lui	v1,0x0
			8: R_MIPS_HI16	.bss
   c:	8c6209d0 	lw	v0,2512(v1)
			c: R_MIPS_LO16	.bss
  10:	24050001 	li	a1,1
  14:	10400005 	beqz	v0,2c <cleanup_module+0x2c>
  18:	00402021 	move	a0,v0
  1c:	3c020001 	lui	v0,0x1
			1c: R_MIPS_HI16	.text
  20:	2442e7fc 	addiu	v0,v0,-6148
			20: R_MIPS_LO16	.text
  24:	0040f809 	jalr	v0
  28:	ac6009d0 	sw	zero,2512(v1)
			28: R_MIPS_LO16	.bss
  2c:	3c020000 	lui	v0,0x0
			2c: R_MIPS_HI16	HIFShutDownDevice
  30:	24420000 	addiu	v0,v0,0
			30: R_MIPS_LO16	HIFShutDownDevice
  34:	0040f809 	jalr	v0
  38:	00002021 	move	a0,zero
  3c:	3c030000 	lui	v1,0x0
			3c: R_MIPS_HI16	debugdriver
  40:	8c620000 	lw	v0,0(v1)
			40: R_MIPS_LO16	debugdriver
  44:	3c040000 	lui	a0,0x0
			44: R_MIPS_HI16	$LC132
  48:	14400004 	bnez	v0,5c <cleanup_module+0x5c>
  4c:	24840000 	addiu	a0,a0,0
			4c: R_MIPS_LO16	$LC132
  50:	8fbf0010 	lw	ra,16(sp)
  54:	03e00008 	jr	ra
  58:	27bd0018 	addiu	sp,sp,24
  5c:	3c190000 	lui	t9,0x0
			5c: R_MIPS_HI16	printk
  60:	8fbf0010 	lw	ra,16(sp)
  64:	27390000 	addiu	t9,t9,0
			64: R_MIPS_LO16	printk
  68:	03200008 	jr	t9
  6c:	27bd0018 	addiu	sp,sp,24
